Archive member included to satisfy reference by file (symbol)

.build/obj_crkbd_rev1_via/serial_protocol.a(serial_protocol.o)
                              .build/obj_crkbd_rev1_via/quantum/split_common/transport.o (symbol from plugin) (soft_serial_target_init)
.build/obj_crkbd_rev1_via/serial_vendor.a(serial_vendor.o)
                              .build/obj_crkbd_rev1_via/serial_protocol.a(serial_protocol.o) (serial_transport_driver_clear)
.build/obj_crkbd_rev1_via/i2c_master.a(i2c_master.o)
                              .build/obj_crkbd_rev1_via/oled_driver.o (symbol from plugin) (i2c_init)
/opt/homebrew/Cellar/arm-none-eabi-gcc@8/8.5.0_2/lib/arm-none-eabi-gcc/8/gcc/arm-none-eabi/8.5.0/thumb/v6-m/nofp/libgcc.a(_dvmd_tls.o)
                              .build/obj_crkbd_rev1_via/./lib/pico-sdk/src/rp2_common/pico_divider/divider.o (__aeabi_idiv0)
/opt/homebrew/Cellar/arm-none-eabi-gcc@8/8.5.0_2/lib/arm-none-eabi-gcc/8/gcc/arm-none-eabi/8.5.0/thumb/v6-m/nofp/libgcc.a(_fixunssfsi.o)
                              .build/obj_crkbd_rev1_via/serial_vendor.a(serial_vendor.o) (__aeabi_f2uiz)
/opt/homebrew/Cellar/arm-none-eabi-gcc@8/8.5.0_2/lib/arm-none-eabi-gcc/8/gcc/arm-none-eabi/8.5.0/thumb/v6-m/nofp/libgcc.a(divsf3.o)
                              .build/obj_crkbd_rev1_via/serial_vendor.a(serial_vendor.o) (__aeabi_fdiv)
/opt/homebrew/Cellar/arm-none-eabi-gcc@8/8.5.0_2/lib/arm-none-eabi-gcc/8/gcc/arm-none-eabi/8.5.0/thumb/v6-m/nofp/libgcc.a(mulsf3.o)
                              .build/obj_crkbd_rev1_via/serial_vendor.a(serial_vendor.o) (__aeabi_fmul)
/opt/homebrew/Cellar/arm-none-eabi-gcc@8/8.5.0_2/lib/arm-none-eabi-gcc/8/gcc/arm-none-eabi/8.5.0/thumb/v6-m/nofp/libgcc.a(subsf3.o)
                              .build/obj_crkbd_rev1_via/serial_vendor.a(serial_vendor.o) (__aeabi_fsub)
/opt/homebrew/Cellar/arm-none-eabi-gcc@8/8.5.0_2/lib/arm-none-eabi-gcc/8/gcc/arm-none-eabi/8.5.0/thumb/v6-m/nofp/libgcc.a(fixsfsi.o)
                              /opt/homebrew/Cellar/arm-none-eabi-gcc@8/8.5.0_2/lib/arm-none-eabi-gcc/8/gcc/arm-none-eabi/8.5.0/thumb/v6-m/nofp/libgcc.a(_fixunssfsi.o) (__aeabi_f2iz)
/opt/homebrew/Cellar/arm-none-eabi-gcc@8/8.5.0_2/lib/arm-none-eabi-gcc/8/gcc/arm-none-eabi/8.5.0/thumb/v6-m/nofp/libgcc.a(floatunsisf.o)
                              .build/obj_crkbd_rev1_via/serial_vendor.a(serial_vendor.o) (__aeabi_ui2f)
/opt/homebrew/Cellar/arm-none-eabi-gcc@8/8.5.0_2/lib/arm-none-eabi-gcc/8/gcc/arm-none-eabi/8.5.0/thumb/v6-m/nofp/libgcc.a(_arm_cmpsf2.o)
                              /opt/homebrew/Cellar/arm-none-eabi-gcc@8/8.5.0_2/lib/arm-none-eabi-gcc/8/gcc/arm-none-eabi/8.5.0/thumb/v6-m/nofp/libgcc.a(_fixunssfsi.o) (__aeabi_fcmpge)
/opt/homebrew/Cellar/arm-none-eabi-gcc@8/8.5.0_2/lib/arm-none-eabi-gcc/8/gcc/arm-none-eabi/8.5.0/thumb/v6-m/nofp/libgcc.a(_clzsi2.o)
                              /opt/homebrew/Cellar/arm-none-eabi-gcc@8/8.5.0_2/lib/arm-none-eabi-gcc/8/gcc/arm-none-eabi/8.5.0/thumb/v6-m/nofp/libgcc.a(divsf3.o) (__clzsi2)
/opt/homebrew/Cellar/arm-none-eabi-gcc@8/8.5.0_2/lib/arm-none-eabi-gcc/8/gcc/arm-none-eabi/8.5.0/thumb/v6-m/nofp/libgcc.a(eqsf2.o)
                              /opt/homebrew/Cellar/arm-none-eabi-gcc@8/8.5.0_2/lib/arm-none-eabi-gcc/8/gcc/arm-none-eabi/8.5.0/thumb/v6-m/nofp/libgcc.a(_arm_cmpsf2.o) (__eqsf2)
/opt/homebrew/Cellar/arm-none-eabi-gcc@8/8.5.0_2/lib/arm-none-eabi-gcc/8/gcc/arm-none-eabi/8.5.0/thumb/v6-m/nofp/libgcc.a(gesf2.o)
                              /opt/homebrew/Cellar/arm-none-eabi-gcc@8/8.5.0_2/lib/arm-none-eabi-gcc/8/gcc/arm-none-eabi/8.5.0/thumb/v6-m/nofp/libgcc.a(_arm_cmpsf2.o) (__gesf2)
/opt/homebrew/Cellar/arm-none-eabi-gcc@8/8.5.0_2/lib/arm-none-eabi-gcc/8/gcc/arm-none-eabi/8.5.0/thumb/v6-m/nofp/libgcc.a(lesf2.o)
                              /opt/homebrew/Cellar/arm-none-eabi-gcc@8/8.5.0_2/lib/arm-none-eabi-gcc/8/gcc/arm-none-eabi/8.5.0/thumb/v6-m/nofp/libgcc.a(_arm_cmpsf2.o) (__lesf2)
/opt/homebrew/Cellar/arm-none-eabi-gcc@8/8.5.0_2/lib/arm-none-eabi-gcc/8/gcc/arm-none-eabi/8.5.0/../../../../../../arm-none-eabi/lib/thumb/v6-m/nofp/libg_nano.a(lib_a-ctype_.o)
                              .build/obj_crkbd_rev1_via/quantum/send_string/send_string.o (symbol from plugin) (_ctype_)
/opt/homebrew/Cellar/arm-none-eabi-gcc@8/8.5.0_2/lib/arm-none-eabi-gcc/8/gcc/arm-none-eabi/8.5.0/../../../../../../arm-none-eabi/lib/thumb/v6-m/nofp/libg_nano.a(lib_a-errno.o)
                              .build/obj_crkbd_rev1_via/platforms/chibios/syscall-fallbacks.o (symbol from plugin) (__errno)
/opt/homebrew/Cellar/arm-none-eabi-gcc@8/8.5.0_2/lib/arm-none-eabi-gcc/8/gcc/arm-none-eabi/8.5.0/../../../../../../arm-none-eabi/lib/thumb/v6-m/nofp/libg_nano.a(lib_a-impure.o)
                              /opt/homebrew/Cellar/arm-none-eabi-gcc@8/8.5.0_2/lib/arm-none-eabi-gcc/8/gcc/arm-none-eabi/8.5.0/../../../../../../arm-none-eabi/lib/thumb/v6-m/nofp/libg_nano.a(lib_a-errno.o) (_impure_ptr)
/opt/homebrew/Cellar/arm-none-eabi-gcc@8/8.5.0_2/lib/arm-none-eabi-gcc/8/gcc/arm-none-eabi/8.5.0/../../../../../../arm-none-eabi/lib/thumb/v6-m/nofp/libg_nano.a(lib_a-memcpy-stub.o)
                              .build/obj_crkbd_rev1_via/serial_vendor.a(serial_vendor.o) (memcpy)
/opt/homebrew/Cellar/arm-none-eabi-gcc@8/8.5.0_2/lib/arm-none-eabi-gcc/8/gcc/arm-none-eabi/8.5.0/../../../../../../arm-none-eabi/lib/thumb/v6-m/nofp/libg_nano.a(lib_a-rand.o)
                              .build/obj_crkbd_rev1_via/quantum/send_string/send_string.o (symbol from plugin) (rand)
/opt/homebrew/Cellar/arm-none-eabi-gcc@8/8.5.0_2/lib/arm-none-eabi-gcc/8/gcc/arm-none-eabi/8.5.0/../../../../../../arm-none-eabi/lib/thumb/v6-m/nofp/libg_nano.a(lib_a-assert.o)
                              /opt/homebrew/Cellar/arm-none-eabi-gcc@8/8.5.0_2/lib/arm-none-eabi-gcc/8/gcc/arm-none-eabi/8.5.0/../../../../../../arm-none-eabi/lib/thumb/v6-m/nofp/libg_nano.a(lib_a-rand.o) (__assert_func)
/opt/homebrew/Cellar/arm-none-eabi-gcc@8/8.5.0_2/lib/arm-none-eabi-gcc/8/gcc/arm-none-eabi/8.5.0/../../../../../../arm-none-eabi/lib/thumb/v6-m/nofp/libg_nano.a(lib_a-fprintf.o)
                              /opt/homebrew/Cellar/arm-none-eabi-gcc@8/8.5.0_2/lib/arm-none-eabi-gcc/8/gcc/arm-none-eabi/8.5.0/../../../../../../arm-none-eabi/lib/thumb/v6-m/nofp/libg_nano.a(lib_a-assert.o) (fiprintf)
/opt/homebrew/Cellar/arm-none-eabi-gcc@8/8.5.0_2/lib/arm-none-eabi-gcc/8/gcc/arm-none-eabi/8.5.0/../../../../../../arm-none-eabi/lib/thumb/v6-m/nofp/libg_nano.a(lib_a-malloc.o)
                              /opt/homebrew/Cellar/arm-none-eabi-gcc@8/8.5.0_2/lib/arm-none-eabi-gcc/8/gcc/arm-none-eabi/8.5.0/../../../../../../arm-none-eabi/lib/thumb/v6-m/nofp/libg_nano.a(lib_a-rand.o) (malloc)
/opt/homebrew/Cellar/arm-none-eabi-gcc@8/8.5.0_2/lib/arm-none-eabi-gcc/8/gcc/arm-none-eabi/8.5.0/../../../../../../arm-none-eabi/lib/thumb/v6-m/nofp/libg_nano.a(lib_a-nano-freer.o)
                              /opt/homebrew/Cellar/arm-none-eabi-gcc@8/8.5.0_2/lib/arm-none-eabi-gcc/8/gcc/arm-none-eabi/8.5.0/../../../../../../arm-none-eabi/lib/thumb/v6-m/nofp/libg_nano.a(lib_a-malloc.o) (_free_r)
/opt/homebrew/Cellar/arm-none-eabi-gcc@8/8.5.0_2/lib/arm-none-eabi-gcc/8/gcc/arm-none-eabi/8.5.0/../../../../../../arm-none-eabi/lib/thumb/v6-m/nofp/libg_nano.a(lib_a-nano-mallocr.o)
                              /opt/homebrew/Cellar/arm-none-eabi-gcc@8/8.5.0_2/lib/arm-none-eabi-gcc/8/gcc/arm-none-eabi/8.5.0/../../../../../../arm-none-eabi/lib/thumb/v6-m/nofp/libg_nano.a(lib_a-malloc.o) (_malloc_r)
/opt/homebrew/Cellar/arm-none-eabi-gcc@8/8.5.0_2/lib/arm-none-eabi-gcc/8/gcc/arm-none-eabi/8.5.0/../../../../../../arm-none-eabi/lib/thumb/v6-m/nofp/libg_nano.a(lib_a-nano-vfprintf.o)
                              /opt/homebrew/Cellar/arm-none-eabi-gcc@8/8.5.0_2/lib/arm-none-eabi-gcc/8/gcc/arm-none-eabi/8.5.0/../../../../../../arm-none-eabi/lib/thumb/v6-m/nofp/libg_nano.a(lib_a-fprintf.o) (_vfprintf_r)
/opt/homebrew/Cellar/arm-none-eabi-gcc@8/8.5.0_2/lib/arm-none-eabi-gcc/8/gcc/arm-none-eabi/8.5.0/../../../../../../arm-none-eabi/lib/thumb/v6-m/nofp/libg_nano.a(lib_a-nano-vfprintf_i.o)
                              /opt/homebrew/Cellar/arm-none-eabi-gcc@8/8.5.0_2/lib/arm-none-eabi-gcc/8/gcc/arm-none-eabi/8.5.0/../../../../../../arm-none-eabi/lib/thumb/v6-m/nofp/libg_nano.a(lib_a-nano-vfprintf.o) (_printf_i)
/opt/homebrew/Cellar/arm-none-eabi-gcc@8/8.5.0_2/lib/arm-none-eabi-gcc/8/gcc/arm-none-eabi/8.5.0/../../../../../../arm-none-eabi/lib/thumb/v6-m/nofp/libg_nano.a(lib_a-wbuf.o)
                              /opt/homebrew/Cellar/arm-none-eabi-gcc@8/8.5.0_2/lib/arm-none-eabi-gcc/8/gcc/arm-none-eabi/8.5.0/../../../../../../arm-none-eabi/lib/thumb/v6-m/nofp/libg_nano.a(lib_a-nano-vfprintf.o) (__swbuf_r)
/opt/homebrew/Cellar/arm-none-eabi-gcc@8/8.5.0_2/lib/arm-none-eabi-gcc/8/gcc/arm-none-eabi/8.5.0/../../../../../../arm-none-eabi/lib/thumb/v6-m/nofp/libg_nano.a(lib_a-wsetup.o)
                              /opt/homebrew/Cellar/arm-none-eabi-gcc@8/8.5.0_2/lib/arm-none-eabi-gcc/8/gcc/arm-none-eabi/8.5.0/../../../../../../arm-none-eabi/lib/thumb/v6-m/nofp/libg_nano.a(lib_a-nano-vfprintf.o) (__swsetup_r)
/opt/homebrew/Cellar/arm-none-eabi-gcc@8/8.5.0_2/lib/arm-none-eabi-gcc/8/gcc/arm-none-eabi/8.5.0/../../../../../../arm-none-eabi/lib/thumb/v6-m/nofp/libg_nano.a(lib_a-abort.o)
                              /opt/homebrew/Cellar/arm-none-eabi-gcc@8/8.5.0_2/lib/arm-none-eabi-gcc/8/gcc/arm-none-eabi/8.5.0/../../../../../../arm-none-eabi/lib/thumb/v6-m/nofp/libg_nano.a(lib_a-assert.o) (abort)
/opt/homebrew/Cellar/arm-none-eabi-gcc@8/8.5.0_2/lib/arm-none-eabi-gcc/8/gcc/arm-none-eabi/8.5.0/../../../../../../arm-none-eabi/lib/thumb/v6-m/nofp/libg_nano.a(lib_a-fflush.o)
                              /opt/homebrew/Cellar/arm-none-eabi-gcc@8/8.5.0_2/lib/arm-none-eabi-gcc/8/gcc/arm-none-eabi/8.5.0/../../../../../../arm-none-eabi/lib/thumb/v6-m/nofp/libg_nano.a(lib_a-wbuf.o) (_fflush_r)
/opt/homebrew/Cellar/arm-none-eabi-gcc@8/8.5.0_2/lib/arm-none-eabi-gcc/8/gcc/arm-none-eabi/8.5.0/../../../../../../arm-none-eabi/lib/thumb/v6-m/nofp/libg_nano.a(lib_a-findfp.o)
                              /opt/homebrew/Cellar/arm-none-eabi-gcc@8/8.5.0_2/lib/arm-none-eabi-gcc/8/gcc/arm-none-eabi/8.5.0/../../../../../../arm-none-eabi/lib/thumb/v6-m/nofp/libg_nano.a(lib_a-nano-vfprintf.o) (__sinit)
/opt/homebrew/Cellar/arm-none-eabi-gcc@8/8.5.0_2/lib/arm-none-eabi-gcc/8/gcc/arm-none-eabi/8.5.0/../../../../../../arm-none-eabi/lib/thumb/v6-m/nofp/libg_nano.a(lib_a-fvwrite.o)
                              /opt/homebrew/Cellar/arm-none-eabi-gcc@8/8.5.0_2/lib/arm-none-eabi-gcc/8/gcc/arm-none-eabi/8.5.0/../../../../../../arm-none-eabi/lib/thumb/v6-m/nofp/libg_nano.a(lib_a-nano-vfprintf.o) (__sfvwrite_r)
/opt/homebrew/Cellar/arm-none-eabi-gcc@8/8.5.0_2/lib/arm-none-eabi-gcc/8/gcc/arm-none-eabi/8.5.0/../../../../../../arm-none-eabi/lib/thumb/v6-m/nofp/libg_nano.a(lib_a-fwalk.o)
                              /opt/homebrew/Cellar/arm-none-eabi-gcc@8/8.5.0_2/lib/arm-none-eabi-gcc/8/gcc/arm-none-eabi/8.5.0/../../../../../../arm-none-eabi/lib/thumb/v6-m/nofp/libg_nano.a(lib_a-findfp.o) (_fwalk)
/opt/homebrew/Cellar/arm-none-eabi-gcc@8/8.5.0_2/lib/arm-none-eabi-gcc/8/gcc/arm-none-eabi/8.5.0/../../../../../../arm-none-eabi/lib/thumb/v6-m/nofp/libg_nano.a(lib_a-lock.o)
                              /opt/homebrew/Cellar/arm-none-eabi-gcc@8/8.5.0_2/lib/arm-none-eabi-gcc/8/gcc/arm-none-eabi/8.5.0/../../../../../../arm-none-eabi/lib/thumb/v6-m/nofp/libg_nano.a(lib_a-findfp.o) (__retarget_lock_init_recursive)
/opt/homebrew/Cellar/arm-none-eabi-gcc@8/8.5.0_2/lib/arm-none-eabi-gcc/8/gcc/arm-none-eabi/8.5.0/../../../../../../arm-none-eabi/lib/thumb/v6-m/nofp/libg_nano.a(lib_a-makebuf.o)
                              /opt/homebrew/Cellar/arm-none-eabi-gcc@8/8.5.0_2/lib/arm-none-eabi-gcc/8/gcc/arm-none-eabi/8.5.0/../../../../../../arm-none-eabi/lib/thumb/v6-m/nofp/libg_nano.a(lib_a-wsetup.o) (__smakebuf_r)
/opt/homebrew/Cellar/arm-none-eabi-gcc@8/8.5.0_2/lib/arm-none-eabi-gcc/8/gcc/arm-none-eabi/8.5.0/../../../../../../arm-none-eabi/lib/thumb/v6-m/nofp/libg_nano.a(lib_a-memchr-stub.o)
                              /opt/homebrew/Cellar/arm-none-eabi-gcc@8/8.5.0_2/lib/arm-none-eabi-gcc/8/gcc/arm-none-eabi/8.5.0/../../../../../../arm-none-eabi/lib/thumb/v6-m/nofp/libg_nano.a(lib_a-nano-vfprintf.o) (memchr)
/opt/homebrew/Cellar/arm-none-eabi-gcc@8/8.5.0_2/lib/arm-none-eabi-gcc/8/gcc/arm-none-eabi/8.5.0/../../../../../../arm-none-eabi/lib/thumb/v6-m/nofp/libg_nano.a(lib_a-memmove.o)
                              /opt/homebrew/Cellar/arm-none-eabi-gcc@8/8.5.0_2/lib/arm-none-eabi-gcc/8/gcc/arm-none-eabi/8.5.0/../../../../../../arm-none-eabi/lib/thumb/v6-m/nofp/libg_nano.a(lib_a-fvwrite.o) (memmove)
/opt/homebrew/Cellar/arm-none-eabi-gcc@8/8.5.0_2/lib/arm-none-eabi-gcc/8/gcc/arm-none-eabi/8.5.0/../../../../../../arm-none-eabi/lib/thumb/v6-m/nofp/libg_nano.a(lib_a-memset.o)
                              /opt/homebrew/Cellar/arm-none-eabi-gcc@8/8.5.0_2/lib/arm-none-eabi-gcc/8/gcc/arm-none-eabi/8.5.0/../../../../../../arm-none-eabi/lib/thumb/v6-m/nofp/libg_nano.a(lib_a-findfp.o) (memset)
/opt/homebrew/Cellar/arm-none-eabi-gcc@8/8.5.0_2/lib/arm-none-eabi-gcc/8/gcc/arm-none-eabi/8.5.0/../../../../../../arm-none-eabi/lib/thumb/v6-m/nofp/libg_nano.a(lib_a-mlock.o)
                              /opt/homebrew/Cellar/arm-none-eabi-gcc@8/8.5.0_2/lib/arm-none-eabi-gcc/8/gcc/arm-none-eabi/8.5.0/../../../../../../arm-none-eabi/lib/thumb/v6-m/nofp/libg_nano.a(lib_a-nano-freer.o) (__malloc_lock)
/opt/homebrew/Cellar/arm-none-eabi-gcc@8/8.5.0_2/lib/arm-none-eabi-gcc/8/gcc/arm-none-eabi/8.5.0/../../../../../../arm-none-eabi/lib/thumb/v6-m/nofp/libg_nano.a(lib_a-nano-reallocr.o)
                              /opt/homebrew/Cellar/arm-none-eabi-gcc@8/8.5.0_2/lib/arm-none-eabi-gcc/8/gcc/arm-none-eabi/8.5.0/../../../../../../arm-none-eabi/lib/thumb/v6-m/nofp/libg_nano.a(lib_a-fvwrite.o) (_realloc_r)
/opt/homebrew/Cellar/arm-none-eabi-gcc@8/8.5.0_2/lib/arm-none-eabi-gcc/8/gcc/arm-none-eabi/8.5.0/../../../../../../arm-none-eabi/lib/thumb/v6-m/nofp/libg_nano.a(lib_a-signal.o)
                              /opt/homebrew/Cellar/arm-none-eabi-gcc@8/8.5.0_2/lib/arm-none-eabi-gcc/8/gcc/arm-none-eabi/8.5.0/../../../../../../arm-none-eabi/lib/thumb/v6-m/nofp/libg_nano.a(lib_a-abort.o) (raise)
/opt/homebrew/Cellar/arm-none-eabi-gcc@8/8.5.0_2/lib/arm-none-eabi-gcc/8/gcc/arm-none-eabi/8.5.0/../../../../../../arm-none-eabi/lib/thumb/v6-m/nofp/libg_nano.a(lib_a-signalr.o)
                              /opt/homebrew/Cellar/arm-none-eabi-gcc@8/8.5.0_2/lib/arm-none-eabi-gcc/8/gcc/arm-none-eabi/8.5.0/../../../../../../arm-none-eabi/lib/thumb/v6-m/nofp/libg_nano.a(lib_a-signal.o) (_kill_r)
/opt/homebrew/Cellar/arm-none-eabi-gcc@8/8.5.0_2/lib/arm-none-eabi-gcc/8/gcc/arm-none-eabi/8.5.0/../../../../../../arm-none-eabi/lib/thumb/v6-m/nofp/libg_nano.a(lib_a-stdio.o)
                              /opt/homebrew/Cellar/arm-none-eabi-gcc@8/8.5.0_2/lib/arm-none-eabi-gcc/8/gcc/arm-none-eabi/8.5.0/../../../../../../arm-none-eabi/lib/thumb/v6-m/nofp/libg_nano.a(lib_a-findfp.o) (__sread)
/opt/homebrew/Cellar/arm-none-eabi-gcc@8/8.5.0_2/lib/arm-none-eabi-gcc/8/gcc/arm-none-eabi/8.5.0/../../../../../../arm-none-eabi/lib/thumb/v6-m/nofp/libg_nano.a(lib_a-nano-msizer.o)
                              /opt/homebrew/Cellar/arm-none-eabi-gcc@8/8.5.0_2/lib/arm-none-eabi-gcc/8/gcc/arm-none-eabi/8.5.0/../../../../../../arm-none-eabi/lib/thumb/v6-m/nofp/libg_nano.a(lib_a-nano-reallocr.o) (_malloc_usable_size_r)
/opt/homebrew/Cellar/arm-none-eabi-gcc@8/8.5.0_2/lib/arm-none-eabi-gcc/8/gcc/arm-none-eabi/8.5.0/../../../../../../arm-none-eabi/lib/thumb/v6-m/nofp/libg_nano.a(lib_a-reent.o)
                              /opt/homebrew/Cellar/arm-none-eabi-gcc@8/8.5.0_2/lib/arm-none-eabi-gcc/8/gcc/arm-none-eabi/8.5.0/../../../../../../arm-none-eabi/lib/thumb/v6-m/nofp/libg_nano.a(lib_a-signalr.o) (errno)
/opt/homebrew/Cellar/arm-none-eabi-gcc@8/8.5.0_2/lib/arm-none-eabi-gcc/8/gcc/arm-none-eabi/8.5.0/thumb/v6-m/nofp/libgcc.a(_thumb1_case_sqi.o)
                              /var/folders/tr/p8fgs8cd4pn1v7l1rzxd4yfr0000gn/T//ccLV2jr4.ltrans0.ltrans.o (__gnu_thumb1_case_sqi)
/opt/homebrew/Cellar/arm-none-eabi-gcc@8/8.5.0_2/lib/arm-none-eabi-gcc/8/gcc/arm-none-eabi/8.5.0/thumb/v6-m/nofp/libgcc.a(_thumb1_case_uqi.o)
                              /var/folders/tr/p8fgs8cd4pn1v7l1rzxd4yfr0000gn/T//ccLV2jr4.ltrans0.ltrans.o (__gnu_thumb1_case_uqi)
/opt/homebrew/Cellar/arm-none-eabi-gcc@8/8.5.0_2/lib/arm-none-eabi-gcc/8/gcc/arm-none-eabi/8.5.0/thumb/v6-m/nofp/libgcc.a(_thumb1_case_shi.o)
                              /var/folders/tr/p8fgs8cd4pn1v7l1rzxd4yfr0000gn/T//ccLV2jr4.ltrans0.ltrans.o (__gnu_thumb1_case_shi)
/opt/homebrew/Cellar/arm-none-eabi-gcc@8/8.5.0_2/lib/arm-none-eabi-gcc/8/gcc/arm-none-eabi/8.5.0/thumb/v6-m/nofp/libgcc.a(_thumb1_case_uhi.o)
                              /var/folders/tr/p8fgs8cd4pn1v7l1rzxd4yfr0000gn/T//ccLV2jr4.ltrans0.ltrans.o (__gnu_thumb1_case_uhi)
/opt/homebrew/Cellar/arm-none-eabi-gcc@8/8.5.0_2/lib/arm-none-eabi-gcc/8/gcc/arm-none-eabi/8.5.0/thumb/v6-m/nofp/libgcc.a(_ctzsi2.o)
                              /var/folders/tr/p8fgs8cd4pn1v7l1rzxd4yfr0000gn/T//ccLV2jr4.ltrans0.ltrans.o (__ctzsi2)
/opt/homebrew/Cellar/arm-none-eabi-gcc@8/8.5.0_2/lib/arm-none-eabi-gcc/8/gcc/arm-none-eabi/8.5.0/../../../../../../arm-none-eabi/lib/thumb/v6-m/nofp/libg_nano.a(lib_a-memcmp.o)
                              /var/folders/tr/p8fgs8cd4pn1v7l1rzxd4yfr0000gn/T//ccLV2jr4.ltrans0.ltrans.o (memcmp)
/opt/homebrew/Cellar/arm-none-eabi-gcc@8/8.5.0_2/lib/arm-none-eabi-gcc/8/gcc/arm-none-eabi/8.5.0/../../../../../../arm-none-eabi/lib/thumb/v6-m/nofp/libg_nano.a(lib_a-strlen-stub.o)
                              /var/folders/tr/p8fgs8cd4pn1v7l1rzxd4yfr0000gn/T//ccLV2jr4.ltrans0.ltrans.o (strlen)

Allocating common symbols
Common symbol       size              file

event_queue         0x10              .build/obj_crkbd_rev1_via/protocol/chibios/usb_main.o (symbol from plugin)
rgblight_config     0x8               .build/obj_crkbd_rev1_via/quantum/rgblight/rgblight.o (symbol from plugin)
__lock___atexit_recursive_mutex
                    0x1               /opt/homebrew/Cellar/arm-none-eabi-gcc@8/8.5.0_2/lib/arm-none-eabi-gcc/8/gcc/arm-none-eabi/8.5.0/../../../../../../arm-none-eabi/lib/thumb/v6-m/nofp/libg_nano.a(lib_a-lock.o)
keymap_config       0x2               .build/obj_crkbd_rev1_via/quantum/keycode_config.o (symbol from plugin)
__lock___arc4random_mutex
                    0x1               /opt/homebrew/Cellar/arm-none-eabi-gcc@8/8.5.0_2/lib/arm-none-eabi-gcc/8/gcc/arm-none-eabi/8.5.0/../../../../../../arm-none-eabi/lib/thumb/v6-m/nofp/libg_nano.a(lib_a-lock.o)
event_queue_head    0x1               .build/obj_crkbd_rev1_via/protocol/chibios/usb_main.o (symbol from plugin)
thatHand            0x1               .build/obj_crkbd_rev1_via/quantum/matrix_common.o (symbol from plugin)
I2CD1               0x38              /var/folders/tr/p8fgs8cd4pn1v7l1rzxd4yfr0000gn/T//ccLV2jr4.ltrans0.ltrans.o
errno               0x4               /opt/homebrew/Cellar/arm-none-eabi-gcc@8/8.5.0_2/lib/arm-none-eabi-gcc/8/gcc/arm-none-eabi/8.5.0/../../../../../../arm-none-eabi/lib/thumb/v6-m/nofp/libg_nano.a(lib_a-reent.o)
oled_buffer         0x200             .build/obj_crkbd_rev1_via/oled_driver.o (symbol from plugin)
SystemCoreClock     0x4               .build/obj_crkbd_rev1_via/lib/chibios/os/hal/ports/RP/RP2040/hal_lld.o (symbol from plugin)
sync_timer_ms       0x4               .build/obj_crkbd_rev1_via/quantum/sync_timer.o (symbol from plugin)
__lock___env_recursive_mutex
                    0x1               /opt/homebrew/Cellar/arm-none-eabi-gcc@8/8.5.0_2/lib/arm-none-eabi-gcc/8/gcc/arm-none-eabi/8.5.0/../../../../../../arm-none-eabi/lib/thumb/v6-m/nofp/libg_nano.a(lib_a-lock.o)
__lock___sinit_recursive_mutex
                    0x1               /opt/homebrew/Cellar/arm-none-eabi-gcc@8/8.5.0_2/lib/arm-none-eabi-gcc/8/gcc/arm-none-eabi/8.5.0/../../../../../../arm-none-eabi/lib/thumb/v6-m/nofp/libg_nano.a(lib_a-lock.o)
__lock___malloc_recursive_mutex
                    0x1               /opt/homebrew/Cellar/arm-none-eabi-gcc@8/8.5.0_2/lib/arm-none-eabi-gcc/8/gcc/arm-none-eabi/8.5.0/../../../../../../arm-none-eabi/lib/thumb/v6-m/nofp/libg_nano.a(lib_a-lock.o)
ADCD1               0x38              .build/obj_crkbd_rev1_via/lib/chibios-contrib/os/hal/ports/RP/LLD/ADCv1/hal_adc_lld.o (symbol from plugin)
led                 0xa2              .build/obj_crkbd_rev1_via/quantum/rgblight/rgblight.o (symbol from plugin)
oled_update_timeout
                    0x2               .build/obj_crkbd_rev1_via/oled_driver.o (symbol from plugin)
last_col            0x1               .build/obj_crkbd_rev1_via/keyboards/crkbd/crkbd.o (symbol from plugin)
raw_matrix          0x8               .build/obj_crkbd_rev1_via/quantum/matrix_common.o (symbol from plugin)
ch_system           0x10              .build/obj_crkbd_rev1_via/lib/chibios/os/rt/src/chsys.o (symbol from plugin)
oled_timeout        0x4               .build/obj_crkbd_rev1_via/oled_driver.o (symbol from plugin)
USBD1               0xe4              .build/obj_crkbd_rev1_via/lib/chibios-contrib/os/hal/ports/RP/LLD/USBDv1/hal_usb_lld.o (symbol from plugin)
matrix              0x8               .build/obj_crkbd_rev1_via/quantum/matrix_common.o (symbol from plugin)
tp_buttons          0x4               .build/obj_crkbd_rev1_via/quantum/action.o (symbol from plugin)
last_row            0x1               .build/obj_crkbd_rev1_via/keyboards/crkbd/crkbd.o (symbol from plugin)
event_queue_tail    0x1               .build/obj_crkbd_rev1_via/protocol/chibios/usb_main.o (symbol from plugin)
__lock___at_quick_exit_mutex
                    0x1               /opt/homebrew/Cellar/arm-none-eabi-gcc@8/8.5.0_2/lib/arm-none-eabi-gcc/8/gcc/arm-none-eabi/8.5.0/../../../../../../arm-none-eabi/lib/thumb/v6-m/nofp/libg_nano.a(lib_a-lock.o)
ch_memcore          0x8               .build/obj_crkbd_rev1_via/./lib/chibios/os/oslib/src/chmemcore.o (symbol from plugin)
oled_cursor         0x4               .build/obj_crkbd_rev1_via/oled_driver.o (symbol from plugin)
thisHand            0x1               .build/obj_crkbd_rev1_via/quantum/matrix_common.o (symbol from plugin)
__lock___dd_hash_mutex
                    0x1               /opt/homebrew/Cellar/arm-none-eabi-gcc@8/8.5.0_2/lib/arm-none-eabi-gcc/8/gcc/arm-none-eabi/8.5.0/../../../../../../arm-none-eabi/lib/thumb/v6-m/nofp/libg_nano.a(lib_a-lock.o)
__lock___tz_mutex   0x1               /opt/homebrew/Cellar/arm-none-eabi-gcc@8/8.5.0_2/lib/arm-none-eabi-gcc/8/gcc/arm-none-eabi/8.5.0/../../../../../../arm-none-eabi/lib/thumb/v6-m/nofp/libg_nano.a(lib_a-lock.o)
SPID0               0x30              .build/obj_crkbd_rev1_via/lib/chibios/os/hal/ports/RP/LLD/SPIv1/hal_spi_lld.o (symbol from plugin)
st_callbacks        0x10              .build/obj_crkbd_rev1_via/lib/chibios/os/hal/src/hal_st.o (symbol from plugin)
last_keycode        0x2               .build/obj_crkbd_rev1_via/keyboards/crkbd/crkbd.o (symbol from plugin)
__lock___sfp_recursive_mutex
                    0x1               /opt/homebrew/Cellar/arm-none-eabi-gcc@8/8.5.0_2/lib/arm-none-eabi-gcc/8/gcc/arm-none-eabi/8.5.0/../../../../../../arm-none-eabi/lib/thumb/v6-m/nofp/libg_nano.a(lib_a-lock.o)

Discarded input sections

 .comment       0x00000000     0x18ae /var/folders/tr/p8fgs8cd4pn1v7l1rzxd4yfr0000gn/T//ccgyOZ3Gdebugobj
 .text          0x00000000        0x0 /var/folders/tr/p8fgs8cd4pn1v7l1rzxd4yfr0000gn/T//ccLV2jr4.ltrans0.ltrans.o
 .data          0x00000000        0x0 /var/folders/tr/p8fgs8cd4pn1v7l1rzxd4yfr0000gn/T//ccLV2jr4.ltrans0.ltrans.o
 .bss           0x00000000        0x0 /var/folders/tr/p8fgs8cd4pn1v7l1rzxd4yfr0000gn/T//ccLV2jr4.ltrans0.ltrans.o
 .text.putchar_wrapper
                0x00000000       0x10 /var/folders/tr/p8fgs8cd4pn1v7l1rzxd4yfr0000gn/T//ccLV2jr4.ltrans0.ltrans.o
 .text.putchar_via_gadget
                0x00000000       0x24 /var/folders/tr/p8fgs8cd4pn1v7l1rzxd4yfr0000gn/T//ccLV2jr4.ltrans0.ltrans.o
 .text.out_rev_
                0x00000000       0x56 /var/folders/tr/p8fgs8cd4pn1v7l1rzxd4yfr0000gn/T//ccLV2jr4.ltrans0.ltrans.o
 .text.print_integer
                0x00000000      0x174 /var/folders/tr/p8fgs8cd4pn1v7l1rzxd4yfr0000gn/T//ccLV2jr4.ltrans0.ltrans.o
 .text.vsnprintf_impl.constprop.55
                0x00000000      0x38c /var/folders/tr/p8fgs8cd4pn1v7l1rzxd4yfr0000gn/T//ccLV2jr4.ltrans0.ltrans.o
 .text._gettimeofday_r
                0x00000000        0x8 /var/folders/tr/p8fgs8cd4pn1v7l1rzxd4yfr0000gn/T//ccLV2jr4.ltrans0.ltrans.o
 .text._link_r  0x00000000        0x8 /var/folders/tr/p8fgs8cd4pn1v7l1rzxd4yfr0000gn/T//ccLV2jr4.ltrans0.ltrans.o
 .text._times_r
                0x00000000        0xa /var/folders/tr/p8fgs8cd4pn1v7l1rzxd4yfr0000gn/T//ccLV2jr4.ltrans0.ltrans.o
 .text._unlink_r
                0x00000000        0x8 /var/folders/tr/p8fgs8cd4pn1v7l1rzxd4yfr0000gn/T//ccLV2jr4.ltrans0.ltrans.o
 .text.__cxa_pure_virtual
                0x00000000        0xc /var/folders/tr/p8fgs8cd4pn1v7l1rzxd4yfr0000gn/T//ccLV2jr4.ltrans0.ltrans.o
 .text._getpid  0x00000000        0x4 /var/folders/tr/p8fgs8cd4pn1v7l1rzxd4yfr0000gn/T//ccLV2jr4.ltrans0.ltrans.o
 .text._kill    0x00000000        0xc /var/folders/tr/p8fgs8cd4pn1v7l1rzxd4yfr0000gn/T//ccLV2jr4.ltrans0.ltrans.o
 .text._exit    0x00000000        0xc /var/folders/tr/p8fgs8cd4pn1v7l1rzxd4yfr0000gn/T//ccLV2jr4.ltrans0.ltrans.o
 .text._isatty_r
                0x00000000        0x4 /var/folders/tr/p8fgs8cd4pn1v7l1rzxd4yfr0000gn/T//ccLV2jr4.ltrans0.ltrans.o
 .text._fstat_r
                0x00000000       0x18 /var/folders/tr/p8fgs8cd4pn1v7l1rzxd4yfr0000gn/T//ccLV2jr4.ltrans0.ltrans.o
 .text._sbrk_r  0x00000000       0x3c /var/folders/tr/p8fgs8cd4pn1v7l1rzxd4yfr0000gn/T//ccLV2jr4.ltrans0.ltrans.o
 .text._close_r
                0x00000000        0x4 /var/folders/tr/p8fgs8cd4pn1v7l1rzxd4yfr0000gn/T//ccLV2jr4.ltrans0.ltrans.o
 .text._open_r  0x00000000        0xa /var/folders/tr/p8fgs8cd4pn1v7l1rzxd4yfr0000gn/T//ccLV2jr4.ltrans0.ltrans.o
 .text._write_r
                0x00000000        0x4 /var/folders/tr/p8fgs8cd4pn1v7l1rzxd4yfr0000gn/T//ccLV2jr4.ltrans0.ltrans.o
 .text._lseek_r
                0x00000000        0x4 /var/folders/tr/p8fgs8cd4pn1v7l1rzxd4yfr0000gn/T//ccLV2jr4.ltrans0.ltrans.o
 .text._read_r  0x00000000        0xa /var/folders/tr/p8fgs8cd4pn1v7l1rzxd4yfr0000gn/T//ccLV2jr4.ltrans0.ltrans.o
 .text.i2cMasterReceiveTimeout
                0x00000000       0xb8 /var/folders/tr/p8fgs8cd4pn1v7l1rzxd4yfr0000gn/T//ccLV2jr4.ltrans0.ltrans.o
 .text.vsnprintf
                0x00000000       0x34 /var/folders/tr/p8fgs8cd4pn1v7l1rzxd4yfr0000gn/T//ccLV2jr4.ltrans0.ltrans.o
 .text.snprintf
                0x00000000       0x16 /var/folders/tr/p8fgs8cd4pn1v7l1rzxd4yfr0000gn/T//ccLV2jr4.ltrans0.ltrans.o
 .text.vsprintf
                0x00000000       0x14 /var/folders/tr/p8fgs8cd4pn1v7l1rzxd4yfr0000gn/T//ccLV2jr4.ltrans0.ltrans.o
 .text.sprintf  0x00000000       0x16 /var/folders/tr/p8fgs8cd4pn1v7l1rzxd4yfr0000gn/T//ccLV2jr4.ltrans0.ltrans.o
 .text.vprintf  0x00000000       0x28 /var/folders/tr/p8fgs8cd4pn1v7l1rzxd4yfr0000gn/T//ccLV2jr4.ltrans0.ltrans.o
 .rodata.__cxa_pure_virtual.str1.1
                0x00000000        0xd /var/folders/tr/p8fgs8cd4pn1v7l1rzxd4yfr0000gn/T//ccLV2jr4.ltrans0.ltrans.o
 .rodata._exit.str1.1
                0x00000000        0x5 /var/folders/tr/p8fgs8cd4pn1v7l1rzxd4yfr0000gn/T//ccLV2jr4.ltrans0.ltrans.o
 .rodata._kill.str1.1
                0x00000000        0x5 /var/folders/tr/p8fgs8cd4pn1v7l1rzxd4yfr0000gn/T//ccLV2jr4.ltrans0.ltrans.o
 .rodata.disable_action_cache
                0x00000000        0x1 /var/folders/tr/p8fgs8cd4pn1v7l1rzxd4yfr0000gn/T//ccLV2jr4.ltrans0.ltrans.o
 .rodata.vsnprintf_impl.constprop.55.str1.1
                0x00000000        0xd /var/folders/tr/p8fgs8cd4pn1v7l1rzxd4yfr0000gn/T//ccLV2jr4.ltrans0.ltrans.o
 .text          0x00000000        0x0 /var/folders/tr/p8fgs8cd4pn1v7l1rzxd4yfr0000gn/T//ccLV2jr4.ltrans1.ltrans.o
 .data          0x00000000        0x0 /var/folders/tr/p8fgs8cd4pn1v7l1rzxd4yfr0000gn/T//ccLV2jr4.ltrans1.ltrans.o
 .bss           0x00000000        0x0 /var/folders/tr/p8fgs8cd4pn1v7l1rzxd4yfr0000gn/T//ccLV2jr4.ltrans1.ltrans.o
 .bss.__dso_handle
                0x00000000        0x4 /var/folders/tr/p8fgs8cd4pn1v7l1rzxd4yfr0000gn/T//ccLV2jr4.ltrans1.ltrans.o
 .bss.keyboard_idle_count
                0x00000000        0x2 /var/folders/tr/p8fgs8cd4pn1v7l1rzxd4yfr0000gn/T//ccLV2jr4.ltrans1.ltrans.o
 .text          0x00000000        0x0 .build/obj_crkbd_rev1_via/serial_protocol.a(serial_protocol.o)
 .data          0x00000000        0x0 .build/obj_crkbd_rev1_via/serial_protocol.a(serial_protocol.o)
 .bss           0x00000000        0x0 .build/obj_crkbd_rev1_via/serial_protocol.a(serial_protocol.o)
 .text          0x00000000        0x0 .build/obj_crkbd_rev1_via/serial_vendor.a(serial_vendor.o)
 .data          0x00000000        0x0 .build/obj_crkbd_rev1_via/serial_vendor.a(serial_vendor.o)
 .bss           0x00000000        0x0 .build/obj_crkbd_rev1_via/serial_vendor.a(serial_vendor.o)
 .text          0x00000000        0x0 .build/obj_crkbd_rev1_via/i2c_master.a(i2c_master.o)
 .data          0x00000000        0x0 .build/obj_crkbd_rev1_via/i2c_master.a(i2c_master.o)
 .bss           0x00000000        0x0 .build/obj_crkbd_rev1_via/i2c_master.a(i2c_master.o)
 .text.i2c_receive
                0x00000000       0x5c .build/obj_crkbd_rev1_via/i2c_master.a(i2c_master.o)
 .text.i2c_write_register16
                0x00000000       0x98 .build/obj_crkbd_rev1_via/i2c_master.a(i2c_master.o)
 .text.i2c_read_register
                0x00000000       0x70 .build/obj_crkbd_rev1_via/i2c_master.a(i2c_master.o)
 .text.i2c_read_register16
                0x00000000       0x70 .build/obj_crkbd_rev1_via/i2c_master.a(i2c_master.o)
 .text.i2c_ping_address
                0x00000000       0x18 .build/obj_crkbd_rev1_via/i2c_master.a(i2c_master.o)
 .data          0x00000000        0x0 .build/obj_crkbd_rev1_via/./lib/chibios/os/common/startup/ARMCMx/compilers/GCC/crt0_v6m.o
 .bss           0x00000000        0x0 .build/obj_crkbd_rev1_via/./lib/chibios/os/common/startup/ARMCMx/compilers/GCC/crt0_v6m.o
 .data          0x00000000        0x0 .build/obj_crkbd_rev1_via/./lib/chibios/os/common/startup/ARMCMx/compilers/GCC/vectors.o
 .bss           0x00000000        0x0 .build/obj_crkbd_rev1_via/./lib/chibios/os/common/startup/ARMCMx/compilers/GCC/vectors.o
 .data          0x00000000        0x0 .build/obj_crkbd_rev1_via/./lib/chibios/os/common/ports/ARMv6-M-RP2/compilers/GCC/chcoreasm.o
 .bss           0x00000000        0x0 .build/obj_crkbd_rev1_via/./lib/chibios/os/common/ports/ARMv6-M-RP2/compilers/GCC/chcoreasm.o
 .text          0x00000000        0x0 .build/obj_crkbd_rev1_via/./lib/pico-sdk/src/rp2_common/pico_divider/divider.o
 .data          0x00000000        0x0 .build/obj_crkbd_rev1_via/./lib/pico-sdk/src/rp2_common/pico_divider/divider.o
 .bss           0x00000000        0x0 .build/obj_crkbd_rev1_via/./lib/pico-sdk/src/rp2_common/pico_divider/divider.o
 .time_critical.divmod_s64s64_rem
                0x00000000        0xc .build/obj_crkbd_rev1_via/./lib/pico-sdk/src/rp2_common/pico_divider/divider.o
 .time_critical.divmod_u64u64_rem
                0x00000000        0xc .build/obj_crkbd_rev1_via/./lib/pico-sdk/src/rp2_common/pico_divider/divider.o
 .text          0x00000000        0x0 .build/obj_crkbd_rev1_via/./lib/pico-sdk/src/rp2_common/pico_int64_ops/pico_int64_ops_aeabi.o
 .data          0x00000000        0x0 .build/obj_crkbd_rev1_via/./lib/pico-sdk/src/rp2_common/pico_int64_ops/pico_int64_ops_aeabi.o
 .bss           0x00000000        0x0 .build/obj_crkbd_rev1_via/./lib/pico-sdk/src/rp2_common/pico_int64_ops/pico_int64_ops_aeabi.o
 .data          0x00000000        0x0 /opt/homebrew/Cellar/arm-none-eabi-gcc@8/8.5.0_2/lib/arm-none-eabi-gcc/8/gcc/arm-none-eabi/8.5.0/thumb/v6-m/nofp/libgcc.a(_dvmd_tls.o)
 .bss           0x00000000        0x0 /opt/homebrew/Cellar/arm-none-eabi-gcc@8/8.5.0_2/lib/arm-none-eabi-gcc/8/gcc/arm-none-eabi/8.5.0/thumb/v6-m/nofp/libgcc.a(_dvmd_tls.o)
 .data          0x00000000        0x0 /opt/homebrew/Cellar/arm-none-eabi-gcc@8/8.5.0_2/lib/arm-none-eabi-gcc/8/gcc/arm-none-eabi/8.5.0/thumb/v6-m/nofp/libgcc.a(_fixunssfsi.o)
 .bss           0x00000000        0x0 /opt/homebrew/Cellar/arm-none-eabi-gcc@8/8.5.0_2/lib/arm-none-eabi-gcc/8/gcc/arm-none-eabi/8.5.0/thumb/v6-m/nofp/libgcc.a(_fixunssfsi.o)
 .data          0x00000000        0x0 /opt/homebrew/Cellar/arm-none-eabi-gcc@8/8.5.0_2/lib/arm-none-eabi-gcc/8/gcc/arm-none-eabi/8.5.0/thumb/v6-m/nofp/libgcc.a(divsf3.o)
 .bss           0x00000000        0x0 /opt/homebrew/Cellar/arm-none-eabi-gcc@8/8.5.0_2/lib/arm-none-eabi-gcc/8/gcc/arm-none-eabi/8.5.0/thumb/v6-m/nofp/libgcc.a(divsf3.o)
 .data          0x00000000        0x0 /opt/homebrew/Cellar/arm-none-eabi-gcc@8/8.5.0_2/lib/arm-none-eabi-gcc/8/gcc/arm-none-eabi/8.5.0/thumb/v6-m/nofp/libgcc.a(mulsf3.o)
 .bss           0x00000000        0x0 /opt/homebrew/Cellar/arm-none-eabi-gcc@8/8.5.0_2/lib/arm-none-eabi-gcc/8/gcc/arm-none-eabi/8.5.0/thumb/v6-m/nofp/libgcc.a(mulsf3.o)
 .data          0x00000000        0x0 /opt/homebrew/Cellar/arm-none-eabi-gcc@8/8.5.0_2/lib/arm-none-eabi-gcc/8/gcc/arm-none-eabi/8.5.0/thumb/v6-m/nofp/libgcc.a(subsf3.o)
 .bss           0x00000000        0x0 /opt/homebrew/Cellar/arm-none-eabi-gcc@8/8.5.0_2/lib/arm-none-eabi-gcc/8/gcc/arm-none-eabi/8.5.0/thumb/v6-m/nofp/libgcc.a(subsf3.o)
 .data          0x00000000        0x0 /opt/homebrew/Cellar/arm-none-eabi-gcc@8/8.5.0_2/lib/arm-none-eabi-gcc/8/gcc/arm-none-eabi/8.5.0/thumb/v6-m/nofp/libgcc.a(fixsfsi.o)
 .bss           0x00000000        0x0 /opt/homebrew/Cellar/arm-none-eabi-gcc@8/8.5.0_2/lib/arm-none-eabi-gcc/8/gcc/arm-none-eabi/8.5.0/thumb/v6-m/nofp/libgcc.a(fixsfsi.o)
 .data          0x00000000        0x0 /opt/homebrew/Cellar/arm-none-eabi-gcc@8/8.5.0_2/lib/arm-none-eabi-gcc/8/gcc/arm-none-eabi/8.5.0/thumb/v6-m/nofp/libgcc.a(floatunsisf.o)
 .bss           0x00000000        0x0 /opt/homebrew/Cellar/arm-none-eabi-gcc@8/8.5.0_2/lib/arm-none-eabi-gcc/8/gcc/arm-none-eabi/8.5.0/thumb/v6-m/nofp/libgcc.a(floatunsisf.o)
 .data          0x00000000        0x0 /opt/homebrew/Cellar/arm-none-eabi-gcc@8/8.5.0_2/lib/arm-none-eabi-gcc/8/gcc/arm-none-eabi/8.5.0/thumb/v6-m/nofp/libgcc.a(_arm_cmpsf2.o)
 .bss           0x00000000        0x0 /opt/homebrew/Cellar/arm-none-eabi-gcc@8/8.5.0_2/lib/arm-none-eabi-gcc/8/gcc/arm-none-eabi/8.5.0/thumb/v6-m/nofp/libgcc.a(_arm_cmpsf2.o)
 .data          0x00000000        0x0 /opt/homebrew/Cellar/arm-none-eabi-gcc@8/8.5.0_2/lib/arm-none-eabi-gcc/8/gcc/arm-none-eabi/8.5.0/thumb/v6-m/nofp/libgcc.a(_clzsi2.o)
 .bss           0x00000000        0x0 /opt/homebrew/Cellar/arm-none-eabi-gcc@8/8.5.0_2/lib/arm-none-eabi-gcc/8/gcc/arm-none-eabi/8.5.0/thumb/v6-m/nofp/libgcc.a(_clzsi2.o)
 .data          0x00000000        0x0 /opt/homebrew/Cellar/arm-none-eabi-gcc@8/8.5.0_2/lib/arm-none-eabi-gcc/8/gcc/arm-none-eabi/8.5.0/thumb/v6-m/nofp/libgcc.a(eqsf2.o)
 .bss           0x00000000        0x0 /opt/homebrew/Cellar/arm-none-eabi-gcc@8/8.5.0_2/lib/arm-none-eabi-gcc/8/gcc/arm-none-eabi/8.5.0/thumb/v6-m/nofp/libgcc.a(eqsf2.o)
 .data          0x00000000        0x0 /opt/homebrew/Cellar/arm-none-eabi-gcc@8/8.5.0_2/lib/arm-none-eabi-gcc/8/gcc/arm-none-eabi/8.5.0/thumb/v6-m/nofp/libgcc.a(gesf2.o)
 .bss           0x00000000        0x0 /opt/homebrew/Cellar/arm-none-eabi-gcc@8/8.5.0_2/lib/arm-none-eabi-gcc/8/gcc/arm-none-eabi/8.5.0/thumb/v6-m/nofp/libgcc.a(gesf2.o)
 .data          0x00000000        0x0 /opt/homebrew/Cellar/arm-none-eabi-gcc@8/8.5.0_2/lib/arm-none-eabi-gcc/8/gcc/arm-none-eabi/8.5.0/thumb/v6-m/nofp/libgcc.a(lesf2.o)
 .bss           0x00000000        0x0 /opt/homebrew/Cellar/arm-none-eabi-gcc@8/8.5.0_2/lib/arm-none-eabi-gcc/8/gcc/arm-none-eabi/8.5.0/thumb/v6-m/nofp/libgcc.a(lesf2.o)
 .data          0x00000000        0x0 /opt/homebrew/Cellar/arm-none-eabi-gcc@8/8.5.0_2/lib/arm-none-eabi-gcc/8/gcc/arm-none-eabi/8.5.0/thumb/v6-m/nofp/libgcc.a(_thumb1_case_sqi.o)
 .bss           0x00000000        0x0 /opt/homebrew/Cellar/arm-none-eabi-gcc@8/8.5.0_2/lib/arm-none-eabi-gcc/8/gcc/arm-none-eabi/8.5.0/thumb/v6-m/nofp/libgcc.a(_thumb1_case_sqi.o)
 .data          0x00000000        0x0 /opt/homebrew/Cellar/arm-none-eabi-gcc@8/8.5.0_2/lib/arm-none-eabi-gcc/8/gcc/arm-none-eabi/8.5.0/thumb/v6-m/nofp/libgcc.a(_thumb1_case_uqi.o)
 .bss           0x00000000        0x0 /opt/homebrew/Cellar/arm-none-eabi-gcc@8/8.5.0_2/lib/arm-none-eabi-gcc/8/gcc/arm-none-eabi/8.5.0/thumb/v6-m/nofp/libgcc.a(_thumb1_case_uqi.o)
 .data          0x00000000        0x0 /opt/homebrew/Cellar/arm-none-eabi-gcc@8/8.5.0_2/lib/arm-none-eabi-gcc/8/gcc/arm-none-eabi/8.5.0/thumb/v6-m/nofp/libgcc.a(_thumb1_case_shi.o)
 .bss           0x00000000        0x0 /opt/homebrew/Cellar/arm-none-eabi-gcc@8/8.5.0_2/lib/arm-none-eabi-gcc/8/gcc/arm-none-eabi/8.5.0/thumb/v6-m/nofp/libgcc.a(_thumb1_case_shi.o)
 .data          0x00000000        0x0 /opt/homebrew/Cellar/arm-none-eabi-gcc@8/8.5.0_2/lib/arm-none-eabi-gcc/8/gcc/arm-none-eabi/8.5.0/thumb/v6-m/nofp/libgcc.a(_thumb1_case_uhi.o)
 .bss           0x00000000        0x0 /opt/homebrew/Cellar/arm-none-eabi-gcc@8/8.5.0_2/lib/arm-none-eabi-gcc/8/gcc/arm-none-eabi/8.5.0/thumb/v6-m/nofp/libgcc.a(_thumb1_case_uhi.o)
 .data          0x00000000        0x0 /opt/homebrew/Cellar/arm-none-eabi-gcc@8/8.5.0_2/lib/arm-none-eabi-gcc/8/gcc/arm-none-eabi/8.5.0/thumb/v6-m/nofp/libgcc.a(_ctzsi2.o)
 .bss           0x00000000        0x0 /opt/homebrew/Cellar/arm-none-eabi-gcc@8/8.5.0_2/lib/arm-none-eabi-gcc/8/gcc/arm-none-eabi/8.5.0/thumb/v6-m/nofp/libgcc.a(_ctzsi2.o)
 .text          0x00000000        0x0 /opt/homebrew/Cellar/arm-none-eabi-gcc@8/8.5.0_2/lib/arm-none-eabi-gcc/8/gcc/arm-none-eabi/8.5.0/../../../../../../arm-none-eabi/lib/thumb/v6-m/nofp/libg_nano.a(lib_a-ctype_.o)
 .data          0x00000000        0x0 /opt/homebrew/Cellar/arm-none-eabi-gcc@8/8.5.0_2/lib/arm-none-eabi-gcc/8/gcc/arm-none-eabi/8.5.0/../../../../../../arm-none-eabi/lib/thumb/v6-m/nofp/libg_nano.a(lib_a-ctype_.o)
 .bss           0x00000000        0x0 /opt/homebrew/Cellar/arm-none-eabi-gcc@8/8.5.0_2/lib/arm-none-eabi-gcc/8/gcc/arm-none-eabi/8.5.0/../../../../../../arm-none-eabi/lib/thumb/v6-m/nofp/libg_nano.a(lib_a-ctype_.o)
 .text          0x00000000        0xc /opt/homebrew/Cellar/arm-none-eabi-gcc@8/8.5.0_2/lib/arm-none-eabi-gcc/8/gcc/arm-none-eabi/8.5.0/../../../../../../arm-none-eabi/lib/thumb/v6-m/nofp/libg_nano.a(lib_a-errno.o)
 .data          0x00000000        0x0 /opt/homebrew/Cellar/arm-none-eabi-gcc@8/8.5.0_2/lib/arm-none-eabi-gcc/8/gcc/arm-none-eabi/8.5.0/../../../../../../arm-none-eabi/lib/thumb/v6-m/nofp/libg_nano.a(lib_a-errno.o)
 .bss           0x00000000        0x0 /opt/homebrew/Cellar/arm-none-eabi-gcc@8/8.5.0_2/lib/arm-none-eabi-gcc/8/gcc/arm-none-eabi/8.5.0/../../../../../../arm-none-eabi/lib/thumb/v6-m/nofp/libg_nano.a(lib_a-errno.o)
 .debug_frame   0x00000000       0x20 /opt/homebrew/Cellar/arm-none-eabi-gcc@8/8.5.0_2/lib/arm-none-eabi-gcc/8/gcc/arm-none-eabi/8.5.0/../../../../../../arm-none-eabi/lib/thumb/v6-m/nofp/libg_nano.a(lib_a-errno.o)
 .ARM.attributes
                0x00000000       0x2c /opt/homebrew/Cellar/arm-none-eabi-gcc@8/8.5.0_2/lib/arm-none-eabi-gcc/8/gcc/arm-none-eabi/8.5.0/../../../../../../arm-none-eabi/lib/thumb/v6-m/nofp/libg_nano.a(lib_a-errno.o)
 .text          0x00000000        0x0 /opt/homebrew/Cellar/arm-none-eabi-gcc@8/8.5.0_2/lib/arm-none-eabi-gcc/8/gcc/arm-none-eabi/8.5.0/../../../../../../arm-none-eabi/lib/thumb/v6-m/nofp/libg_nano.a(lib_a-impure.o)
 .data          0x00000000       0x64 /opt/homebrew/Cellar/arm-none-eabi-gcc@8/8.5.0_2/lib/arm-none-eabi-gcc/8/gcc/arm-none-eabi/8.5.0/../../../../../../arm-none-eabi/lib/thumb/v6-m/nofp/libg_nano.a(lib_a-impure.o)
 .bss           0x00000000        0x0 /opt/homebrew/Cellar/arm-none-eabi-gcc@8/8.5.0_2/lib/arm-none-eabi-gcc/8/gcc/arm-none-eabi/8.5.0/../../../../../../arm-none-eabi/lib/thumb/v6-m/nofp/libg_nano.a(lib_a-impure.o)
 .rodata        0x00000000        0x4 /opt/homebrew/Cellar/arm-none-eabi-gcc@8/8.5.0_2/lib/arm-none-eabi-gcc/8/gcc/arm-none-eabi/8.5.0/../../../../../../arm-none-eabi/lib/thumb/v6-m/nofp/libg_nano.a(lib_a-impure.o)
 .ARM.attributes
                0x00000000       0x2c /opt/homebrew/Cellar/arm-none-eabi-gcc@8/8.5.0_2/lib/arm-none-eabi-gcc/8/gcc/arm-none-eabi/8.5.0/../../../../../../arm-none-eabi/lib/thumb/v6-m/nofp/libg_nano.a(lib_a-impure.o)
 .data          0x00000000        0x0 /opt/homebrew/Cellar/arm-none-eabi-gcc@8/8.5.0_2/lib/arm-none-eabi-gcc/8/gcc/arm-none-eabi/8.5.0/../../../../../../arm-none-eabi/lib/thumb/v6-m/nofp/libg_nano.a(lib_a-memcpy-stub.o)
 .bss           0x00000000        0x0 /opt/homebrew/Cellar/arm-none-eabi-gcc@8/8.5.0_2/lib/arm-none-eabi-gcc/8/gcc/arm-none-eabi/8.5.0/../../../../../../arm-none-eabi/lib/thumb/v6-m/nofp/libg_nano.a(lib_a-memcpy-stub.o)
 .text          0x00000000       0xe8 /opt/homebrew/Cellar/arm-none-eabi-gcc@8/8.5.0_2/lib/arm-none-eabi-gcc/8/gcc/arm-none-eabi/8.5.0/../../../../../../arm-none-eabi/lib/thumb/v6-m/nofp/libg_nano.a(lib_a-rand.o)
 .data          0x00000000        0x0 /opt/homebrew/Cellar/arm-none-eabi-gcc@8/8.5.0_2/lib/arm-none-eabi-gcc/8/gcc/arm-none-eabi/8.5.0/../../../../../../arm-none-eabi/lib/thumb/v6-m/nofp/libg_nano.a(lib_a-rand.o)
 .bss           0x00000000        0x0 /opt/homebrew/Cellar/arm-none-eabi-gcc@8/8.5.0_2/lib/arm-none-eabi-gcc/8/gcc/arm-none-eabi/8.5.0/../../../../../../arm-none-eabi/lib/thumb/v6-m/nofp/libg_nano.a(lib_a-rand.o)
 .rodata.str1.4
                0x00000000       0x4a /opt/homebrew/Cellar/arm-none-eabi-gcc@8/8.5.0_2/lib/arm-none-eabi-gcc/8/gcc/arm-none-eabi/8.5.0/../../../../../../arm-none-eabi/lib/thumb/v6-m/nofp/libg_nano.a(lib_a-rand.o)
 .debug_frame   0x00000000       0x48 /opt/homebrew/Cellar/arm-none-eabi-gcc@8/8.5.0_2/lib/arm-none-eabi-gcc/8/gcc/arm-none-eabi/8.5.0/../../../../../../arm-none-eabi/lib/thumb/v6-m/nofp/libg_nano.a(lib_a-rand.o)
 .ARM.attributes
                0x00000000       0x2c /opt/homebrew/Cellar/arm-none-eabi-gcc@8/8.5.0_2/lib/arm-none-eabi-gcc/8/gcc/arm-none-eabi/8.5.0/../../../../../../arm-none-eabi/lib/thumb/v6-m/nofp/libg_nano.a(lib_a-rand.o)
 .text          0x00000000       0x4c /opt/homebrew/Cellar/arm-none-eabi-gcc@8/8.5.0_2/lib/arm-none-eabi-gcc/8/gcc/arm-none-eabi/8.5.0/../../../../../../arm-none-eabi/lib/thumb/v6-m/nofp/libg_nano.a(lib_a-assert.o)
 .data          0x00000000        0x0 /opt/homebrew/Cellar/arm-none-eabi-gcc@8/8.5.0_2/lib/arm-none-eabi-gcc/8/gcc/arm-none-eabi/8.5.0/../../../../../../arm-none-eabi/lib/thumb/v6-m/nofp/libg_nano.a(lib_a-assert.o)
 .bss           0x00000000        0x0 /opt/homebrew/Cellar/arm-none-eabi-gcc@8/8.5.0_2/lib/arm-none-eabi-gcc/8/gcc/arm-none-eabi/8.5.0/../../../../../../arm-none-eabi/lib/thumb/v6-m/nofp/libg_nano.a(lib_a-assert.o)
 .rodata.str1.4
                0x00000000       0x43 /opt/homebrew/Cellar/arm-none-eabi-gcc@8/8.5.0_2/lib/arm-none-eabi-gcc/8/gcc/arm-none-eabi/8.5.0/../../../../../../arm-none-eabi/lib/thumb/v6-m/nofp/libg_nano.a(lib_a-assert.o)
 .debug_frame   0x00000000       0x44 /opt/homebrew/Cellar/arm-none-eabi-gcc@8/8.5.0_2/lib/arm-none-eabi-gcc/8/gcc/arm-none-eabi/8.5.0/../../../../../../arm-none-eabi/lib/thumb/v6-m/nofp/libg_nano.a(lib_a-assert.o)
 .ARM.attributes
                0x00000000       0x2c /opt/homebrew/Cellar/arm-none-eabi-gcc@8/8.5.0_2/lib/arm-none-eabi-gcc/8/gcc/arm-none-eabi/8.5.0/../../../../../../arm-none-eabi/lib/thumb/v6-m/nofp/libg_nano.a(lib_a-assert.o)
 .text          0x00000000       0x3c /opt/homebrew/Cellar/arm-none-eabi-gcc@8/8.5.0_2/lib/arm-none-eabi-gcc/8/gcc/arm-none-eabi/8.5.0/../../../../../../arm-none-eabi/lib/thumb/v6-m/nofp/libg_nano.a(lib_a-fprintf.o)
 .data          0x00000000        0x0 /opt/homebrew/Cellar/arm-none-eabi-gcc@8/8.5.0_2/lib/arm-none-eabi-gcc/8/gcc/arm-none-eabi/8.5.0/../../../../../../arm-none-eabi/lib/thumb/v6-m/nofp/libg_nano.a(lib_a-fprintf.o)
 .bss           0x00000000        0x0 /opt/homebrew/Cellar/arm-none-eabi-gcc@8/8.5.0_2/lib/arm-none-eabi-gcc/8/gcc/arm-none-eabi/8.5.0/../../../../../../arm-none-eabi/lib/thumb/v6-m/nofp/libg_nano.a(lib_a-fprintf.o)
 .debug_frame   0x00000000       0x48 /opt/homebrew/Cellar/arm-none-eabi-gcc@8/8.5.0_2/lib/arm-none-eabi-gcc/8/gcc/arm-none-eabi/8.5.0/../../../../../../arm-none-eabi/lib/thumb/v6-m/nofp/libg_nano.a(lib_a-fprintf.o)
 .ARM.attributes
                0x00000000       0x2c /opt/homebrew/Cellar/arm-none-eabi-gcc@8/8.5.0_2/lib/arm-none-eabi-gcc/8/gcc/arm-none-eabi/8.5.0/../../../../../../arm-none-eabi/lib/thumb/v6-m/nofp/libg_nano.a(lib_a-fprintf.o)
 .text          0x00000000       0x28 /opt/homebrew/Cellar/arm-none-eabi-gcc@8/8.5.0_2/lib/arm-none-eabi-gcc/8/gcc/arm-none-eabi/8.5.0/../../../../../../arm-none-eabi/lib/thumb/v6-m/nofp/libg_nano.a(lib_a-malloc.o)
 .data          0x00000000        0x0 /opt/homebrew/Cellar/arm-none-eabi-gcc@8/8.5.0_2/lib/arm-none-eabi-gcc/8/gcc/arm-none-eabi/8.5.0/../../../../../../arm-none-eabi/lib/thumb/v6-m/nofp/libg_nano.a(lib_a-malloc.o)
 .bss           0x00000000        0x0 /opt/homebrew/Cellar/arm-none-eabi-gcc@8/8.5.0_2/lib/arm-none-eabi-gcc/8/gcc/arm-none-eabi/8.5.0/../../../../../../arm-none-eabi/lib/thumb/v6-m/nofp/libg_nano.a(lib_a-malloc.o)
 .debug_frame   0x00000000       0x40 /opt/homebrew/Cellar/arm-none-eabi-gcc@8/8.5.0_2/lib/arm-none-eabi-gcc/8/gcc/arm-none-eabi/8.5.0/../../../../../../arm-none-eabi/lib/thumb/v6-m/nofp/libg_nano.a(lib_a-malloc.o)
 .ARM.attributes
                0x00000000       0x2c /opt/homebrew/Cellar/arm-none-eabi-gcc@8/8.5.0_2/lib/arm-none-eabi-gcc/8/gcc/arm-none-eabi/8.5.0/../../../../../../arm-none-eabi/lib/thumb/v6-m/nofp/libg_nano.a(lib_a-malloc.o)
 .text          0x00000000       0xac /opt/homebrew/Cellar/arm-none-eabi-gcc@8/8.5.0_2/lib/arm-none-eabi-gcc/8/gcc/arm-none-eabi/8.5.0/../../../../../../arm-none-eabi/lib/thumb/v6-m/nofp/libg_nano.a(lib_a-nano-freer.o)
 .data          0x00000000        0x0 /opt/homebrew/Cellar/arm-none-eabi-gcc@8/8.5.0_2/lib/arm-none-eabi-gcc/8/gcc/arm-none-eabi/8.5.0/../../../../../../arm-none-eabi/lib/thumb/v6-m/nofp/libg_nano.a(lib_a-nano-freer.o)
 .bss           0x00000000        0x0 /opt/homebrew/Cellar/arm-none-eabi-gcc@8/8.5.0_2/lib/arm-none-eabi-gcc/8/gcc/arm-none-eabi/8.5.0/../../../../../../arm-none-eabi/lib/thumb/v6-m/nofp/libg_nano.a(lib_a-nano-freer.o)
 .debug_frame   0x00000000       0x2c /opt/homebrew/Cellar/arm-none-eabi-gcc@8/8.5.0_2/lib/arm-none-eabi-gcc/8/gcc/arm-none-eabi/8.5.0/../../../../../../arm-none-eabi/lib/thumb/v6-m/nofp/libg_nano.a(lib_a-nano-freer.o)
 .ARM.attributes
                0x00000000       0x2c /opt/homebrew/Cellar/arm-none-eabi-gcc@8/8.5.0_2/lib/arm-none-eabi-gcc/8/gcc/arm-none-eabi/8.5.0/../../../../../../arm-none-eabi/lib/thumb/v6-m/nofp/libg_nano.a(lib_a-nano-freer.o)
 .text          0x00000000       0xcc /opt/homebrew/Cellar/arm-none-eabi-gcc@8/8.5.0_2/lib/arm-none-eabi-gcc/8/gcc/arm-none-eabi/8.5.0/../../../../../../arm-none-eabi/lib/thumb/v6-m/nofp/libg_nano.a(lib_a-nano-mallocr.o)
 .data          0x00000000        0x0 /opt/homebrew/Cellar/arm-none-eabi-gcc@8/8.5.0_2/lib/arm-none-eabi-gcc/8/gcc/arm-none-eabi/8.5.0/../../../../../../arm-none-eabi/lib/thumb/v6-m/nofp/libg_nano.a(lib_a-nano-mallocr.o)
 .bss           0x00000000        0x8 /opt/homebrew/Cellar/arm-none-eabi-gcc@8/8.5.0_2/lib/arm-none-eabi-gcc/8/gcc/arm-none-eabi/8.5.0/../../../../../../arm-none-eabi/lib/thumb/v6-m/nofp/libg_nano.a(lib_a-nano-mallocr.o)
 .debug_frame   0x00000000       0x30 /opt/homebrew/Cellar/arm-none-eabi-gcc@8/8.5.0_2/lib/arm-none-eabi-gcc/8/gcc/arm-none-eabi/8.5.0/../../../../../../arm-none-eabi/lib/thumb/v6-m/nofp/libg_nano.a(lib_a-nano-mallocr.o)
 .ARM.attributes
                0x00000000       0x2c /opt/homebrew/Cellar/arm-none-eabi-gcc@8/8.5.0_2/lib/arm-none-eabi-gcc/8/gcc/arm-none-eabi/8.5.0/../../../../../../arm-none-eabi/lib/thumb/v6-m/nofp/libg_nano.a(lib_a-nano-mallocr.o)
 .text          0x00000000      0x3cc /opt/homebrew/Cellar/arm-none-eabi-gcc@8/8.5.0_2/lib/arm-none-eabi-gcc/8/gcc/arm-none-eabi/8.5.0/../../../../../../arm-none-eabi/lib/thumb/v6-m/nofp/libg_nano.a(lib_a-nano-vfprintf.o)
 .data          0x00000000        0x0 /opt/homebrew/Cellar/arm-none-eabi-gcc@8/8.5.0_2/lib/arm-none-eabi-gcc/8/gcc/arm-none-eabi/8.5.0/../../../../../../arm-none-eabi/lib/thumb/v6-m/nofp/libg_nano.a(lib_a-nano-vfprintf.o)
 .bss           0x00000000        0x0 /opt/homebrew/Cellar/arm-none-eabi-gcc@8/8.5.0_2/lib/arm-none-eabi-gcc/8/gcc/arm-none-eabi/8.5.0/../../../../../../arm-none-eabi/lib/thumb/v6-m/nofp/libg_nano.a(lib_a-nano-vfprintf.o)
 .rodata.str1.4
                0x00000000       0x13 /opt/homebrew/Cellar/arm-none-eabi-gcc@8/8.5.0_2/lib/arm-none-eabi-gcc/8/gcc/arm-none-eabi/8.5.0/../../../../../../arm-none-eabi/lib/thumb/v6-m/nofp/libg_nano.a(lib_a-nano-vfprintf.o)
 .debug_frame   0x00000000       0xa4 /opt/homebrew/Cellar/arm-none-eabi-gcc@8/8.5.0_2/lib/arm-none-eabi-gcc/8/gcc/arm-none-eabi/8.5.0/../../../../../../arm-none-eabi/lib/thumb/v6-m/nofp/libg_nano.a(lib_a-nano-vfprintf.o)
 .ARM.attributes
                0x00000000       0x2c /opt/homebrew/Cellar/arm-none-eabi-gcc@8/8.5.0_2/lib/arm-none-eabi-gcc/8/gcc/arm-none-eabi/8.5.0/../../../../../../arm-none-eabi/lib/thumb/v6-m/nofp/libg_nano.a(lib_a-nano-vfprintf.o)
 .text          0x00000000      0x3d8 /opt/homebrew/Cellar/arm-none-eabi-gcc@8/8.5.0_2/lib/arm-none-eabi-gcc/8/gcc/arm-none-eabi/8.5.0/../../../../../../arm-none-eabi/lib/thumb/v6-m/nofp/libg_nano.a(lib_a-nano-vfprintf_i.o)
 .data          0x00000000        0x0 /opt/homebrew/Cellar/arm-none-eabi-gcc@8/8.5.0_2/lib/arm-none-eabi-gcc/8/gcc/arm-none-eabi/8.5.0/../../../../../../arm-none-eabi/lib/thumb/v6-m/nofp/libg_nano.a(lib_a-nano-vfprintf_i.o)
 .bss           0x00000000        0x0 /opt/homebrew/Cellar/arm-none-eabi-gcc@8/8.5.0_2/lib/arm-none-eabi-gcc/8/gcc/arm-none-eabi/8.5.0/../../../../../../arm-none-eabi/lib/thumb/v6-m/nofp/libg_nano.a(lib_a-nano-vfprintf_i.o)
 .rodata.str1.4
                0x00000000       0x25 /opt/homebrew/Cellar/arm-none-eabi-gcc@8/8.5.0_2/lib/arm-none-eabi-gcc/8/gcc/arm-none-eabi/8.5.0/../../../../../../arm-none-eabi/lib/thumb/v6-m/nofp/libg_nano.a(lib_a-nano-vfprintf_i.o)
 .debug_frame   0x00000000       0x64 /opt/homebrew/Cellar/arm-none-eabi-gcc@8/8.5.0_2/lib/arm-none-eabi-gcc/8/gcc/arm-none-eabi/8.5.0/../../../../../../arm-none-eabi/lib/thumb/v6-m/nofp/libg_nano.a(lib_a-nano-vfprintf_i.o)
 .ARM.attributes
                0x00000000       0x2c /opt/homebrew/Cellar/arm-none-eabi-gcc@8/8.5.0_2/lib/arm-none-eabi-gcc/8/gcc/arm-none-eabi/8.5.0/../../../../../../arm-none-eabi/lib/thumb/v6-m/nofp/libg_nano.a(lib_a-nano-vfprintf_i.o)
 .text          0x00000000       0xec /opt/homebrew/Cellar/arm-none-eabi-gcc@8/8.5.0_2/lib/arm-none-eabi-gcc/8/gcc/arm-none-eabi/8.5.0/../../../../../../arm-none-eabi/lib/thumb/v6-m/nofp/libg_nano.a(lib_a-wbuf.o)
 .data          0x00000000        0x0 /opt/homebrew/Cellar/arm-none-eabi-gcc@8/8.5.0_2/lib/arm-none-eabi-gcc/8/gcc/arm-none-eabi/8.5.0/../../../../../../arm-none-eabi/lib/thumb/v6-m/nofp/libg_nano.a(lib_a-wbuf.o)
 .bss           0x00000000        0x0 /opt/homebrew/Cellar/arm-none-eabi-gcc@8/8.5.0_2/lib/arm-none-eabi-gcc/8/gcc/arm-none-eabi/8.5.0/../../../../../../arm-none-eabi/lib/thumb/v6-m/nofp/libg_nano.a(lib_a-wbuf.o)
 .debug_frame   0x00000000       0x48 /opt/homebrew/Cellar/arm-none-eabi-gcc@8/8.5.0_2/lib/arm-none-eabi-gcc/8/gcc/arm-none-eabi/8.5.0/../../../../../../arm-none-eabi/lib/thumb/v6-m/nofp/libg_nano.a(lib_a-wbuf.o)
 .ARM.attributes
                0x00000000       0x2c /opt/homebrew/Cellar/arm-none-eabi-gcc@8/8.5.0_2/lib/arm-none-eabi-gcc/8/gcc/arm-none-eabi/8.5.0/../../../../../../arm-none-eabi/lib/thumb/v6-m/nofp/libg_nano.a(lib_a-wbuf.o)
 .text          0x00000000      0x10c /opt/homebrew/Cellar/arm-none-eabi-gcc@8/8.5.0_2/lib/arm-none-eabi-gcc/8/gcc/arm-none-eabi/8.5.0/../../../../../../arm-none-eabi/lib/thumb/v6-m/nofp/libg_nano.a(lib_a-wsetup.o)
 .data          0x00000000        0x0 /opt/homebrew/Cellar/arm-none-eabi-gcc@8/8.5.0_2/lib/arm-none-eabi-gcc/8/gcc/arm-none-eabi/8.5.0/../../../../../../arm-none-eabi/lib/thumb/v6-m/nofp/libg_nano.a(lib_a-wsetup.o)
 .bss           0x00000000        0x0 /opt/homebrew/Cellar/arm-none-eabi-gcc@8/8.5.0_2/lib/arm-none-eabi-gcc/8/gcc/arm-none-eabi/8.5.0/../../../../../../arm-none-eabi/lib/thumb/v6-m/nofp/libg_nano.a(lib_a-wsetup.o)
 .debug_frame   0x00000000       0x2c /opt/homebrew/Cellar/arm-none-eabi-gcc@8/8.5.0_2/lib/arm-none-eabi-gcc/8/gcc/arm-none-eabi/8.5.0/../../../../../../arm-none-eabi/lib/thumb/v6-m/nofp/libg_nano.a(lib_a-wsetup.o)
 .ARM.attributes
                0x00000000       0x2c /opt/homebrew/Cellar/arm-none-eabi-gcc@8/8.5.0_2/lib/arm-none-eabi-gcc/8/gcc/arm-none-eabi/8.5.0/../../../../../../arm-none-eabi/lib/thumb/v6-m/nofp/libg_nano.a(lib_a-wsetup.o)
 .text          0x00000000       0x10 /opt/homebrew/Cellar/arm-none-eabi-gcc@8/8.5.0_2/lib/arm-none-eabi-gcc/8/gcc/arm-none-eabi/8.5.0/../../../../../../arm-none-eabi/lib/thumb/v6-m/nofp/libg_nano.a(lib_a-abort.o)
 .data          0x00000000        0x0 /opt/homebrew/Cellar/arm-none-eabi-gcc@8/8.5.0_2/lib/arm-none-eabi-gcc/8/gcc/arm-none-eabi/8.5.0/../../../../../../arm-none-eabi/lib/thumb/v6-m/nofp/libg_nano.a(lib_a-abort.o)
 .bss           0x00000000        0x0 /opt/homebrew/Cellar/arm-none-eabi-gcc@8/8.5.0_2/lib/arm-none-eabi-gcc/8/gcc/arm-none-eabi/8.5.0/../../../../../../arm-none-eabi/lib/thumb/v6-m/nofp/libg_nano.a(lib_a-abort.o)
 .debug_frame   0x00000000       0x28 /opt/homebrew/Cellar/arm-none-eabi-gcc@8/8.5.0_2/lib/arm-none-eabi-gcc/8/gcc/arm-none-eabi/8.5.0/../../../../../../arm-none-eabi/lib/thumb/v6-m/nofp/libg_nano.a(lib_a-abort.o)
 .ARM.attributes
                0x00000000       0x2c /opt/homebrew/Cellar/arm-none-eabi-gcc@8/8.5.0_2/lib/arm-none-eabi-gcc/8/gcc/arm-none-eabi/8.5.0/../../../../../../arm-none-eabi/lib/thumb/v6-m/nofp/libg_nano.a(lib_a-abort.o)
 .text          0x00000000      0x1e4 /opt/homebrew/Cellar/arm-none-eabi-gcc@8/8.5.0_2/lib/arm-none-eabi-gcc/8/gcc/arm-none-eabi/8.5.0/../../../../../../arm-none-eabi/lib/thumb/v6-m/nofp/libg_nano.a(lib_a-fflush.o)
 .data          0x00000000        0x0 /opt/homebrew/Cellar/arm-none-eabi-gcc@8/8.5.0_2/lib/arm-none-eabi-gcc/8/gcc/arm-none-eabi/8.5.0/../../../../../../arm-none-eabi/lib/thumb/v6-m/nofp/libg_nano.a(lib_a-fflush.o)
 .bss           0x00000000        0x0 /opt/homebrew/Cellar/arm-none-eabi-gcc@8/8.5.0_2/lib/arm-none-eabi-gcc/8/gcc/arm-none-eabi/8.5.0/../../../../../../arm-none-eabi/lib/thumb/v6-m/nofp/libg_nano.a(lib_a-fflush.o)
 .debug_frame   0x00000000       0x68 /opt/homebrew/Cellar/arm-none-eabi-gcc@8/8.5.0_2/lib/arm-none-eabi-gcc/8/gcc/arm-none-eabi/8.5.0/../../../../../../arm-none-eabi/lib/thumb/v6-m/nofp/libg_nano.a(lib_a-fflush.o)
 .ARM.attributes
                0x00000000       0x2c /opt/homebrew/Cellar/arm-none-eabi-gcc@8/8.5.0_2/lib/arm-none-eabi-gcc/8/gcc/arm-none-eabi/8.5.0/../../../../../../arm-none-eabi/lib/thumb/v6-m/nofp/libg_nano.a(lib_a-fflush.o)
 .text          0x00000000      0x2dc /opt/homebrew/Cellar/arm-none-eabi-gcc@8/8.5.0_2/lib/arm-none-eabi-gcc/8/gcc/arm-none-eabi/8.5.0/../../../../../../arm-none-eabi/lib/thumb/v6-m/nofp/libg_nano.a(lib_a-findfp.o)
 .data          0x00000000        0x0 /opt/homebrew/Cellar/arm-none-eabi-gcc@8/8.5.0_2/lib/arm-none-eabi-gcc/8/gcc/arm-none-eabi/8.5.0/../../../../../../arm-none-eabi/lib/thumb/v6-m/nofp/libg_nano.a(lib_a-findfp.o)
 .bss           0x00000000        0x0 /opt/homebrew/Cellar/arm-none-eabi-gcc@8/8.5.0_2/lib/arm-none-eabi-gcc/8/gcc/arm-none-eabi/8.5.0/../../../../../../arm-none-eabi/lib/thumb/v6-m/nofp/libg_nano.a(lib_a-findfp.o)
 .rodata        0x00000000       0x60 /opt/homebrew/Cellar/arm-none-eabi-gcc@8/8.5.0_2/lib/arm-none-eabi-gcc/8/gcc/arm-none-eabi/8.5.0/../../../../../../arm-none-eabi/lib/thumb/v6-m/nofp/libg_nano.a(lib_a-findfp.o)
 .debug_frame   0x00000000      0x168 /opt/homebrew/Cellar/arm-none-eabi-gcc@8/8.5.0_2/lib/arm-none-eabi-gcc/8/gcc/arm-none-eabi/8.5.0/../../../../../../arm-none-eabi/lib/thumb/v6-m/nofp/libg_nano.a(lib_a-findfp.o)
 .ARM.attributes
                0x00000000       0x2c /opt/homebrew/Cellar/arm-none-eabi-gcc@8/8.5.0_2/lib/arm-none-eabi-gcc/8/gcc/arm-none-eabi/8.5.0/../../../../../../arm-none-eabi/lib/thumb/v6-m/nofp/libg_nano.a(lib_a-findfp.o)
 .text          0x00000000      0x320 /opt/homebrew/Cellar/arm-none-eabi-gcc@8/8.5.0_2/lib/arm-none-eabi-gcc/8/gcc/arm-none-eabi/8.5.0/../../../../../../arm-none-eabi/lib/thumb/v6-m/nofp/libg_nano.a(lib_a-fvwrite.o)
 .data          0x00000000        0x0 /opt/homebrew/Cellar/arm-none-eabi-gcc@8/8.5.0_2/lib/arm-none-eabi-gcc/8/gcc/arm-none-eabi/8.5.0/../../../../../../arm-none-eabi/lib/thumb/v6-m/nofp/libg_nano.a(lib_a-fvwrite.o)
 .bss           0x00000000        0x0 /opt/homebrew/Cellar/arm-none-eabi-gcc@8/8.5.0_2/lib/arm-none-eabi-gcc/8/gcc/arm-none-eabi/8.5.0/../../../../../../arm-none-eabi/lib/thumb/v6-m/nofp/libg_nano.a(lib_a-fvwrite.o)
 .debug_frame   0x00000000       0x3c /opt/homebrew/Cellar/arm-none-eabi-gcc@8/8.5.0_2/lib/arm-none-eabi-gcc/8/gcc/arm-none-eabi/8.5.0/../../../../../../arm-none-eabi/lib/thumb/v6-m/nofp/libg_nano.a(lib_a-fvwrite.o)
 .ARM.attributes
                0x00000000       0x2c /opt/homebrew/Cellar/arm-none-eabi-gcc@8/8.5.0_2/lib/arm-none-eabi-gcc/8/gcc/arm-none-eabi/8.5.0/../../../../../../arm-none-eabi/lib/thumb/v6-m/nofp/libg_nano.a(lib_a-fvwrite.o)
 .text          0x00000000       0x90 /opt/homebrew/Cellar/arm-none-eabi-gcc@8/8.5.0_2/lib/arm-none-eabi-gcc/8/gcc/arm-none-eabi/8.5.0/../../../../../../arm-none-eabi/lib/thumb/v6-m/nofp/libg_nano.a(lib_a-fwalk.o)
 .data          0x00000000        0x0 /opt/homebrew/Cellar/arm-none-eabi-gcc@8/8.5.0_2/lib/arm-none-eabi-gcc/8/gcc/arm-none-eabi/8.5.0/../../../../../../arm-none-eabi/lib/thumb/v6-m/nofp/libg_nano.a(lib_a-fwalk.o)
 .bss           0x00000000        0x0 /opt/homebrew/Cellar/arm-none-eabi-gcc@8/8.5.0_2/lib/arm-none-eabi-gcc/8/gcc/arm-none-eabi/8.5.0/../../../../../../arm-none-eabi/lib/thumb/v6-m/nofp/libg_nano.a(lib_a-fwalk.o)
 .debug_frame   0x00000000       0x5c /opt/homebrew/Cellar/arm-none-eabi-gcc@8/8.5.0_2/lib/arm-none-eabi-gcc/8/gcc/arm-none-eabi/8.5.0/../../../../../../arm-none-eabi/lib/thumb/v6-m/nofp/libg_nano.a(lib_a-fwalk.o)
 .ARM.attributes
                0x00000000       0x2c /opt/homebrew/Cellar/arm-none-eabi-gcc@8/8.5.0_2/lib/arm-none-eabi-gcc/8/gcc/arm-none-eabi/8.5.0/../../../../../../arm-none-eabi/lib/thumb/v6-m/nofp/libg_nano.a(lib_a-fwalk.o)
 .text          0x00000000       0x28 /opt/homebrew/Cellar/arm-none-eabi-gcc@8/8.5.0_2/lib/arm-none-eabi-gcc/8/gcc/arm-none-eabi/8.5.0/../../../../../../arm-none-eabi/lib/thumb/v6-m/nofp/libg_nano.a(lib_a-lock.o)
 .data          0x00000000        0x0 /opt/homebrew/Cellar/arm-none-eabi-gcc@8/8.5.0_2/lib/arm-none-eabi-gcc/8/gcc/arm-none-eabi/8.5.0/../../../../../../arm-none-eabi/lib/thumb/v6-m/nofp/libg_nano.a(lib_a-lock.o)
 .bss           0x00000000        0x0 /opt/homebrew/Cellar/arm-none-eabi-gcc@8/8.5.0_2/lib/arm-none-eabi-gcc/8/gcc/arm-none-eabi/8.5.0/../../../../../../arm-none-eabi/lib/thumb/v6-m/nofp/libg_nano.a(lib_a-lock.o)
 .debug_frame   0x00000000       0xb0 /opt/homebrew/Cellar/arm-none-eabi-gcc@8/8.5.0_2/lib/arm-none-eabi-gcc/8/gcc/arm-none-eabi/8.5.0/../../../../../../arm-none-eabi/lib/thumb/v6-m/nofp/libg_nano.a(lib_a-lock.o)
 .ARM.attributes
                0x00000000       0x2c /opt/homebrew/Cellar/arm-none-eabi-gcc@8/8.5.0_2/lib/arm-none-eabi-gcc/8/gcc/arm-none-eabi/8.5.0/../../../../../../arm-none-eabi/lib/thumb/v6-m/nofp/libg_nano.a(lib_a-lock.o)
 COMMON         0x00000000       0x21 /opt/homebrew/Cellar/arm-none-eabi-gcc@8/8.5.0_2/lib/arm-none-eabi-gcc/8/gcc/arm-none-eabi/8.5.0/../../../../../../arm-none-eabi/lib/thumb/v6-m/nofp/libg_nano.a(lib_a-lock.o)
 .text          0x00000000       0xe0 /opt/homebrew/Cellar/arm-none-eabi-gcc@8/8.5.0_2/lib/arm-none-eabi-gcc/8/gcc/arm-none-eabi/8.5.0/../../../../../../arm-none-eabi/lib/thumb/v6-m/nofp/libg_nano.a(lib_a-makebuf.o)
 .data          0x00000000        0x0 /opt/homebrew/Cellar/arm-none-eabi-gcc@8/8.5.0_2/lib/arm-none-eabi-gcc/8/gcc/arm-none-eabi/8.5.0/../../../../../../arm-none-eabi/lib/thumb/v6-m/nofp/libg_nano.a(lib_a-makebuf.o)
 .bss           0x00000000        0x0 /opt/homebrew/Cellar/arm-none-eabi-gcc@8/8.5.0_2/lib/arm-none-eabi-gcc/8/gcc/arm-none-eabi/8.5.0/../../../../../../arm-none-eabi/lib/thumb/v6-m/nofp/libg_nano.a(lib_a-makebuf.o)
 .debug_frame   0x00000000       0x50 /opt/homebrew/Cellar/arm-none-eabi-gcc@8/8.5.0_2/lib/arm-none-eabi-gcc/8/gcc/arm-none-eabi/8.5.0/../../../../../../arm-none-eabi/lib/thumb/v6-m/nofp/libg_nano.a(lib_a-makebuf.o)
 .ARM.attributes
                0x00000000       0x2c /opt/homebrew/Cellar/arm-none-eabi-gcc@8/8.5.0_2/lib/arm-none-eabi-gcc/8/gcc/arm-none-eabi/8.5.0/../../../../../../arm-none-eabi/lib/thumb/v6-m/nofp/libg_nano.a(lib_a-makebuf.o)
 .data          0x00000000        0x0 /opt/homebrew/Cellar/arm-none-eabi-gcc@8/8.5.0_2/lib/arm-none-eabi-gcc/8/gcc/arm-none-eabi/8.5.0/../../../../../../arm-none-eabi/lib/thumb/v6-m/nofp/libg_nano.a(lib_a-memchr-stub.o)
 .bss           0x00000000        0x0 /opt/homebrew/Cellar/arm-none-eabi-gcc@8/8.5.0_2/lib/arm-none-eabi-gcc/8/gcc/arm-none-eabi/8.5.0/../../../../../../arm-none-eabi/lib/thumb/v6-m/nofp/libg_nano.a(lib_a-memchr-stub.o)
 .text          0x00000000       0xbc /opt/homebrew/Cellar/arm-none-eabi-gcc@8/8.5.0_2/lib/arm-none-eabi-gcc/8/gcc/arm-none-eabi/8.5.0/../../../../../../arm-none-eabi/lib/thumb/v6-m/nofp/libg_nano.a(lib_a-memmove.o)
 .data          0x00000000        0x0 /opt/homebrew/Cellar/arm-none-eabi-gcc@8/8.5.0_2/lib/arm-none-eabi-gcc/8/gcc/arm-none-eabi/8.5.0/../../../../../../arm-none-eabi/lib/thumb/v6-m/nofp/libg_nano.a(lib_a-memmove.o)
 .bss           0x00000000        0x0 /opt/homebrew/Cellar/arm-none-eabi-gcc@8/8.5.0_2/lib/arm-none-eabi-gcc/8/gcc/arm-none-eabi/8.5.0/../../../../../../arm-none-eabi/lib/thumb/v6-m/nofp/libg_nano.a(lib_a-memmove.o)
 .debug_frame   0x00000000       0x34 /opt/homebrew/Cellar/arm-none-eabi-gcc@8/8.5.0_2/lib/arm-none-eabi-gcc/8/gcc/arm-none-eabi/8.5.0/../../../../../../arm-none-eabi/lib/thumb/v6-m/nofp/libg_nano.a(lib_a-memmove.o)
 .ARM.attributes
                0x00000000       0x2c /opt/homebrew/Cellar/arm-none-eabi-gcc@8/8.5.0_2/lib/arm-none-eabi-gcc/8/gcc/arm-none-eabi/8.5.0/../../../../../../arm-none-eabi/lib/thumb/v6-m/nofp/libg_nano.a(lib_a-memmove.o)
 .data          0x00000000        0x0 /opt/homebrew/Cellar/arm-none-eabi-gcc@8/8.5.0_2/lib/arm-none-eabi-gcc/8/gcc/arm-none-eabi/8.5.0/../../../../../../arm-none-eabi/lib/thumb/v6-m/nofp/libg_nano.a(lib_a-memset.o)
 .bss           0x00000000        0x0 /opt/homebrew/Cellar/arm-none-eabi-gcc@8/8.5.0_2/lib/arm-none-eabi-gcc/8/gcc/arm-none-eabi/8.5.0/../../../../../../arm-none-eabi/lib/thumb/v6-m/nofp/libg_nano.a(lib_a-memset.o)
 .text          0x00000000       0x20 /opt/homebrew/Cellar/arm-none-eabi-gcc@8/8.5.0_2/lib/arm-none-eabi-gcc/8/gcc/arm-none-eabi/8.5.0/../../../../../../arm-none-eabi/lib/thumb/v6-m/nofp/libg_nano.a(lib_a-mlock.o)
 .data          0x00000000        0x0 /opt/homebrew/Cellar/arm-none-eabi-gcc@8/8.5.0_2/lib/arm-none-eabi-gcc/8/gcc/arm-none-eabi/8.5.0/../../../../../../arm-none-eabi/lib/thumb/v6-m/nofp/libg_nano.a(lib_a-mlock.o)
 .bss           0x00000000        0x0 /opt/homebrew/Cellar/arm-none-eabi-gcc@8/8.5.0_2/lib/arm-none-eabi-gcc/8/gcc/arm-none-eabi/8.5.0/../../../../../../arm-none-eabi/lib/thumb/v6-m/nofp/libg_nano.a(lib_a-mlock.o)
 .debug_frame   0x00000000       0x40 /opt/homebrew/Cellar/arm-none-eabi-gcc@8/8.5.0_2/lib/arm-none-eabi-gcc/8/gcc/arm-none-eabi/8.5.0/../../../../../../arm-none-eabi/lib/thumb/v6-m/nofp/libg_nano.a(lib_a-mlock.o)
 .ARM.attributes
                0x00000000       0x2c /opt/homebrew/Cellar/arm-none-eabi-gcc@8/8.5.0_2/lib/arm-none-eabi-gcc/8/gcc/arm-none-eabi/8.5.0/../../../../../../arm-none-eabi/lib/thumb/v6-m/nofp/libg_nano.a(lib_a-mlock.o)
 .text          0x00000000       0x50 /opt/homebrew/Cellar/arm-none-eabi-gcc@8/8.5.0_2/lib/arm-none-eabi-gcc/8/gcc/arm-none-eabi/8.5.0/../../../../../../arm-none-eabi/lib/thumb/v6-m/nofp/libg_nano.a(lib_a-nano-reallocr.o)
 .data          0x00000000        0x0 /opt/homebrew/Cellar/arm-none-eabi-gcc@8/8.5.0_2/lib/arm-none-eabi-gcc/8/gcc/arm-none-eabi/8.5.0/../../../../../../arm-none-eabi/lib/thumb/v6-m/nofp/libg_nano.a(lib_a-nano-reallocr.o)
 .bss           0x00000000        0x0 /opt/homebrew/Cellar/arm-none-eabi-gcc@8/8.5.0_2/lib/arm-none-eabi-gcc/8/gcc/arm-none-eabi/8.5.0/../../../../../../arm-none-eabi/lib/thumb/v6-m/nofp/libg_nano.a(lib_a-nano-reallocr.o)
 .debug_frame   0x00000000       0x30 /opt/homebrew/Cellar/arm-none-eabi-gcc@8/8.5.0_2/lib/arm-none-eabi-gcc/8/gcc/arm-none-eabi/8.5.0/../../../../../../arm-none-eabi/lib/thumb/v6-m/nofp/libg_nano.a(lib_a-nano-reallocr.o)
 .ARM.attributes
                0x00000000       0x2c /opt/homebrew/Cellar/arm-none-eabi-gcc@8/8.5.0_2/lib/arm-none-eabi-gcc/8/gcc/arm-none-eabi/8.5.0/../../../../../../arm-none-eabi/lib/thumb/v6-m/nofp/libg_nano.a(lib_a-nano-reallocr.o)
 .text          0x00000000      0x178 /opt/homebrew/Cellar/arm-none-eabi-gcc@8/8.5.0_2/lib/arm-none-eabi-gcc/8/gcc/arm-none-eabi/8.5.0/../../../../../../arm-none-eabi/lib/thumb/v6-m/nofp/libg_nano.a(lib_a-signal.o)
 .data          0x00000000        0x0 /opt/homebrew/Cellar/arm-none-eabi-gcc@8/8.5.0_2/lib/arm-none-eabi-gcc/8/gcc/arm-none-eabi/8.5.0/../../../../../../arm-none-eabi/lib/thumb/v6-m/nofp/libg_nano.a(lib_a-signal.o)
 .bss           0x00000000        0x0 /opt/homebrew/Cellar/arm-none-eabi-gcc@8/8.5.0_2/lib/arm-none-eabi-gcc/8/gcc/arm-none-eabi/8.5.0/../../../../../../arm-none-eabi/lib/thumb/v6-m/nofp/libg_nano.a(lib_a-signal.o)
 .debug_frame   0x00000000       0xf4 /opt/homebrew/Cellar/arm-none-eabi-gcc@8/8.5.0_2/lib/arm-none-eabi-gcc/8/gcc/arm-none-eabi/8.5.0/../../../../../../arm-none-eabi/lib/thumb/v6-m/nofp/libg_nano.a(lib_a-signal.o)
 .ARM.attributes
                0x00000000       0x2c /opt/homebrew/Cellar/arm-none-eabi-gcc@8/8.5.0_2/lib/arm-none-eabi-gcc/8/gcc/arm-none-eabi/8.5.0/../../../../../../arm-none-eabi/lib/thumb/v6-m/nofp/libg_nano.a(lib_a-signal.o)
 .text          0x00000000       0x30 /opt/homebrew/Cellar/arm-none-eabi-gcc@8/8.5.0_2/lib/arm-none-eabi-gcc/8/gcc/arm-none-eabi/8.5.0/../../../../../../arm-none-eabi/lib/thumb/v6-m/nofp/libg_nano.a(lib_a-signalr.o)
 .data          0x00000000        0x0 /opt/homebrew/Cellar/arm-none-eabi-gcc@8/8.5.0_2/lib/arm-none-eabi-gcc/8/gcc/arm-none-eabi/8.5.0/../../../../../../arm-none-eabi/lib/thumb/v6-m/nofp/libg_nano.a(lib_a-signalr.o)
 .bss           0x00000000        0x0 /opt/homebrew/Cellar/arm-none-eabi-gcc@8/8.5.0_2/lib/arm-none-eabi-gcc/8/gcc/arm-none-eabi/8.5.0/../../../../../../arm-none-eabi/lib/thumb/v6-m/nofp/libg_nano.a(lib_a-signalr.o)
 .debug_frame   0x00000000       0x44 /opt/homebrew/Cellar/arm-none-eabi-gcc@8/8.5.0_2/lib/arm-none-eabi-gcc/8/gcc/arm-none-eabi/8.5.0/../../../../../../arm-none-eabi/lib/thumb/v6-m/nofp/libg_nano.a(lib_a-signalr.o)
 .ARM.attributes
                0x00000000       0x2c /opt/homebrew/Cellar/arm-none-eabi-gcc@8/8.5.0_2/lib/arm-none-eabi-gcc/8/gcc/arm-none-eabi/8.5.0/../../../../../../arm-none-eabi/lib/thumb/v6-m/nofp/libg_nano.a(lib_a-signalr.o)
 .text          0x00000000       0xa4 /opt/homebrew/Cellar/arm-none-eabi-gcc@8/8.5.0_2/lib/arm-none-eabi-gcc/8/gcc/arm-none-eabi/8.5.0/../../../../../../arm-none-eabi/lib/thumb/v6-m/nofp/libg_nano.a(lib_a-stdio.o)
 .data          0x00000000        0x0 /opt/homebrew/Cellar/arm-none-eabi-gcc@8/8.5.0_2/lib/arm-none-eabi-gcc/8/gcc/arm-none-eabi/8.5.0/../../../../../../arm-none-eabi/lib/thumb/v6-m/nofp/libg_nano.a(lib_a-stdio.o)
 .bss           0x00000000        0x0 /opt/homebrew/Cellar/arm-none-eabi-gcc@8/8.5.0_2/lib/arm-none-eabi-gcc/8/gcc/arm-none-eabi/8.5.0/../../../../../../arm-none-eabi/lib/thumb/v6-m/nofp/libg_nano.a(lib_a-stdio.o)
 .debug_frame   0x00000000       0x90 /opt/homebrew/Cellar/arm-none-eabi-gcc@8/8.5.0_2/lib/arm-none-eabi-gcc/8/gcc/arm-none-eabi/8.5.0/../../../../../../arm-none-eabi/lib/thumb/v6-m/nofp/libg_nano.a(lib_a-stdio.o)
 .ARM.attributes
                0x00000000       0x2c /opt/homebrew/Cellar/arm-none-eabi-gcc@8/8.5.0_2/lib/arm-none-eabi-gcc/8/gcc/arm-none-eabi/8.5.0/../../../../../../arm-none-eabi/lib/thumb/v6-m/nofp/libg_nano.a(lib_a-stdio.o)
 .text          0x00000000       0x14 /opt/homebrew/Cellar/arm-none-eabi-gcc@8/8.5.0_2/lib/arm-none-eabi-gcc/8/gcc/arm-none-eabi/8.5.0/../../../../../../arm-none-eabi/lib/thumb/v6-m/nofp/libg_nano.a(lib_a-nano-msizer.o)
 .data          0x00000000        0x0 /opt/homebrew/Cellar/arm-none-eabi-gcc@8/8.5.0_2/lib/arm-none-eabi-gcc/8/gcc/arm-none-eabi/8.5.0/../../../../../../arm-none-eabi/lib/thumb/v6-m/nofp/libg_nano.a(lib_a-nano-msizer.o)
 .bss           0x00000000        0x0 /opt/homebrew/Cellar/arm-none-eabi-gcc@8/8.5.0_2/lib/arm-none-eabi-gcc/8/gcc/arm-none-eabi/8.5.0/../../../../../../arm-none-eabi/lib/thumb/v6-m/nofp/libg_nano.a(lib_a-nano-msizer.o)
 .debug_frame   0x00000000       0x20 /opt/homebrew/Cellar/arm-none-eabi-gcc@8/8.5.0_2/lib/arm-none-eabi-gcc/8/gcc/arm-none-eabi/8.5.0/../../../../../../arm-none-eabi/lib/thumb/v6-m/nofp/libg_nano.a(lib_a-nano-msizer.o)
 .ARM.attributes
                0x00000000       0x2c /opt/homebrew/Cellar/arm-none-eabi-gcc@8/8.5.0_2/lib/arm-none-eabi-gcc/8/gcc/arm-none-eabi/8.5.0/../../../../../../arm-none-eabi/lib/thumb/v6-m/nofp/libg_nano.a(lib_a-nano-msizer.o)
 .text          0x00000000       0xf8 /opt/homebrew/Cellar/arm-none-eabi-gcc@8/8.5.0_2/lib/arm-none-eabi-gcc/8/gcc/arm-none-eabi/8.5.0/../../../../../../arm-none-eabi/lib/thumb/v6-m/nofp/libg_nano.a(lib_a-reent.o)
 .data          0x00000000        0x0 /opt/homebrew/Cellar/arm-none-eabi-gcc@8/8.5.0_2/lib/arm-none-eabi-gcc/8/gcc/arm-none-eabi/8.5.0/../../../../../../arm-none-eabi/lib/thumb/v6-m/nofp/libg_nano.a(lib_a-reent.o)
 .bss           0x00000000        0x0 /opt/homebrew/Cellar/arm-none-eabi-gcc@8/8.5.0_2/lib/arm-none-eabi-gcc/8/gcc/arm-none-eabi/8.5.0/../../../../../../arm-none-eabi/lib/thumb/v6-m/nofp/libg_nano.a(lib_a-reent.o)
 .debug_frame   0x00000000       0x48 /opt/homebrew/Cellar/arm-none-eabi-gcc@8/8.5.0_2/lib/arm-none-eabi-gcc/8/gcc/arm-none-eabi/8.5.0/../../../../../../arm-none-eabi/lib/thumb/v6-m/nofp/libg_nano.a(lib_a-reent.o)
 .ARM.attributes
                0x00000000       0x2c /opt/homebrew/Cellar/arm-none-eabi-gcc@8/8.5.0_2/lib/arm-none-eabi-gcc/8/gcc/arm-none-eabi/8.5.0/../../../../../../arm-none-eabi/lib/thumb/v6-m/nofp/libg_nano.a(lib_a-reent.o)
 COMMON         0x00000000        0x4 /opt/homebrew/Cellar/arm-none-eabi-gcc@8/8.5.0_2/lib/arm-none-eabi-gcc/8/gcc/arm-none-eabi/8.5.0/../../../../../../arm-none-eabi/lib/thumb/v6-m/nofp/libg_nano.a(lib_a-reent.o)
 .data          0x00000000        0x0 /opt/homebrew/Cellar/arm-none-eabi-gcc@8/8.5.0_2/lib/arm-none-eabi-gcc/8/gcc/arm-none-eabi/8.5.0/../../../../../../arm-none-eabi/lib/thumb/v6-m/nofp/libg_nano.a(lib_a-memcmp.o)
 .bss           0x00000000        0x0 /opt/homebrew/Cellar/arm-none-eabi-gcc@8/8.5.0_2/lib/arm-none-eabi-gcc/8/gcc/arm-none-eabi/8.5.0/../../../../../../arm-none-eabi/lib/thumb/v6-m/nofp/libg_nano.a(lib_a-memcmp.o)
 .data          0x00000000        0x0 /opt/homebrew/Cellar/arm-none-eabi-gcc@8/8.5.0_2/lib/arm-none-eabi-gcc/8/gcc/arm-none-eabi/8.5.0/../../../../../../arm-none-eabi/lib/thumb/v6-m/nofp/libg_nano.a(lib_a-strlen-stub.o)
 .bss           0x00000000        0x0 /opt/homebrew/Cellar/arm-none-eabi-gcc@8/8.5.0_2/lib/arm-none-eabi-gcc/8/gcc/arm-none-eabi/8.5.0/../../../../../../arm-none-eabi/lib/thumb/v6-m/nofp/libg_nano.a(lib_a-strlen-stub.o)

Memory Configuration

Name             Origin             Length             Attributes
flash0           0x00000000         0x00004000         xr
flash1           0x10000000         0x00200000         xr
flash2           0x00000000         0x00000000         xr
flash3           0x00000000         0x00000000         xr
flash4           0x00000000         0x00000000         xr
flash5           0x00000000         0x00000000         xr
flash6           0x00000000         0x00000000         xr
flash7           0x00000000         0x00000000         xr
ram0             0x20000000         0x00040000         xw
ram1             0x00000000         0x00040000         xw
ram2             0x00000000         0x00000000         xw
ram3             0x00000000         0x00000000         xw
ram4             0x20040000         0x00001000         xw
ram5             0x20041000         0x00001000         xw
ram6             0x00000000         0x00000000         xw
ram7             0x20041f00         0x00000100         xw
*default*        0x00000000         0xffffffff

Linker script and memory map

LOAD .build/obj_crkbd_rev1_via/keyboards/crkbd/crkbd.o
LOAD /var/folders/tr/p8fgs8cd4pn1v7l1rzxd4yfr0000gn/T//ccgyOZ3Gdebugobj
LOAD /var/folders/tr/p8fgs8cd4pn1v7l1rzxd4yfr0000gn/T//ccLV2jr4.ltrans0.ltrans.o
LOAD /var/folders/tr/p8fgs8cd4pn1v7l1rzxd4yfr0000gn/T//ccLV2jr4.ltrans1.ltrans.o
LOAD .build/obj_crkbd_rev1_via/.build/obj_crkbd_rev1_via/src/default_keyboard.o
LOAD .build/obj_crkbd_rev1_via/quantum/keymap_introspection.o
LOAD .build/obj_crkbd_rev1_via/quantum/quantum.o
LOAD .build/obj_crkbd_rev1_via/quantum/bitwise.o
LOAD .build/obj_crkbd_rev1_via/quantum/led.o
LOAD .build/obj_crkbd_rev1_via/quantum/action.o
LOAD .build/obj_crkbd_rev1_via/quantum/action_layer.o
LOAD .build/obj_crkbd_rev1_via/quantum/action_tapping.o
LOAD .build/obj_crkbd_rev1_via/quantum/action_util.o
LOAD .build/obj_crkbd_rev1_via/quantum/eeconfig.o
LOAD .build/obj_crkbd_rev1_via/quantum/keyboard.o
LOAD .build/obj_crkbd_rev1_via/quantum/keymap_common.o
LOAD .build/obj_crkbd_rev1_via/quantum/keycode_config.o
LOAD .build/obj_crkbd_rev1_via/quantum/sync_timer.o
LOAD .build/obj_crkbd_rev1_via/quantum/logging/debug.o
LOAD .build/obj_crkbd_rev1_via/quantum/logging/sendchar.o
LOAD .build/obj_crkbd_rev1_via/quantum/logging/print.o
LOAD .build/obj_crkbd_rev1_via/quantum/matrix_common.o
LOAD .build/obj_crkbd_rev1_via/quantum/matrix.o
LOAD .build/obj_crkbd_rev1_via/quantum/debounce/sym_defer_g.o
LOAD .build/obj_crkbd_rev1_via/quantum/split_common/split_util.o
LOAD .build/obj_crkbd_rev1_via/quantum/split_common/transport.o
LOAD .build/obj_crkbd_rev1_via/quantum/split_common/transactions.o
LOAD .build/obj_crkbd_rev1_via/quantum/main.o
LOAD .build/obj_crkbd_rev1_via/printf.o
LOAD .build/obj_crkbd_rev1_via/eeprom_driver.o
LOAD .build/obj_crkbd_rev1_via/eeprom_wear_leveling.o
LOAD .build/obj_crkbd_rev1_via/wear_leveling.o
LOAD .build/obj_crkbd_rev1_via/wear_leveling_rp2040_flash.o
LOAD .build/obj_crkbd_rev1_via/quantum/color.o
LOAD .build/obj_crkbd_rev1_via/quantum/rgblight/rgblight.o
LOAD .build/obj_crkbd_rev1_via/quantum/rgblight/rgblight_drivers.o
LOAD .build/obj_crkbd_rev1_via/quantum/process_keycode/process_rgb.o
LOAD .build/obj_crkbd_rev1_via/quantum/led_tables.o
LOAD .build/obj_crkbd_rev1_via/qmk_fnv_type_validation.o
LOAD .build/obj_crkbd_rev1_via/hash_32a.o
LOAD .build/obj_crkbd_rev1_via/hash_64a.o
LOAD .build/obj_crkbd_rev1_via/oled_driver.o
LOAD .build/obj_crkbd_rev1_via/ws2812_vendor.o
LOAD .build/obj_crkbd_rev1_via/quantum/bootmagic/bootmagic.o
LOAD .build/obj_crkbd_rev1_via/quantum/crc.o
LOAD .build/obj_crkbd_rev1_via/quantum/dynamic_keymap.o
LOAD .build/obj_crkbd_rev1_via/quantum/process_keycode/process_grave_esc.o
LOAD .build/obj_crkbd_rev1_via/quantum/process_keycode/process_magic.o
LOAD .build/obj_crkbd_rev1_via/quantum/send_string/send_string.o
LOAD .build/obj_crkbd_rev1_via/quantum/process_keycode/process_space_cadet.o
LOAD .build/obj_crkbd_rev1_via/quantum/process_keycode/process_tri_layer.o
LOAD .build/obj_crkbd_rev1_via/quantum/tri_layer.o
LOAD .build/obj_crkbd_rev1_via/quantum/via.o
LOAD .build/obj_crkbd_rev1_via/protocol/host.o
LOAD .build/obj_crkbd_rev1_via/protocol/report.o
LOAD .build/obj_crkbd_rev1_via/protocol/usb_device_state.o
LOAD .build/obj_crkbd_rev1_via/protocol/usb_util.o
LOAD .build/obj_crkbd_rev1_via/platforms/suspend.o
LOAD .build/obj_crkbd_rev1_via/platforms/synchronization_util.o
LOAD .build/obj_crkbd_rev1_via/platforms/timer.o
LOAD .build/obj_crkbd_rev1_via/platforms/chibios/hardware_id.o
LOAD .build/obj_crkbd_rev1_via/platforms/chibios/platform.o
LOAD .build/obj_crkbd_rev1_via/platforms/chibios/suspend.o
LOAD .build/obj_crkbd_rev1_via/platforms/chibios/timer.o
LOAD .build/obj_crkbd_rev1_via/platforms/chibios/bootloaders/rp2040.o
LOAD .build/obj_crkbd_rev1_via/serial_protocol.a
LOAD .build/obj_crkbd_rev1_via/serial_vendor.a
LOAD .build/obj_crkbd_rev1_via/i2c_master.a
LOAD .build/obj_crkbd_rev1_via/./lib/chibios/os/common/startup/ARMCMx/compilers/GCC/crt0_v6m.o
LOAD .build/obj_crkbd_rev1_via/./lib/chibios/os/common/startup/ARMCMx/compilers/GCC/vectors.o
LOAD .build/obj_crkbd_rev1_via/./lib/chibios/os/common/ports/ARMv6-M-RP2/compilers/GCC/chcoreasm.o
LOAD .build/obj_crkbd_rev1_via/protocol/chibios/usb_main.o
LOAD .build/obj_crkbd_rev1_via/protocol/chibios/chibios.o
LOAD .build/obj_crkbd_rev1_via/usb_descriptor.o
LOAD .build/obj_crkbd_rev1_via/protocol/chibios/usb_driver.o
LOAD .build/obj_crkbd_rev1_via/protocol/chibios/usb_util.o
LOAD .build/obj_crkbd_rev1_via/./lib/chibios/os/oslib/src/chmboxes.o
LOAD .build/obj_crkbd_rev1_via/./lib/chibios/os/oslib/src/chmemcore.o
LOAD .build/obj_crkbd_rev1_via/./lib/chibios/os/oslib/src/chmemheaps.o
LOAD .build/obj_crkbd_rev1_via/./lib/chibios/os/oslib/src/chmempools.o
LOAD .build/obj_crkbd_rev1_via/./lib/chibios/os/oslib/src/chpipes.o
LOAD .build/obj_crkbd_rev1_via/./lib/chibios/os/oslib/src/chobjcaches.o
LOAD .build/obj_crkbd_rev1_via/./lib/chibios/os/oslib/src/chdelegates.o
LOAD .build/obj_crkbd_rev1_via/./lib/chibios/os/oslib/src/chfactory.o
LOAD .build/obj_crkbd_rev1_via/lib/chibios/os/common/startup/ARMCMx/compilers/GCC/crt1.o
LOAD .build/obj_crkbd_rev1_via/lib/chibios/os/rt/src/chsys.o
LOAD .build/obj_crkbd_rev1_via/lib/chibios/os/rt/src/chrfcu.o
LOAD .build/obj_crkbd_rev1_via/lib/chibios/os/rt/src/chdebug.o
LOAD .build/obj_crkbd_rev1_via/lib/chibios/os/rt/src/chtrace.o
LOAD .build/obj_crkbd_rev1_via/lib/chibios/os/rt/src/chvt.o
LOAD .build/obj_crkbd_rev1_via/lib/chibios/os/rt/src/chschd.o
LOAD .build/obj_crkbd_rev1_via/lib/chibios/os/rt/src/chinstances.o
LOAD .build/obj_crkbd_rev1_via/lib/chibios/os/rt/src/chthreads.o
LOAD .build/obj_crkbd_rev1_via/lib/chibios/os/rt/src/chtm.o
LOAD .build/obj_crkbd_rev1_via/lib/chibios/os/rt/src/chstats.o
LOAD .build/obj_crkbd_rev1_via/lib/chibios/os/rt/src/chregistry.o
LOAD .build/obj_crkbd_rev1_via/lib/chibios/os/rt/src/chsem.o
LOAD .build/obj_crkbd_rev1_via/lib/chibios/os/rt/src/chmtx.o
LOAD .build/obj_crkbd_rev1_via/lib/chibios/os/rt/src/chcond.o
LOAD .build/obj_crkbd_rev1_via/lib/chibios/os/rt/src/chevents.o
LOAD .build/obj_crkbd_rev1_via/lib/chibios/os/rt/src/chmsg.o
LOAD .build/obj_crkbd_rev1_via/lib/chibios/os/rt/src/chdynamic.o
LOAD .build/obj_crkbd_rev1_via/lib/chibios/os/common/ports/ARMv6-M-RP2/chcore.o
LOAD .build/obj_crkbd_rev1_via/lib/chibios/os/hal/osal/rt-nil/osal.o
LOAD .build/obj_crkbd_rev1_via/lib/chibios/os/hal/src/hal.o
LOAD .build/obj_crkbd_rev1_via/lib/chibios/os/hal/src/hal_st.o
LOAD .build/obj_crkbd_rev1_via/lib/chibios/os/hal/src/hal_buffers.o
LOAD .build/obj_crkbd_rev1_via/lib/chibios/os/hal/src/hal_queues.o
LOAD .build/obj_crkbd_rev1_via/lib/chibios/os/hal/src/hal_flash.o
LOAD .build/obj_crkbd_rev1_via/lib/chibios/os/hal/src/hal_mmcsd.o
LOAD .build/obj_crkbd_rev1_via/lib/chibios/os/hal/src/hal_adc.o
LOAD .build/obj_crkbd_rev1_via/lib/chibios/os/hal/src/hal_can.o
LOAD .build/obj_crkbd_rev1_via/lib/chibios/os/hal/src/hal_crypto.o
LOAD .build/obj_crkbd_rev1_via/lib/chibios/os/hal/src/hal_dac.o
LOAD .build/obj_crkbd_rev1_via/lib/chibios/os/hal/src/hal_efl.o
LOAD .build/obj_crkbd_rev1_via/lib/chibios/os/hal/src/hal_gpt.o
LOAD .build/obj_crkbd_rev1_via/lib/chibios/os/hal/src/hal_i2c.o
LOAD .build/obj_crkbd_rev1_via/lib/chibios/os/hal/src/hal_i2s.o
LOAD .build/obj_crkbd_rev1_via/lib/chibios/os/hal/src/hal_icu.o
LOAD .build/obj_crkbd_rev1_via/lib/chibios/os/hal/src/hal_mac.o
LOAD .build/obj_crkbd_rev1_via/lib/chibios/os/hal/src/hal_mmc_spi.o
LOAD .build/obj_crkbd_rev1_via/lib/chibios/os/hal/src/hal_pal.o
LOAD .build/obj_crkbd_rev1_via/lib/chibios/os/hal/src/hal_pwm.o
LOAD .build/obj_crkbd_rev1_via/lib/chibios/os/hal/src/hal_rtc.o
LOAD .build/obj_crkbd_rev1_via/lib/chibios/os/hal/src/hal_sdc.o
LOAD .build/obj_crkbd_rev1_via/lib/chibios/os/hal/src/hal_serial.o
LOAD .build/obj_crkbd_rev1_via/lib/chibios/os/hal/src/hal_serial_usb.o
LOAD .build/obj_crkbd_rev1_via/lib/chibios/os/hal/src/hal_sio.o
LOAD .build/obj_crkbd_rev1_via/lib/chibios/os/hal/src/hal_spi.o
LOAD .build/obj_crkbd_rev1_via/lib/chibios/os/hal/src/hal_trng.o
LOAD .build/obj_crkbd_rev1_via/lib/chibios/os/hal/src/hal_uart.o
LOAD .build/obj_crkbd_rev1_via/lib/chibios/os/hal/src/hal_usb.o
LOAD .build/obj_crkbd_rev1_via/lib/chibios/os/hal/src/hal_wdg.o
LOAD .build/obj_crkbd_rev1_via/lib/chibios/os/hal/src/hal_wspi.o
LOAD .build/obj_crkbd_rev1_via/lib/chibios/os/hal/ports/common/ARMCMx/nvic.o
LOAD .build/obj_crkbd_rev1_via/lib/chibios/os/hal/ports/RP/RP2040/rp_isr.o
LOAD .build/obj_crkbd_rev1_via/lib/chibios/os/hal/ports/RP/RP2040/hal_lld.o
LOAD .build/obj_crkbd_rev1_via/lib/chibios/os/hal/ports/RP/LLD/DMAv1/rp_dma.o
LOAD .build/obj_crkbd_rev1_via/lib/chibios/os/hal/ports/RP/LLD/GPIOv1/hal_pal_lld.o
LOAD .build/obj_crkbd_rev1_via/lib/chibios/os/hal/ports/RP/LLD/SPIv1/hal_spi_lld.o
LOAD .build/obj_crkbd_rev1_via/lib/chibios/os/hal/ports/RP/LLD/TIMERv1/hal_st_lld.o
LOAD .build/obj_crkbd_rev1_via/lib/chibios/os/hal/ports/RP/LLD/UARTv1/hal_sio_lld.o
LOAD .build/obj_crkbd_rev1_via/lib/chibios/os/hal/ports/RP/LLD/RTCv1/hal_rtc_lld.o
LOAD .build/obj_crkbd_rev1_via/lib/chibios/os/hal/ports/RP/LLD/WDGv1/hal_wdg_lld.o
LOAD .build/obj_crkbd_rev1_via/lib/chibios-contrib/os/hal/ports/RP/LLD/I2Cv1/hal_i2c_lld.o
LOAD .build/obj_crkbd_rev1_via/lib/chibios-contrib/os/hal/ports/RP/LLD/PWMv1/hal_pwm_lld.o
LOAD .build/obj_crkbd_rev1_via/lib/chibios-contrib/os/hal/ports/RP/LLD/ADCv1/hal_adc_lld.o
LOAD .build/obj_crkbd_rev1_via/lib/chibios-contrib/os/hal/ports/RP/LLD/USBDv1/hal_usb_lld.o
LOAD .build/obj_crkbd_rev1_via/lib/chibios/os/hal/boards/RP_PICO_RP2040/board.o
LOAD .build/obj_crkbd_rev1_via/lib/chibios/os/hal/lib/streams/chprintf.o
LOAD .build/obj_crkbd_rev1_via/lib/chibios/os/hal/lib/streams/chscanf.o
LOAD .build/obj_crkbd_rev1_via/lib/chibios/os/hal/lib/streams/memstreams.o
LOAD .build/obj_crkbd_rev1_via/lib/chibios/os/hal/lib/streams/nullstreams.o
LOAD .build/obj_crkbd_rev1_via/lib/chibios/os/hal/lib/streams/bufstreams.o
LOAD .build/obj_crkbd_rev1_via/lib/chibios/os/various/syscalls.o
LOAD .build/obj_crkbd_rev1_via/platforms/chibios/syscall-fallbacks.o
LOAD .build/obj_crkbd_rev1_via/platforms/chibios/wait.o
LOAD .build/obj_crkbd_rev1_via/platforms/chibios/synchronization_util.o
LOAD .build/obj_crkbd_rev1_via/platforms/chibios/interrupt_handlers.o
LOAD .build/obj_crkbd_rev1_via/./lib/pico-sdk/src/rp2_common/hardware_clocks/clocks.o
LOAD .build/obj_crkbd_rev1_via/./lib/pico-sdk/src/rp2_common/hardware_pll/pll.o
LOAD .build/obj_crkbd_rev1_via/./lib/pico-sdk/src/rp2_common/hardware_pio/pio.o
LOAD .build/obj_crkbd_rev1_via/./lib/pico-sdk/src/rp2_common/hardware_timer/timer.o
LOAD .build/obj_crkbd_rev1_via/./lib/pico-sdk/src/rp2_common/hardware_flash/flash.o
LOAD .build/obj_crkbd_rev1_via/./lib/pico-sdk/src/rp2_common/hardware_gpio/gpio.o
LOAD .build/obj_crkbd_rev1_via/./lib/pico-sdk/src/rp2_common/hardware_claim/claim.o
LOAD .build/obj_crkbd_rev1_via/./lib/pico-sdk/src/rp2_common/hardware_watchdog/watchdog.o
LOAD .build/obj_crkbd_rev1_via/./lib/pico-sdk/src/rp2_common/hardware_xosc/xosc.o
LOAD .build/obj_crkbd_rev1_via/./lib/pico-sdk/src/rp2_common/pico_bootrom/bootrom.o
LOAD .build/obj_crkbd_rev1_via/platforms/chibios/vendors/RP/stage2_bootloaders.o
LOAD .build/obj_crkbd_rev1_via/platforms/chibios/vendors/RP/pico_sdk_shims.o
LOAD .build/obj_crkbd_rev1_via/./lib/pico-sdk/src/rp2_common/pico_divider/divider.o
LOAD .build/obj_crkbd_rev1_via/./lib/pico-sdk/src/rp2_common/pico_int64_ops/pico_int64_ops_aeabi.o
                0x00000800                        __process_stack_size__ = 0x800
                0x00000400                        __main_stack_size__ = 0x400
LOAD /opt/homebrew/Cellar/arm-none-eabi-gcc@8/8.5.0_2/lib/arm-none-eabi-gcc/8/gcc/arm-none-eabi/8.5.0/../../../../../../arm-none-eabi/lib/thumb/v6-m/nofp/libm.a
START GROUP
LOAD /opt/homebrew/Cellar/arm-none-eabi-gcc@8/8.5.0_2/lib/arm-none-eabi-gcc/8/gcc/arm-none-eabi/8.5.0/thumb/v6-m/nofp/libgcc.a
LOAD /opt/homebrew/Cellar/arm-none-eabi-gcc@8/8.5.0_2/lib/arm-none-eabi-gcc/8/gcc/arm-none-eabi/8.5.0/../../../../../../arm-none-eabi/lib/thumb/v6-m/nofp/libg_nano.a
LOAD /opt/homebrew/Cellar/arm-none-eabi-gcc@8/8.5.0_2/lib/arm-none-eabi-gcc/8/gcc/arm-none-eabi/8.5.0/../../../../../../arm-none-eabi/lib/thumb/v6-m/nofp/libc_nano.a
END GROUP
START GROUP
LOAD /opt/homebrew/Cellar/arm-none-eabi-gcc@8/8.5.0_2/lib/arm-none-eabi-gcc/8/gcc/arm-none-eabi/8.5.0/thumb/v6-m/nofp/libgcc.a
LOAD /opt/homebrew/Cellar/arm-none-eabi-gcc@8/8.5.0_2/lib/arm-none-eabi-gcc/8/gcc/arm-none-eabi/8.5.0/../../../../../../arm-none-eabi/lib/thumb/v6-m/nofp/libc_nano.a
END GROUP

.flash_begin    0x10000000        0x0
                0x10000000                        __flash_binary_start = .

.boot2          0x10000000      0x100
                0x10000000                        __boot2_start__ = .
 *(.boot2)
 .boot2         0x10000000      0x100 /var/folders/tr/p8fgs8cd4pn1v7l1rzxd4yfr0000gn/T//ccLV2jr4.ltrans0.ltrans.o
                0x10000000                BOOT2_ROM
                0x10000100                        __boot2_end__ = .

.mstack         0x20040000      0x400
                0x20040000                        . = ALIGN (0x8)
                0x20040000                        __main_stack_base__ = .
                0x20040400                        . = (. + __main_stack_size__)
 *fill*         0x20040000      0x400 
                0x20040400                        . = ALIGN (0x8)
                0x20040400                        __main_stack_end__ = .

.pstack         0x20040400      0x800
                0x20040400                        . = ALIGN (0x8)
                0x20040400                        __process_stack_base__ = .
                0x20040400                        __main_thread_stack_base__ = .
                0x20040c00                        . = (. + __process_stack_size__)
 *fill*         0x20040400      0x800 
                0x20040c00                        . = ALIGN (0x8)
                0x20040c00                        __process_stack_end__ = .
                0x20040c00                        __main_thread_stack_end__ = .
                0x00000400                        __c1_main_stack_size__ = __main_stack_size__
                0x00000800                        __c1_process_stack_size__ = __process_stack_size__

.c1_mstack      0x20041000      0x400
                0x20041000                        . = ALIGN (0x8)
                0x20041000                        __c1_main_stack_base__ = .
                0x20041400                        . = (. + __c1_main_stack_size__)
 *fill*         0x20041000      0x400 
                0x20041400                        . = ALIGN (0x8)
                0x20041400                        __c1_main_stack_end__ = .

.c1_pstack      0x20041400      0x800
                0x20041400                        . = ALIGN (0x8)
                0x20041400                        __c1_process_stack_base__ = .
                0x20041400                        __c1_main_thread_stack_base__ = .
                0x20041c00                        . = (. + __c1_process_stack_size__)
 *fill*         0x20041400      0x800 
                0x20041c00                        . = ALIGN (0x8)
                0x20041c00                        __c1_process_stack_end__ = .
                0x20041c00                        __c1_main_thread_stack_end__ = .

.vectors        0x10000100       0xc0
                0x10000100                        __textvectors_base__ = LOADADDR (.vectors)
                0x10000100                        __vectors_base__ = .
 *(.vectors)
 .vectors       0x10000100       0xc0 .build/obj_crkbd_rev1_via/./lib/chibios/os/common/startup/ARMCMx/compilers/GCC/vectors.o
                0x10000100                _vectors
                0x100001c0                        __vectors_end__ = .

.xtors          0x100001c0        0x0
                0x100001c0                        __init_array_base__ = .
 *(SORT_BY_NAME(.init_array.*))
 *(.init_array)
                0x100001c0                        __init_array_end__ = .
                0x100001c0                        __fini_array_base__ = .
 *(.fini_array)
 *(SORT_BY_NAME(.fini_array.*))
                0x100001c0                        __fini_array_end__ = .

.text           0x100001c0     0x9070
                0x100001c0                        __text_base__ = .
 *(.text)
 .text          0x100001c0      0x104 .build/obj_crkbd_rev1_via/./lib/chibios/os/common/startup/ARMCMx/compilers/GCC/crt0_v6m.o
                0x100001c0                _crt0_entry
 .text          0x100002c4        0x8 .build/obj_crkbd_rev1_via/./lib/chibios/os/common/startup/ARMCMx/compilers/GCC/vectors.o
                0x100002c4                Reset_Handler
                0x100002c6                Vector9C
                0x100002c6                VectorAC
                0x100002c6                DebugMon_Handler
                0x100002c6                HardFault_Handler
                0x100002c6                Vector8C
                0x100002c6                SysTick_Handler
                0x100002c6                PendSV_Handler
                0x100002c6                Vector94
                0x100002c6                VectorA8
                0x100002c6                VectorB4
                0x100002c6                Vector74
                0x100002c6                UsageFault_Handler
                0x100002c6                VectorBC
                0x100002c6                Vector64
                0x100002c6                Vector24
                0x100002c6                Vector84
                0x100002c6                SecureFault_Handler
                0x100002c6                MemManage_Handler
                0x100002c6                SVC_Handler
                0x100002c6                VectorB0
                0x100002c6                Vector90
                0x100002c6                Vector60
                0x100002c6                Vector68
                0x100002c6                Vector78
                0x100002c6                Vector20
                0x100002c6                Vector58
                0x100002c6                Vector88
                0x100002c6                BusFault_Handler
                0x100002c6                Vector50
                0x100002c6                Vector28
                0x100002c6                VectorB8
                0x100002c6                Vector34
                0x100002c6                VectorA4
                0x100002ca                _unhandled_exception
 .text          0x100002cc       0x48 .build/obj_crkbd_rev1_via/./lib/chibios/os/common/ports/ARMv6-M-RP2/compilers/GCC/chcoreasm.o
                0x100002cc                __port_switch
                0x100002ec                __port_thread_start
                0x100002fe                __port_switch_from_isr
                0x10000302                __port_exit_from_isr
 .text          0x10000314        0x4 /opt/homebrew/Cellar/arm-none-eabi-gcc@8/8.5.0_2/lib/arm-none-eabi-gcc/8/gcc/arm-none-eabi/8.5.0/thumb/v6-m/nofp/libgcc.a(_dvmd_tls.o)
                0x10000314                __aeabi_ldiv0
                0x10000314                __aeabi_idiv0
 .text          0x10000318       0x30 /opt/homebrew/Cellar/arm-none-eabi-gcc@8/8.5.0_2/lib/arm-none-eabi-gcc/8/gcc/arm-none-eabi/8.5.0/thumb/v6-m/nofp/libgcc.a(_fixunssfsi.o)
                0x10000318                __aeabi_f2uiz
                0x10000318                __fixunssfsi
 .text          0x10000348      0x230 /opt/homebrew/Cellar/arm-none-eabi-gcc@8/8.5.0_2/lib/arm-none-eabi-gcc/8/gcc/arm-none-eabi/8.5.0/thumb/v6-m/nofp/libgcc.a(divsf3.o)
                0x10000348                __aeabi_fdiv
 .text          0x10000578      0x22c /opt/homebrew/Cellar/arm-none-eabi-gcc@8/8.5.0_2/lib/arm-none-eabi-gcc/8/gcc/arm-none-eabi/8.5.0/thumb/v6-m/nofp/libgcc.a(mulsf3.o)
                0x10000578                __aeabi_fmul
 .text          0x100007a4      0x344 /opt/homebrew/Cellar/arm-none-eabi-gcc@8/8.5.0_2/lib/arm-none-eabi-gcc/8/gcc/arm-none-eabi/8.5.0/thumb/v6-m/nofp/libgcc.a(subsf3.o)
                0x100007a4                __aeabi_fsub
 .text          0x10000ae8       0x40 /opt/homebrew/Cellar/arm-none-eabi-gcc@8/8.5.0_2/lib/arm-none-eabi-gcc/8/gcc/arm-none-eabi/8.5.0/thumb/v6-m/nofp/libgcc.a(fixsfsi.o)
                0x10000ae8                __aeabi_f2iz
 .text          0x10000b28       0x80 /opt/homebrew/Cellar/arm-none-eabi-gcc@8/8.5.0_2/lib/arm-none-eabi-gcc/8/gcc/arm-none-eabi/8.5.0/thumb/v6-m/nofp/libgcc.a(floatunsisf.o)
                0x10000b28                __aeabi_ui2f
 .text          0x10000ba8       0x74 /opt/homebrew/Cellar/arm-none-eabi-gcc@8/8.5.0_2/lib/arm-none-eabi-gcc/8/gcc/arm-none-eabi/8.5.0/thumb/v6-m/nofp/libgcc.a(_arm_cmpsf2.o)
                0x10000ba8                __aeabi_cfrcmple
                0x10000bb0                __aeabi_cfcmple
                0x10000bb0                __aeabi_cfcmpeq
                0x10000bc0                __aeabi_fcmpeq
                0x10000bcc                __aeabi_fcmplt
                0x10000be0                __aeabi_fcmple
                0x10000bf4                __aeabi_fcmpgt
                0x10000c08                __aeabi_fcmpge
 .text          0x10000c1c       0x3c /opt/homebrew/Cellar/arm-none-eabi-gcc@8/8.5.0_2/lib/arm-none-eabi-gcc/8/gcc/arm-none-eabi/8.5.0/thumb/v6-m/nofp/libgcc.a(_clzsi2.o)
                0x10000c1c                __clzsi2
 .text          0x10000c58       0x50 /opt/homebrew/Cellar/arm-none-eabi-gcc@8/8.5.0_2/lib/arm-none-eabi-gcc/8/gcc/arm-none-eabi/8.5.0/thumb/v6-m/nofp/libgcc.a(eqsf2.o)
                0x10000c58                __nesf2
                0x10000c58                __eqsf2
 .text          0x10000ca8       0x98 /opt/homebrew/Cellar/arm-none-eabi-gcc@8/8.5.0_2/lib/arm-none-eabi-gcc/8/gcc/arm-none-eabi/8.5.0/thumb/v6-m/nofp/libgcc.a(gesf2.o)
                0x10000ca8                __gtsf2
                0x10000ca8                __gesf2
 .text          0x10000d40       0x94 /opt/homebrew/Cellar/arm-none-eabi-gcc@8/8.5.0_2/lib/arm-none-eabi-gcc/8/gcc/arm-none-eabi/8.5.0/thumb/v6-m/nofp/libgcc.a(lesf2.o)
                0x10000d40                __lesf2
                0x10000d40                __ltsf2
 .text          0x10000dd4       0x14 /opt/homebrew/Cellar/arm-none-eabi-gcc@8/8.5.0_2/lib/arm-none-eabi-gcc/8/gcc/arm-none-eabi/8.5.0/thumb/v6-m/nofp/libgcc.a(_thumb1_case_sqi.o)
                0x10000dd4                __gnu_thumb1_case_sqi
 .text          0x10000de8       0x14 /opt/homebrew/Cellar/arm-none-eabi-gcc@8/8.5.0_2/lib/arm-none-eabi-gcc/8/gcc/arm-none-eabi/8.5.0/thumb/v6-m/nofp/libgcc.a(_thumb1_case_uqi.o)
                0x10000de8                __gnu_thumb1_case_uqi
 .text          0x10000dfc       0x14 /opt/homebrew/Cellar/arm-none-eabi-gcc@8/8.5.0_2/lib/arm-none-eabi-gcc/8/gcc/arm-none-eabi/8.5.0/thumb/v6-m/nofp/libgcc.a(_thumb1_case_shi.o)
                0x10000dfc                __gnu_thumb1_case_shi
 .text          0x10000e10       0x14 /opt/homebrew/Cellar/arm-none-eabi-gcc@8/8.5.0_2/lib/arm-none-eabi-gcc/8/gcc/arm-none-eabi/8.5.0/thumb/v6-m/nofp/libgcc.a(_thumb1_case_uhi.o)
                0x10000e10                __gnu_thumb1_case_uhi
 .text          0x10000e24       0x40 /opt/homebrew/Cellar/arm-none-eabi-gcc@8/8.5.0_2/lib/arm-none-eabi-gcc/8/gcc/arm-none-eabi/8.5.0/thumb/v6-m/nofp/libgcc.a(_ctzsi2.o)
                0x10000e24                __ctzsi2
 .text          0x10000e64       0xa8 /opt/homebrew/Cellar/arm-none-eabi-gcc@8/8.5.0_2/lib/arm-none-eabi-gcc/8/gcc/arm-none-eabi/8.5.0/../../../../../../arm-none-eabi/lib/thumb/v6-m/nofp/libg_nano.a(lib_a-memcpy-stub.o)
                0x10000e64                memcpy
 .text          0x10000f0c       0x80 /opt/homebrew/Cellar/arm-none-eabi-gcc@8/8.5.0_2/lib/arm-none-eabi-gcc/8/gcc/arm-none-eabi/8.5.0/../../../../../../arm-none-eabi/lib/thumb/v6-m/nofp/libg_nano.a(lib_a-memchr-stub.o)
                0x10000f0c                memchr
 .text          0x10000f8c       0xa8 /opt/homebrew/Cellar/arm-none-eabi-gcc@8/8.5.0_2/lib/arm-none-eabi-gcc/8/gcc/arm-none-eabi/8.5.0/../../../../../../arm-none-eabi/lib/thumb/v6-m/nofp/libg_nano.a(lib_a-memset.o)
                0x10000f8c                memset
 .text          0x10001034       0x50 /opt/homebrew/Cellar/arm-none-eabi-gcc@8/8.5.0_2/lib/arm-none-eabi-gcc/8/gcc/arm-none-eabi/8.5.0/../../../../../../arm-none-eabi/lib/thumb/v6-m/nofp/libg_nano.a(lib_a-memcmp.o)
                0x10001034                memcmp
 .text          0x10001084       0x68 /opt/homebrew/Cellar/arm-none-eabi-gcc@8/8.5.0_2/lib/arm-none-eabi-gcc/8/gcc/arm-none-eabi/8.5.0/../../../../../../arm-none-eabi/lib/thumb/v6-m/nofp/libg_nano.a(lib_a-strlen-stub.o)
                0x10001084                strlen
 *(.text.*)
 .text.chSysHalt
                0x100010ec       0x24 /var/folders/tr/p8fgs8cd4pn1v7l1rzxd4yfr0000gn/T//ccLV2jr4.ltrans0.ltrans.o
 .text.waiting_buffer_typed.isra.2.constprop.115
                0x10001110       0x40 /var/folders/tr/p8fgs8cd4pn1v7l1rzxd4yfr0000gn/T//ccLV2jr4.ltrans0.ltrans.o
 .text.crc8.constprop.104
                0x10001150       0x2c /var/folders/tr/p8fgs8cd4pn1v7l1rzxd4yfr0000gn/T//ccLV2jr4.ltrans0.ltrans.o
 .text.clock_configure.part.0.constprop.59
                0x1000117c       0xc4 /var/folders/tr/p8fgs8cd4pn1v7l1rzxd4yfr0000gn/T//ccLV2jr4.ltrans0.ltrans.o
 .text._usb_wakeup.constprop.6
                0x10001240       0x24 /var/folders/tr/p8fgs8cd4pn1v7l1rzxd4yfr0000gn/T//ccLV2jr4.ltrans0.ltrans.o
 .text.clocks_init
                0x10001264      0x198 /var/folders/tr/p8fgs8cd4pn1v7l1rzxd4yfr0000gn/T//ccLV2jr4.ltrans0.ltrans.o
 .text.usb_prepare_out_ep
                0x100013fc       0x90 /var/folders/tr/p8fgs8cd4pn1v7l1rzxd4yfr0000gn/T//ccLV2jr4.ltrans0.ltrans.o
 .text.usb_isochronous_buffer_size
                0x1000148c       0x44 /var/folders/tr/p8fgs8cd4pn1v7l1rzxd4yfr0000gn/T//ccLV2jr4.ltrans0.ltrans.o
 .text.hal_lld_peripheral_unreset.lto_priv.148
                0x100014d0       0x14 /var/folders/tr/p8fgs8cd4pn1v7l1rzxd4yfr0000gn/T//ccLV2jr4.ltrans0.ltrans.o
 .text.port_unlock.lto_priv.155
                0x100014e4       0x12 /var/folders/tr/p8fgs8cd4pn1v7l1rzxd4yfr0000gn/T//ccLV2jr4.ltrans0.ltrans.o
 .text.port_lock.lto_priv.176
                0x100014f6       0x16 /var/folders/tr/p8fgs8cd4pn1v7l1rzxd4yfr0000gn/T//ccLV2jr4.ltrans0.ltrans.o
 .text.i2c_lld_disableS
                0x1000150c       0x64 /var/folders/tr/p8fgs8cd4pn1v7l1rzxd4yfr0000gn/T//ccLV2jr4.ltrans0.ltrans.o
 .text.serve_interrupt
                0x10001570       0x28 /var/folders/tr/p8fgs8cd4pn1v7l1rzxd4yfr0000gn/T//ccLV2jr4.ltrans0.ltrans.o
 .text.usbStartReceiveI
                0x10001598       0x42 /var/folders/tr/p8fgs8cd4pn1v7l1rzxd4yfr0000gn/T//ccLV2jr4.ltrans0.ltrans.o
 *fill*         0x100015da        0x2 
 .text.set_address
                0x100015dc       0x30 /var/folders/tr/p8fgs8cd4pn1v7l1rzxd4yfr0000gn/T//ccLV2jr4.ltrans0.ltrans.o
 .text.obqPostFullBufferS
                0x1000160c       0x2a /var/folders/tr/p8fgs8cd4pn1v7l1rzxd4yfr0000gn/T//ccLV2jr4.ltrans0.ltrans.o
 .text.obqGetFullBufferI
                0x10001636       0x1c /var/folders/tr/p8fgs8cd4pn1v7l1rzxd4yfr0000gn/T//ccLV2jr4.ltrans0.ltrans.o
 .text.ibqReleaseEmptyBufferS
                0x10001652       0x28 /var/folders/tr/p8fgs8cd4pn1v7l1rzxd4yfr0000gn/T//ccLV2jr4.ltrans0.ltrans.o
 .text.ch_sch_prio_insert
                0x1000167a       0x1e /var/folders/tr/p8fgs8cd4pn1v7l1rzxd4yfr0000gn/T//ccLV2jr4.ltrans0.ltrans.o
 .text.__idle_thread
                0x10001698        0x4 /var/folders/tr/p8fgs8cd4pn1v7l1rzxd4yfr0000gn/T//ccLV2jr4.ltrans0.ltrans.o
 .text.__sch_ready_ahead
                0x1000169c       0x1c /var/folders/tr/p8fgs8cd4pn1v7l1rzxd4yfr0000gn/T//ccLV2jr4.ltrans0.ltrans.o
 .text.__sch_ready_behind
                0x100016b8       0x1c /var/folders/tr/p8fgs8cd4pn1v7l1rzxd4yfr0000gn/T//ccLV2jr4.ltrans0.ltrans.o
 .text.__sch_wakeup
                0x100016d4       0x42 /var/folders/tr/p8fgs8cd4pn1v7l1rzxd4yfr0000gn/T//ccLV2jr4.ltrans0.ltrans.o
 *fill*         0x10001716        0x2 
 .text.chSchReadyI
                0x10001718       0x2c /var/folders/tr/p8fgs8cd4pn1v7l1rzxd4yfr0000gn/T//ccLV2jr4.ltrans0.ltrans.o
 .text.chThdDequeueAllI.constprop.25
                0x10001744       0x1e /var/folders/tr/p8fgs8cd4pn1v7l1rzxd4yfr0000gn/T//ccLV2jr4.ltrans0.ltrans.o
 .text.chEvtBroadcastFlagsI
                0x10001762       0x4a /var/folders/tr/p8fgs8cd4pn1v7l1rzxd4yfr0000gn/T//ccLV2jr4.ltrans0.ltrans.o
 .text.vt_insert_first
                0x100017ac       0x78 /var/folders/tr/p8fgs8cd4pn1v7l1rzxd4yfr0000gn/T//ccLV2jr4.ltrans0.ltrans.o
 .text.vt_set_alarm
                0x10001824       0x4c /var/folders/tr/p8fgs8cd4pn1v7l1rzxd4yfr0000gn/T//ccLV2jr4.ltrans0.ltrans.o
 .text.chVTDoResetI
                0x10001870       0x80 /var/folders/tr/p8fgs8cd4pn1v7l1rzxd4yfr0000gn/T//ccLV2jr4.ltrans0.ltrans.o
 .text.ch_dlist_insert
                0x100018f0       0x2a /var/folders/tr/p8fgs8cd4pn1v7l1rzxd4yfr0000gn/T//ccLV2jr4.ltrans0.ltrans.o
 *fill*         0x1000191a        0x2 
 .text.chVTDoTickI
                0x1000191c       0xcc /var/folders/tr/p8fgs8cd4pn1v7l1rzxd4yfr0000gn/T//ccLV2jr4.ltrans0.ltrans.o
 .text.vt_enqueue
                0x100019e8       0x44 /var/folders/tr/p8fgs8cd4pn1v7l1rzxd4yfr0000gn/T//ccLV2jr4.ltrans0.ltrans.o
 .text.chVTSetI.constprop.31
                0x10001a2c       0x44 /var/folders/tr/p8fgs8cd4pn1v7l1rzxd4yfr0000gn/T//ccLV2jr4.ltrans0.ltrans.o
 .text.dummy_usb_cb
                0x10001a70        0x2 /var/folders/tr/p8fgs8cd4pn1v7l1rzxd4yfr0000gn/T//ccLV2jr4.ltrans0.ltrans.o
 .text.qmkusbInterruptTransmitted
                0x10001a72        0x2 /var/folders/tr/p8fgs8cd4pn1v7l1rzxd4yfr0000gn/T//ccLV2jr4.ltrans0.ltrans.o
 .text.qmkusb_start_receive
                0x10001a74       0x46 /var/folders/tr/p8fgs8cd4pn1v7l1rzxd4yfr0000gn/T//ccLV2jr4.ltrans0.ltrans.o
 .text.qmkusbDataReceived
                0x10001aba       0x68 /var/folders/tr/p8fgs8cd4pn1v7l1rzxd4yfr0000gn/T//ccLV2jr4.ltrans0.ltrans.o
 .text.ibnotify
                0x10001b22        0xa /var/folders/tr/p8fgs8cd4pn1v7l1rzxd4yfr0000gn/T//ccLV2jr4.ltrans0.ltrans.o
 .text.rgblight_effect_dummy
                0x10001b2c        0x2 /var/folders/tr/p8fgs8cd4pn1v7l1rzxd4yfr0000gn/T//ccLV2jr4.ltrans0.ltrans.o
 .text.send_mouse
                0x10001b2e        0x2 /var/folders/tr/p8fgs8cd4pn1v7l1rzxd4yfr0000gn/T//ccLV2jr4.ltrans0.ltrans.o
 .text.keyboard_leds
                0x10001b30        0xc /var/folders/tr/p8fgs8cd4pn1v7l1rzxd4yfr0000gn/T//ccLV2jr4.ltrans0.ltrans.o
 .text.usb_requests_hook_cb
                0x10001b3c      0x1dc /var/folders/tr/p8fgs8cd4pn1v7l1rzxd4yfr0000gn/T//ccLV2jr4.ltrans0.ltrans.o
 .text.set_led_transfer_cb
                0x10001d18       0x2c /var/folders/tr/p8fgs8cd4pn1v7l1rzxd4yfr0000gn/T//ccLV2jr4.ltrans0.ltrans.o
 .text.usb_event_queue_enqueue
                0x10001d44       0x30 /var/folders/tr/p8fgs8cd4pn1v7l1rzxd4yfr0000gn/T//ccLV2jr4.ltrans0.ltrans.o
 .text.usb_get_descriptor_cb
                0x10001d74       0x98 /var/folders/tr/p8fgs8cd4pn1v7l1rzxd4yfr0000gn/T//ccLV2jr4.ltrans0.ltrans.o
 .text.bootloader_jump
                0x10001e0c       0x1c /var/folders/tr/p8fgs8cd4pn1v7l1rzxd4yfr0000gn/T//ccLV2jr4.ltrans0.ltrans.o
 .text.timer_read32
                0x10001e28       0x7c /var/folders/tr/p8fgs8cd4pn1v7l1rzxd4yfr0000gn/T//ccLV2jr4.ltrans0.ltrans.o
 .text.del_key_from_report
                0x10001ea4       0x58 /var/folders/tr/p8fgs8cd4pn1v7l1rzxd4yfr0000gn/T//ccLV2jr4.ltrans0.ltrans.o
 .text.add_key_to_report
                0x10001efc       0x68 /var/folders/tr/p8fgs8cd4pn1v7l1rzxd4yfr0000gn/T//ccLV2jr4.ltrans0.ltrans.o
 .text.host_consumer_send
                0x10001f64       0x34 /var/folders/tr/p8fgs8cd4pn1v7l1rzxd4yfr0000gn/T//ccLV2jr4.ltrans0.ltrans.o
 .text.host_system_send
                0x10001f98       0x34 /var/folders/tr/p8fgs8cd4pn1v7l1rzxd4yfr0000gn/T//ccLV2jr4.ltrans0.ltrans.o
 .text.host_keyboard_leds
                0x10001fcc       0x20 /var/folders/tr/p8fgs8cd4pn1v7l1rzxd4yfr0000gn/T//ccLV2jr4.ltrans0.ltrans.o
 .text.ws2812_dma_callback
                0x10001fec       0x8c /var/folders/tr/p8fgs8cd4pn1v7l1rzxd4yfr0000gn/T//ccLV2jr4.ltrans0.ltrans.o
 .text.handleKeycodeRGB
                0x10002078        0xe /var/folders/tr/p8fgs8cd4pn1v7l1rzxd4yfr0000gn/T//ccLV2jr4.ltrans0.ltrans.o
 *fill*         0x10002086        0x2 
 .text.rgblight_timer_init
                0x10002088       0x14 /var/folders/tr/p8fgs8cd4pn1v7l1rzxd4yfr0000gn/T//ccLV2jr4.ltrans0.ltrans.o
 .text.rgblight_set
                0x1000209c       0x4c /var/folders/tr/p8fgs8cd4pn1v7l1rzxd4yfr0000gn/T//ccLV2jr4.ltrans0.ltrans.o
 .text.rgblight_disable_noeeprom
                0x100020e8       0x28 /var/folders/tr/p8fgs8cd4pn1v7l1rzxd4yfr0000gn/T//ccLV2jr4.ltrans0.ltrans.o
 .text.rgblight_check_config
                0x10002110       0x30 /var/folders/tr/p8fgs8cd4pn1v7l1rzxd4yfr0000gn/T//ccLV2jr4.ltrans0.ltrans.o
 .text.sethsv_raw
                0x10002140       0xa0 /var/folders/tr/p8fgs8cd4pn1v7l1rzxd4yfr0000gn/T//ccLV2jr4.ltrans0.ltrans.o
 .text.rgblight_sethsv_noeeprom_old.part.6
                0x100021e0       0x54 /var/folders/tr/p8fgs8cd4pn1v7l1rzxd4yfr0000gn/T//ccLV2jr4.ltrans0.ltrans.o
 .text.rgblight_effect_breathing
                0x10002234       0x2c /var/folders/tr/p8fgs8cd4pn1v7l1rzxd4yfr0000gn/T//ccLV2jr4.ltrans0.ltrans.o
 .text.rgblight_effect_rainbow_mood
                0x10002260       0x24 /var/folders/tr/p8fgs8cd4pn1v7l1rzxd4yfr0000gn/T//ccLV2jr4.ltrans0.ltrans.o
 .text.rgblight_effect_christmas
                0x10002284       0xac /var/folders/tr/p8fgs8cd4pn1v7l1rzxd4yfr0000gn/T//ccLV2jr4.ltrans0.ltrans.o
 .text.rgblight_effect_knight
                0x10002330       0xe8 /var/folders/tr/p8fgs8cd4pn1v7l1rzxd4yfr0000gn/T//ccLV2jr4.ltrans0.ltrans.o
 .text.rgblight_effect_snake
                0x10002418      0x100 /var/folders/tr/p8fgs8cd4pn1v7l1rzxd4yfr0000gn/T//ccLV2jr4.ltrans0.ltrans.o
 .text.rgblight_effect_rainbow_swirl
                0x10002518       0x70 /var/folders/tr/p8fgs8cd4pn1v7l1rzxd4yfr0000gn/T//ccLV2jr4.ltrans0.ltrans.o
 .text.backing_store_read_bulk
                0x10002588       0x20 /var/folders/tr/p8fgs8cd4pn1v7l1rzxd4yfr0000gn/T//ccLV2jr4.ltrans0.ltrans.o
 .text.backing_store_erase
                0x100025a8       0x20 /var/folders/tr/p8fgs8cd4pn1v7l1rzxd4yfr0000gn/T//ccLV2jr4.ltrans0.ltrans.o
 .text.wear_leveling_lock
                0x100025c8       0x1c /var/folders/tr/p8fgs8cd4pn1v7l1rzxd4yfr0000gn/T//ccLV2jr4.ltrans0.ltrans.o
 .text.wear_leveling_unlock
                0x100025e4       0x1c /var/folders/tr/p8fgs8cd4pn1v7l1rzxd4yfr0000gn/T//ccLV2jr4.ltrans0.ltrans.o
 .text.wear_leveling_write_consolidated
                0x10002600       0xf4 /var/folders/tr/p8fgs8cd4pn1v7l1rzxd4yfr0000gn/T//ccLV2jr4.ltrans0.ltrans.o
 .text.wear_leveling_consolidate_if_needed
                0x100026f4       0x34 /var/folders/tr/p8fgs8cd4pn1v7l1rzxd4yfr0000gn/T//ccLV2jr4.ltrans0.ltrans.o
 .text.wear_leveling_append_raw
                0x10002728       0x40 /var/folders/tr/p8fgs8cd4pn1v7l1rzxd4yfr0000gn/T//ccLV2jr4.ltrans0.ltrans.o
 .text.sendchar
                0x10002768        0x4 /var/folders/tr/p8fgs8cd4pn1v7l1rzxd4yfr0000gn/T//ccLV2jr4.ltrans0.ltrans.o
 .text.setPinInputHigh_atomic
                0x1000276c       0x34 /var/folders/tr/p8fgs8cd4pn1v7l1rzxd4yfr0000gn/T//ccLV2jr4.ltrans0.ltrans.o
 .text.null_sendchar_func
                0x100027a0        0x4 /var/folders/tr/p8fgs8cd4pn1v7l1rzxd4yfr0000gn/T//ccLV2jr4.ltrans0.ltrans.o
 .text.sync_timer_read32
                0x100027a4       0x24 /var/folders/tr/p8fgs8cd4pn1v7l1rzxd4yfr0000gn/T//ccLV2jr4.ltrans0.ltrans.o
 .text.sync_timer_read
                0x100027c8       0x1c /var/folders/tr/p8fgs8cd4pn1v7l1rzxd4yfr0000gn/T//ccLV2jr4.ltrans0.ltrans.o
 .text.mod_config
                0x100027e4       0x98 /var/folders/tr/p8fgs8cd4pn1v7l1rzxd4yfr0000gn/T//ccLV2jr4.ltrans0.ltrans.o
 .text.keycode_config
                0x1000287c      0x108 /var/folders/tr/p8fgs8cd4pn1v7l1rzxd4yfr0000gn/T//ccLV2jr4.ltrans0.ltrans.o
 .text.action_for_keycode
                0x10002984      0x1d8 /var/folders/tr/p8fgs8cd4pn1v7l1rzxd4yfr0000gn/T//ccLV2jr4.ltrans0.ltrans.o
 .text.del_mods
                0x10002b5c       0x10 /var/folders/tr/p8fgs8cd4pn1v7l1rzxd4yfr0000gn/T//ccLV2jr4.ltrans0.ltrans.o
 .text.get_mods_for_report
                0x10002b6c       0x70 /var/folders/tr/p8fgs8cd4pn1v7l1rzxd4yfr0000gn/T//ccLV2jr4.ltrans0.ltrans.o
 .text.debug_waiting_buffer
                0x10002bdc       0x20 /var/folders/tr/p8fgs8cd4pn1v7l1rzxd4yfr0000gn/T//ccLV2jr4.ltrans0.ltrans.o
 .text.update_tri_layer
                0x10002bfc       0x34 /var/folders/tr/p8fgs8cd4pn1v7l1rzxd4yfr0000gn/T//ccLV2jr4.ltrans0.ltrans.o
 .text.layer_off
                0x10002c30       0x14 /var/folders/tr/p8fgs8cd4pn1v7l1rzxd4yfr0000gn/T//ccLV2jr4.ltrans0.ltrans.o
 .text.clear_oneshot_layer_state
                0x10002c44       0x30 /var/folders/tr/p8fgs8cd4pn1v7l1rzxd4yfr0000gn/T//ccLV2jr4.ltrans0.ltrans.o
 .text.layer_on
                0x10002c74       0x14 /var/folders/tr/p8fgs8cd4pn1v7l1rzxd4yfr0000gn/T//ccLV2jr4.ltrans0.ltrans.o
 .text.usbInitEndpointI
                0x10002c88      0x154 /var/folders/tr/p8fgs8cd4pn1v7l1rzxd4yfr0000gn/T//ccLV2jr4.ltrans0.ltrans.o
 .text.usb_event_cb
                0x10002ddc      0x148 /var/folders/tr/p8fgs8cd4pn1v7l1rzxd4yfr0000gn/T//ccLV2jr4.ltrans0.ltrans.o
 .text.clear_keys_from_report
                0x10002f24       0x38 /var/folders/tr/p8fgs8cd4pn1v7l1rzxd4yfr0000gn/T//ccLV2jr4.ltrans0.ltrans.o
 .text.wear_leveling_clear_cache
                0x10002f5c       0x20 /var/folders/tr/p8fgs8cd4pn1v7l1rzxd4yfr0000gn/T//ccLV2jr4.ltrans0.ltrans.o
 .text.wear_leveling_erase
                0x10002f7c       0x2e /var/folders/tr/p8fgs8cd4pn1v7l1rzxd4yfr0000gn/T//ccLV2jr4.ltrans0.ltrans.o
 .text.usb_prepare_in_ep_buffer
                0x10002faa       0x70 /var/folders/tr/p8fgs8cd4pn1v7l1rzxd4yfr0000gn/T//ccLV2jr4.ltrans0.ltrans.o
 *fill*         0x1000301a        0x2 
 .text.usb_prepare_in_ep
                0x1000301c       0x8c /var/folders/tr/p8fgs8cd4pn1v7l1rzxd4yfr0000gn/T//ccLV2jr4.ltrans0.ltrans.o
 .text.usbStartTransmitI
                0x100030a8       0x28 /var/folders/tr/p8fgs8cd4pn1v7l1rzxd4yfr0000gn/T//ccLV2jr4.ltrans0.ltrans.o
 .text._usb_ep0out
                0x100030d0       0xa4 /var/folders/tr/p8fgs8cd4pn1v7l1rzxd4yfr0000gn/T//ccLV2jr4.ltrans0.ltrans.o
 .text._usb_ep0in
                0x10003174       0xd0 /var/folders/tr/p8fgs8cd4pn1v7l1rzxd4yfr0000gn/T//ccLV2jr4.ltrans0.ltrans.o
 .text.qmkusbDataTransmitted
                0x10003244       0xa2 /var/folders/tr/p8fgs8cd4pn1v7l1rzxd4yfr0000gn/T//ccLV2jr4.ltrans0.ltrans.o
 .text.obnotify
                0x100032e6       0x3c /var/folders/tr/p8fgs8cd4pn1v7l1rzxd4yfr0000gn/T//ccLV2jr4.ltrans0.ltrans.o
 *fill*         0x10003322        0x2 
 .text.keyboard_idle_timer_cb
                0x10003324       0x80 /var/folders/tr/p8fgs8cd4pn1v7l1rzxd4yfr0000gn/T//ccLV2jr4.ltrans0.ltrans.o
 .text.usb_sof_cb
                0x100033a4       0xac /var/folders/tr/p8fgs8cd4pn1v7l1rzxd4yfr0000gn/T//ccLV2jr4.ltrans0.ltrans.o
 .text.wear_leveling_read
                0x10003450       0x24 /var/folders/tr/p8fgs8cd4pn1v7l1rzxd4yfr0000gn/T//ccLV2jr4.ltrans0.ltrans.o
 .text.eeprom_read_byte
                0x10003474       0x16 /var/folders/tr/p8fgs8cd4pn1v7l1rzxd4yfr0000gn/T//ccLV2jr4.ltrans0.ltrans.o
 .text.via_get_layout_options.part.0
                0x1000348a        0xa /var/folders/tr/p8fgs8cd4pn1v7l1rzxd4yfr0000gn/T//ccLV2jr4.ltrans0.ltrans.o
 .text.via_eeprom_is_valid
                0x10003494       0x28 /var/folders/tr/p8fgs8cd4pn1v7l1rzxd4yfr0000gn/T//ccLV2jr4.ltrans0.ltrans.o
 .text.dynamic_keymap_get_keycode.part.0
                0x100034bc       0x2a /var/folders/tr/p8fgs8cd4pn1v7l1rzxd4yfr0000gn/T//ccLV2jr4.ltrans0.ltrans.o
 .text.eeconfig_read_rgblight
                0x100034e6       0x1e /var/folders/tr/p8fgs8cd4pn1v7l1rzxd4yfr0000gn/T//ccLV2jr4.ltrans0.ltrans.o
 .text.usb_lld_reset.constprop.87
                0x10003504       0x74 /var/folders/tr/p8fgs8cd4pn1v7l1rzxd4yfr0000gn/T//ccLV2jr4.ltrans0.ltrans.o
 .text.oled_write_char.constprop.145
                0x10003578       0xb8 /var/folders/tr/p8fgs8cd4pn1v7l1rzxd4yfr0000gn/T//ccLV2jr4.ltrans0.ltrans.o
 .text.oled_advance_page
                0x10003630       0x68 /var/folders/tr/p8fgs8cd4pn1v7l1rzxd4yfr0000gn/T//ccLV2jr4.ltrans0.ltrans.o
 .text.wear_leveling_write
                0x10003698      0x1a0 /var/folders/tr/p8fgs8cd4pn1v7l1rzxd4yfr0000gn/T//ccLV2jr4.ltrans0.ltrans.o
 .text.eeprom_update_dword
                0x10003838       0x26 /var/folders/tr/p8fgs8cd4pn1v7l1rzxd4yfr0000gn/T//ccLV2jr4.ltrans0.ltrans.o
 .text.eeprom_update_word
                0x1000385e       0x2a /var/folders/tr/p8fgs8cd4pn1v7l1rzxd4yfr0000gn/T//ccLV2jr4.ltrans0.ltrans.o
 .text.oneshot_set
                0x10003888       0x30 /var/folders/tr/p8fgs8cd4pn1v7l1rzxd4yfr0000gn/T//ccLV2jr4.ltrans0.ltrans.o
 .text.eeprom_update_byte
                0x100038b8       0x1e /var/folders/tr/p8fgs8cd4pn1v7l1rzxd4yfr0000gn/T//ccLV2jr4.ltrans0.ltrans.o
 .text.via_eeprom_set_valid
                0x100038d6       0x2e /var/folders/tr/p8fgs8cd4pn1v7l1rzxd4yfr0000gn/T//ccLV2jr4.ltrans0.ltrans.o
 .text.dynamic_keymap_macro_reset
                0x10003904       0x1a /var/folders/tr/p8fgs8cd4pn1v7l1rzxd4yfr0000gn/T//ccLV2jr4.ltrans0.ltrans.o
 *fill*         0x1000391e        0x2 
 .text.dynamic_keymap_reset
                0x10003920       0x64 /var/folders/tr/p8fgs8cd4pn1v7l1rzxd4yfr0000gn/T//ccLV2jr4.ltrans0.ltrans.o
 .text.eeconfig_init_via
                0x10003984       0x20 /var/folders/tr/p8fgs8cd4pn1v7l1rzxd4yfr0000gn/T//ccLV2jr4.ltrans0.ltrans.o
 .text.eeconfig_update_rgblight
                0x100039a4       0x1c /var/folders/tr/p8fgs8cd4pn1v7l1rzxd4yfr0000gn/T//ccLV2jr4.ltrans0.ltrans.o
 .text.rgblight_sethsv_eeprom_helper
                0x100039c0      0x138 /var/folders/tr/p8fgs8cd4pn1v7l1rzxd4yfr0000gn/T//ccLV2jr4.ltrans0.ltrans.o
 .text.rgblight_decrease_val
                0x10003af8       0x24 /var/folders/tr/p8fgs8cd4pn1v7l1rzxd4yfr0000gn/T//ccLV2jr4.ltrans0.ltrans.o
 .text.rgblight_increase_val
                0x10003b1c       0x24 /var/folders/tr/p8fgs8cd4pn1v7l1rzxd4yfr0000gn/T//ccLV2jr4.ltrans0.ltrans.o
 .text.rgblight_decrease_sat
                0x10003b40       0x24 /var/folders/tr/p8fgs8cd4pn1v7l1rzxd4yfr0000gn/T//ccLV2jr4.ltrans0.ltrans.o
 .text.rgblight_increase_sat
                0x10003b64       0x24 /var/folders/tr/p8fgs8cd4pn1v7l1rzxd4yfr0000gn/T//ccLV2jr4.ltrans0.ltrans.o
 .text.rgblight_decrease_hue
                0x10003b88       0x1c /var/folders/tr/p8fgs8cd4pn1v7l1rzxd4yfr0000gn/T//ccLV2jr4.ltrans0.ltrans.o
 .text.rgblight_increase_hue
                0x10003ba4       0x1c /var/folders/tr/p8fgs8cd4pn1v7l1rzxd4yfr0000gn/T//ccLV2jr4.ltrans0.ltrans.o
 .text.rgblight_increase_speed
                0x10003bc0       0x1c /var/folders/tr/p8fgs8cd4pn1v7l1rzxd4yfr0000gn/T//ccLV2jr4.ltrans0.ltrans.o
 .text.rgblight_decrease_speed
                0x10003bdc       0x1c /var/folders/tr/p8fgs8cd4pn1v7l1rzxd4yfr0000gn/T//ccLV2jr4.ltrans0.ltrans.o
 .text.send_keyboard_report
                0x10003bf8       0x94 /var/folders/tr/p8fgs8cd4pn1v7l1rzxd4yfr0000gn/T//ccLV2jr4.ltrans0.ltrans.o
 .text.unregister_mods
                0x10003c8c       0x10 /var/folders/tr/p8fgs8cd4pn1v7l1rzxd4yfr0000gn/T//ccLV2jr4.ltrans0.ltrans.o
 .text.register_mods
                0x10003c9c       0x18 /var/folders/tr/p8fgs8cd4pn1v7l1rzxd4yfr0000gn/T//ccLV2jr4.ltrans0.ltrans.o
 .text.unregister_code
                0x10003cb4       0x54 /var/folders/tr/p8fgs8cd4pn1v7l1rzxd4yfr0000gn/T//ccLV2jr4.ltrans0.ltrans.o
 .text.register_code
                0x10003d08       0xbc /var/folders/tr/p8fgs8cd4pn1v7l1rzxd4yfr0000gn/T//ccLV2jr4.ltrans0.ltrans.o
 .text.oled_write.constprop.144
                0x10003dc4       0x1a /var/folders/tr/p8fgs8cd4pn1v7l1rzxd4yfr0000gn/T//ccLV2jr4.ltrans0.ltrans.o
 .text.oled_write_ln.constprop.143
                0x10003dde        0xe /var/folders/tr/p8fgs8cd4pn1v7l1rzxd4yfr0000gn/T//ccLV2jr4.ltrans0.ltrans.o
 .text.chSchGoSleepS
                0x10003dec       0x2c /var/folders/tr/p8fgs8cd4pn1v7l1rzxd4yfr0000gn/T//ccLV2jr4.ltrans0.ltrans.o
 .text.chSchGoSleepTimeoutS
                0x10003e18       0x60 /var/folders/tr/p8fgs8cd4pn1v7l1rzxd4yfr0000gn/T//ccLV2jr4.ltrans0.ltrans.o
 .text.chThdEnqueueTimeoutS
                0x10003e78       0x34 /var/folders/tr/p8fgs8cd4pn1v7l1rzxd4yfr0000gn/T//ccLV2jr4.ltrans0.ltrans.o
 .text.obqGetEmptyBufferTimeoutS
                0x10003eac       0x36 /var/folders/tr/p8fgs8cd4pn1v7l1rzxd4yfr0000gn/T//ccLV2jr4.ltrans0.ltrans.o
 .text.obqWriteTimeout
                0x10003ee2       0x86 /var/folders/tr/p8fgs8cd4pn1v7l1rzxd4yfr0000gn/T//ccLV2jr4.ltrans0.ltrans.o
 .text._writet  0x10003f68        0xa /var/folders/tr/p8fgs8cd4pn1v7l1rzxd4yfr0000gn/T//ccLV2jr4.ltrans0.ltrans.o
 .text._write   0x10003f72        0xe /var/folders/tr/p8fgs8cd4pn1v7l1rzxd4yfr0000gn/T//ccLV2jr4.ltrans0.ltrans.o
 .text.obqPutTimeout
                0x10003f80       0x48 /var/folders/tr/p8fgs8cd4pn1v7l1rzxd4yfr0000gn/T//ccLV2jr4.ltrans0.ltrans.o
 .text._putt    0x10003fc8        0xa /var/folders/tr/p8fgs8cd4pn1v7l1rzxd4yfr0000gn/T//ccLV2jr4.ltrans0.ltrans.o
 .text._put     0x10003fd2        0xe /var/folders/tr/p8fgs8cd4pn1v7l1rzxd4yfr0000gn/T//ccLV2jr4.ltrans0.ltrans.o
 .text.ibqGetFullBufferTimeoutS
                0x10003fe0       0x36 /var/folders/tr/p8fgs8cd4pn1v7l1rzxd4yfr0000gn/T//ccLV2jr4.ltrans0.ltrans.o
 .text.ibqReadTimeout
                0x10004016       0x82 /var/folders/tr/p8fgs8cd4pn1v7l1rzxd4yfr0000gn/T//ccLV2jr4.ltrans0.ltrans.o
 .text._readt   0x10004098        0xa /var/folders/tr/p8fgs8cd4pn1v7l1rzxd4yfr0000gn/T//ccLV2jr4.ltrans0.ltrans.o
 .text._read    0x100040a2        0xe /var/folders/tr/p8fgs8cd4pn1v7l1rzxd4yfr0000gn/T//ccLV2jr4.ltrans0.ltrans.o
 .text.ibqGetTimeout
                0x100040b0       0x3a /var/folders/tr/p8fgs8cd4pn1v7l1rzxd4yfr0000gn/T//ccLV2jr4.ltrans0.ltrans.o
 .text._gett    0x100040ea        0xa /var/folders/tr/p8fgs8cd4pn1v7l1rzxd4yfr0000gn/T//ccLV2jr4.ltrans0.ltrans.o
 .text._get     0x100040f4        0xe /var/folders/tr/p8fgs8cd4pn1v7l1rzxd4yfr0000gn/T//ccLV2jr4.ltrans0.ltrans.o
 .text.oled_send_cmd
                0x10004102       0x16 /var/folders/tr/p8fgs8cd4pn1v7l1rzxd4yfr0000gn/T//ccLV2jr4.ltrans0.ltrans.o
 .text.oled_off
                0x10004118       0x3c /var/folders/tr/p8fgs8cd4pn1v7l1rzxd4yfr0000gn/T//ccLV2jr4.ltrans0.ltrans.o
 .text.oled_on  0x10004154       0x4c /var/folders/tr/p8fgs8cd4pn1v7l1rzxd4yfr0000gn/T//ccLV2jr4.ltrans0.ltrans.o
 .text.rgblight_timer_enable
                0x100041a0       0x3c /var/folders/tr/p8fgs8cd4pn1v7l1rzxd4yfr0000gn/T//ccLV2jr4.ltrans0.ltrans.o
 .text.rgblight_mode_eeprom_helper
                0x100041dc       0x80 /var/folders/tr/p8fgs8cd4pn1v7l1rzxd4yfr0000gn/T//ccLV2jr4.ltrans0.ltrans.o
 .text.rgblight_step_reverse
                0x1000425c       0x20 /var/folders/tr/p8fgs8cd4pn1v7l1rzxd4yfr0000gn/T//ccLV2jr4.ltrans0.ltrans.o
 .text.rgblight_step
                0x1000427c       0x1c /var/folders/tr/p8fgs8cd4pn1v7l1rzxd4yfr0000gn/T//ccLV2jr4.ltrans0.ltrans.o
 .text.handleKeycodeRGBMode
                0x10004298       0x28 /var/folders/tr/p8fgs8cd4pn1v7l1rzxd4yfr0000gn/T//ccLV2jr4.ltrans0.ltrans.o
 .text.transport_execute_transaction
                0x100042c0       0x6c /var/folders/tr/p8fgs8cd4pn1v7l1rzxd4yfr0000gn/T//ccLV2jr4.ltrans0.ltrans.o
 .text.rgblight_handlers_master
                0x1000432c       0x64 /var/folders/tr/p8fgs8cd4pn1v7l1rzxd4yfr0000gn/T//ccLV2jr4.ltrans0.ltrans.o
 .text.sync_timer_handlers_master
                0x10004390       0x40 /var/folders/tr/p8fgs8cd4pn1v7l1rzxd4yfr0000gn/T//ccLV2jr4.ltrans0.ltrans.o
 .text.master_matrix_handlers_master
                0x100043d0       0x48 /var/folders/tr/p8fgs8cd4pn1v7l1rzxd4yfr0000gn/T//ccLV2jr4.ltrans0.ltrans.o
 .text.slave_matrix_handlers_master
                0x10004418       0xa8 /var/folders/tr/p8fgs8cd4pn1v7l1rzxd4yfr0000gn/T//ccLV2jr4.ltrans0.ltrans.o
 .text.read_source_layers_cache_impl.constprop.136
                0x100044c0       0x30 /var/folders/tr/p8fgs8cd4pn1v7l1rzxd4yfr0000gn/T//ccLV2jr4.ltrans0.ltrans.o
                0x100044c0                read_source_layers_cache_impl.constprop.136
 .text.update_source_layers_cache_impl.constprop.135
                0x100044f0       0x38 /var/folders/tr/p8fgs8cd4pn1v7l1rzxd4yfr0000gn/T//ccLV2jr4.ltrans0.ltrans.o
                0x100044f0                update_source_layers_cache_impl.constprop.135
 .text.gpio_set_drive_strength
                0x10004528       0x20 /var/folders/tr/p8fgs8cd4pn1v7l1rzxd4yfr0000gn/T//ccLV2jr4.ltrans0.ltrans.o
                0x10004528                gpio_set_drive_strength
 .text.pio_sm_init
                0x10004548       0x84 /var/folders/tr/p8fgs8cd4pn1v7l1rzxd4yfr0000gn/T//ccLV2jr4.ltrans0.ltrans.o
                0x10004548                pio_sm_init
 .text.pio_sm_set_consecutive_pindirs
                0x100045cc       0x90 /var/folders/tr/p8fgs8cd4pn1v7l1rzxd4yfr0000gn/T//ccLV2jr4.ltrans0.ltrans.o
                0x100045cc                pio_sm_set_consecutive_pindirs
 .text.pio_sm_set_pins_with_mask
                0x1000465c       0x7a /var/folders/tr/p8fgs8cd4pn1v7l1rzxd4yfr0000gn/T//ccLV2jr4.ltrans0.ltrans.o
                0x1000465c                pio_sm_set_pins_with_mask
 *fill*         0x100046d6        0x2 
 .text.pio_add_program
                0x100046d8       0xd8 /var/folders/tr/p8fgs8cd4pn1v7l1rzxd4yfr0000gn/T//ccLV2jr4.ltrans0.ltrans.o
                0x100046d8                pio_add_program
 .text.pio_claim_unused_sm
                0x100047b0       0x84 /var/folders/tr/p8fgs8cd4pn1v7l1rzxd4yfr0000gn/T//ccLV2jr4.ltrans0.ltrans.o
                0x100047b0                pio_claim_unused_sm
 .text.clock_get_hz
                0x10004834        0xc /var/folders/tr/p8fgs8cd4pn1v7l1rzxd4yfr0000gn/T//ccLV2jr4.ltrans0.ltrans.o
                0x10004834                clock_get_hz
 .text.split_shared_memory_lock
                0x10004840       0x80 /var/folders/tr/p8fgs8cd4pn1v7l1rzxd4yfr0000gn/T//ccLV2jr4.ltrans0.ltrans.o
                0x10004840                split_shared_memory_lock
 .text._fini    0x100048c0        0x2 /var/folders/tr/p8fgs8cd4pn1v7l1rzxd4yfr0000gn/T//ccLV2jr4.ltrans0.ltrans.o
                0x100048c0                _fini
 .text.led_init_ports
                0x100048c2        0x2 /var/folders/tr/p8fgs8cd4pn1v7l1rzxd4yfr0000gn/T//ccLV2jr4.ltrans0.ltrans.o
                0x100048c2                __cpu_init
 .text.nvicEnableVector
                0x100048c4       0x40 /var/folders/tr/p8fgs8cd4pn1v7l1rzxd4yfr0000gn/T//ccLV2jr4.ltrans0.ltrans.o
                0x100048c4                nvicEnableVector
 .text.usb_lld_start.part.3
                0x10004904       0x80 /var/folders/tr/p8fgs8cd4pn1v7l1rzxd4yfr0000gn/T//ccLV2jr4.ltrans0.ltrans.o
 .text.i2cStop  0x10004984       0xc4 /var/folders/tr/p8fgs8cd4pn1v7l1rzxd4yfr0000gn/T//ccLV2jr4.ltrans0.ltrans.o
                0x10004984                i2cStop
 .text.i2cStart
                0x10004a48       0xf0 /var/folders/tr/p8fgs8cd4pn1v7l1rzxd4yfr0000gn/T//ccLV2jr4.ltrans0.ltrans.o
                0x10004a48                i2cStart
 .text.__port_spinlock_release
                0x10004b38       0x10 /var/folders/tr/p8fgs8cd4pn1v7l1rzxd4yfr0000gn/T//ccLV2jr4.ltrans0.ltrans.o
                0x10004b38                __port_spinlock_release
 .text.__port_irq_epilogue
                0x10004b48       0x4c /var/folders/tr/p8fgs8cd4pn1v7l1rzxd4yfr0000gn/T//ccLV2jr4.ltrans0.ltrans.o
                0x10004b48                __port_irq_epilogue
 .text.Vector4C
                0x10004b94       0x28 /var/folders/tr/p8fgs8cd4pn1v7l1rzxd4yfr0000gn/T//ccLV2jr4.ltrans0.ltrans.o
                0x10004b94                Vector4C
 .text.Vector48
                0x10004bbc       0x28 /var/folders/tr/p8fgs8cd4pn1v7l1rzxd4yfr0000gn/T//ccLV2jr4.ltrans0.ltrans.o
                0x10004bbc                Vector48
 .text.Vector44
                0x10004be4       0x24 /var/folders/tr/p8fgs8cd4pn1v7l1rzxd4yfr0000gn/T//ccLV2jr4.ltrans0.ltrans.o
                0x10004be4                Vector44
 .text.Vector40
                0x10004c08       0x24 /var/folders/tr/p8fgs8cd4pn1v7l1rzxd4yfr0000gn/T//ccLV2jr4.ltrans0.ltrans.o
                0x10004c08                Vector40
 .text.Vector70
                0x10004c2c       0x34 /var/folders/tr/p8fgs8cd4pn1v7l1rzxd4yfr0000gn/T//ccLV2jr4.ltrans0.ltrans.o
                0x10004c2c                Vector70
 .text.Vector6C
                0x10004c60       0x34 /var/folders/tr/p8fgs8cd4pn1v7l1rzxd4yfr0000gn/T//ccLV2jr4.ltrans0.ltrans.o
                0x10004c60                Vector6C
 .text.Vector80
                0x10004c94       0x3c /var/folders/tr/p8fgs8cd4pn1v7l1rzxd4yfr0000gn/T//ccLV2jr4.ltrans0.ltrans.o
                0x10004c94                Vector80
 .text.Vector7C
                0x10004cd0       0x20 /var/folders/tr/p8fgs8cd4pn1v7l1rzxd4yfr0000gn/T//ccLV2jr4.ltrans0.ltrans.o
                0x10004cd0                Vector7C
 .text.NMI_Handler
                0x10004cf0       0x12 /var/folders/tr/p8fgs8cd4pn1v7l1rzxd4yfr0000gn/T//ccLV2jr4.ltrans0.ltrans.o
                0x10004cf0                NMI_Handler
 .text.chThdResumeI
                0x10004d02       0x16 /var/folders/tr/p8fgs8cd4pn1v7l1rzxd4yfr0000gn/T//ccLV2jr4.ltrans0.ltrans.o
                0x10004d02                chThdResumeI
 .text.Vector54
                0x10004d18      0x2ac /var/folders/tr/p8fgs8cd4pn1v7l1rzxd4yfr0000gn/T//ccLV2jr4.ltrans0.ltrans.o
                0x10004d18                Vector54
 .text.Vector98
                0x10004fc4      0x190 /var/folders/tr/p8fgs8cd4pn1v7l1rzxd4yfr0000gn/T//ccLV2jr4.ltrans0.ltrans.o
                0x10004fc4                Vector98
 .text.VectorA0
                0x10005154      0x15c /var/folders/tr/p8fgs8cd4pn1v7l1rzxd4yfr0000gn/T//ccLV2jr4.ltrans0.ltrans.o
                0x10005154                VectorA0
 .text._usb_ep0setup
                0x100052b0      0x3d0 /var/folders/tr/p8fgs8cd4pn1v7l1rzxd4yfr0000gn/T//ccLV2jr4.ltrans0.ltrans.o
 .text.chThdSuspendTimeoutS
                0x10005680       0x2c /var/folders/tr/p8fgs8cd4pn1v7l1rzxd4yfr0000gn/T//ccLV2jr4.ltrans0.ltrans.o
                0x10005680                chThdSuspendTimeoutS
 .text.i2cMasterTransmitTimeout
                0x100056ac       0xbc /var/folders/tr/p8fgs8cd4pn1v7l1rzxd4yfr0000gn/T//ccLV2jr4.ltrans0.ltrans.o
                0x100056ac                i2cMasterTransmitTimeout
 .text.send_report
                0x10005768       0x50 /var/folders/tr/p8fgs8cd4pn1v7l1rzxd4yfr0000gn/T//ccLV2jr4.ltrans0.ltrans.o
 .text.send_extra
                0x100057b8        0xe /var/folders/tr/p8fgs8cd4pn1v7l1rzxd4yfr0000gn/T//ccLV2jr4.ltrans0.ltrans.o
 .text.send_nkro
                0x100057c6        0xe /var/folders/tr/p8fgs8cd4pn1v7l1rzxd4yfr0000gn/T//ccLV2jr4.ltrans0.ltrans.o
 .text.send_keyboard
                0x100057d4       0x20 /var/folders/tr/p8fgs8cd4pn1v7l1rzxd4yfr0000gn/T//ccLV2jr4.ltrans0.ltrans.o
 .text.chThdSleep
                0x100057f4       0x16 /var/folders/tr/p8fgs8cd4pn1v7l1rzxd4yfr0000gn/T//ccLV2jr4.ltrans0.ltrans.o
                0x100057f4                chThdSleep
 *fill*         0x1000580a        0x2 
 .text.tap_code_delay
                0x1000580c       0x44 /var/folders/tr/p8fgs8cd4pn1v7l1rzxd4yfr0000gn/T//ccLV2jr4.ltrans0.ltrans.o
 .text.perform_space_cadet.constprop.124
                0x10005850       0xa4 /var/folders/tr/p8fgs8cd4pn1v7l1rzxd4yfr0000gn/T//ccLV2jr4.ltrans0.ltrans.o
 .text.chThdExit
                0x100058f4       0x28 /var/folders/tr/p8fgs8cd4pn1v7l1rzxd4yfr0000gn/T//ccLV2jr4.ltrans0.ltrans.o
                0x100058f4                chThdExit
 .text.chThdCreateStatic
                0x1000591c       0x8c /var/folders/tr/p8fgs8cd4pn1v7l1rzxd4yfr0000gn/T//ccLV2jr4.ltrans0.ltrans.o
                0x1000591c                chThdCreateStatic
 .text.__sch_reschedule_ahead
                0x100059a8       0x34 /var/folders/tr/p8fgs8cd4pn1v7l1rzxd4yfr0000gn/T//ccLV2jr4.ltrans0.ltrans.o
                0x100059a8                chSchDoPreemption
 .text.chSchRescheduleS
                0x100059dc       0x28 /var/folders/tr/p8fgs8cd4pn1v7l1rzxd4yfr0000gn/T//ccLV2jr4.ltrans0.ltrans.o
 .text.usbStop.constprop.96
                0x10005a04       0x98 /var/folders/tr/p8fgs8cd4pn1v7l1rzxd4yfr0000gn/T//ccLV2jr4.ltrans0.ltrans.o
 .text.split_shared_memory_unlock
                0x10005a9c       0x68 /var/folders/tr/p8fgs8cd4pn1v7l1rzxd4yfr0000gn/T//ccLV2jr4.ltrans0.ltrans.o
                0x10005a9c                split_shared_memory_unlock
 .text.chSysPolledDelayX
                0x10005b04       0x14 /var/folders/tr/p8fgs8cd4pn1v7l1rzxd4yfr0000gn/T//ccLV2jr4.ltrans0.ltrans.o
                0x10005b04                chSysPolledDelayX
 .text.ws2812_setleds
                0x10005b18      0x314 /var/folders/tr/p8fgs8cd4pn1v7l1rzxd4yfr0000gn/T//ccLV2jr4.ltrans0.ltrans.o
 .text.transaction_handler_master.isra.4
                0x10005e2c       0x4c /var/folders/tr/p8fgs8cd4pn1v7l1rzxd4yfr0000gn/T//ccLV2jr4.ltrans0.ltrans.o
 .text.matrix_scan
                0x10005e78      0x4b0 /var/folders/tr/p8fgs8cd4pn1v7l1rzxd4yfr0000gn/T//ccLV2jr4.ltrans0.ltrans.o
 .text.__init_ram_areas
                0x10006328       0x30 /var/folders/tr/p8fgs8cd4pn1v7l1rzxd4yfr0000gn/T//ccLV2jr4.ltrans0.ltrans.o
                0x10006328                __init_ram_areas
 .text.__default_exit
                0x10006358        0x2 /var/folders/tr/p8fgs8cd4pn1v7l1rzxd4yfr0000gn/T//ccLV2jr4.ltrans0.ltrans.o
                0x10006358                __default_exit
 .text.__early_init
                0x1000635a        0x2 /var/folders/tr/p8fgs8cd4pn1v7l1rzxd4yfr0000gn/T//ccLV2jr4.ltrans0.ltrans.o
                0x1000635a                __early_init
 .text.__late_init
                0x1000635c       0x44 /var/folders/tr/p8fgs8cd4pn1v7l1rzxd4yfr0000gn/T//ccLV2jr4.ltrans0.ltrans.o
                0x1000635c                __late_init
 .text.keymap_key_to_keycode
                0x100063a0       0x24 /var/folders/tr/p8fgs8cd4pn1v7l1rzxd4yfr0000gn/T//ccLV2jr4.ltrans0.ltrans.o
                0x100063a0                keymap_key_to_keycode
 .text.layer_switch_get_layer
                0x100063c4       0x50 /var/folders/tr/p8fgs8cd4pn1v7l1rzxd4yfr0000gn/T//ccLV2jr4.ltrans0.ltrans.o
                0x100063c4                layer_switch_get_layer
 .text.layer_switch_get_action
                0x10006414       0x20 /var/folders/tr/p8fgs8cd4pn1v7l1rzxd4yfr0000gn/T//ccLV2jr4.ltrans0.ltrans.o
 .text.is_tap_record
                0x10006434       0x58 /var/folders/tr/p8fgs8cd4pn1v7l1rzxd4yfr0000gn/T//ccLV2jr4.ltrans0.ltrans.o
 .text.clear_keyboard
                0x1000648c       0x2c /var/folders/tr/p8fgs8cd4pn1v7l1rzxd4yfr0000gn/T//ccLV2jr4.ltrans0.ltrans.o
                0x1000648c                clear_keyboard
 .text.process_record
                0x100064b8      0xbe8 /var/folders/tr/p8fgs8cd4pn1v7l1rzxd4yfr0000gn/T//ccLV2jr4.ltrans0.ltrans.o
 .text.waiting_buffer_scan_tap
                0x100070a0       0x80 /var/folders/tr/p8fgs8cd4pn1v7l1rzxd4yfr0000gn/T//ccLV2jr4.ltrans0.ltrans.o
 .text.process_tapping
                0x10007120      0x25c /var/folders/tr/p8fgs8cd4pn1v7l1rzxd4yfr0000gn/T//ccLV2jr4.ltrans0.ltrans.o
 .text.action_exec
                0x1000737c       0xd8 /var/folders/tr/p8fgs8cd4pn1v7l1rzxd4yfr0000gn/T//ccLV2jr4.ltrans0.ltrans.o
 .text.generate_tick_event
                0x10007454       0x30 /var/folders/tr/p8fgs8cd4pn1v7l1rzxd4yfr0000gn/T//ccLV2jr4.ltrans0.ltrans.o
 .text.startup.main
                0x10007484     0x14a8 /var/folders/tr/p8fgs8cd4pn1v7l1rzxd4yfr0000gn/T//ccLV2jr4.ltrans0.ltrans.o
                0x10007484                main
 .text.biton    0x1000892c       0x1e /var/folders/tr/p8fgs8cd4pn1v7l1rzxd4yfr0000gn/T//ccLV2jr4.ltrans1.ltrans.o
                0x1000892c                biton
 .text.get_event_keycode
                0x1000894a       0x52 /var/folders/tr/p8fgs8cd4pn1v7l1rzxd4yfr0000gn/T//ccLV2jr4.ltrans1.ltrans.o
                0x1000894a                get_event_keycode
 .text.soft_reset_keyboard
                0x1000899c       0x2c /var/folders/tr/p8fgs8cd4pn1v7l1rzxd4yfr0000gn/T//ccLV2jr4.ltrans1.ltrans.o
                0x1000899c                soft_reset_keyboard
 .text.SlaveThread
                0x100089c8       0xb4 .build/obj_crkbd_rev1_via/serial_protocol.a(serial_protocol.o)
 .text.soft_serial_target_init
                0x10008a7c       0x24 .build/obj_crkbd_rev1_via/serial_protocol.a(serial_protocol.o)
                0x10008a7c                soft_serial_target_init
 .text.soft_serial_initiator_init
                0x10008aa0        0x8 .build/obj_crkbd_rev1_via/serial_protocol.a(serial_protocol.o)
                0x10008aa0                soft_serial_initiator_init
 .text.soft_serial_transaction
                0x10008aa8       0xa0 .build/obj_crkbd_rev1_via/serial_protocol.a(serial_protocol.o)
                0x10008aa8                soft_serial_transaction
 .text.port_lock
                0x10008b48       0x16 .build/obj_crkbd_rev1_via/serial_vendor.a(serial_vendor.o)
 .text.port_unlock
                0x10008b5e       0x12 .build/obj_crkbd_rev1_via/serial_vendor.a(serial_vendor.o)
 .text.sm_config_set_clkdiv
                0x10008b70       0x3a .build/obj_crkbd_rev1_via/serial_vendor.a(serial_vendor.o)
 *fill*         0x10008baa        0x2 
 .text.pio_sm_set_enabled.constprop.21
                0x10008bac       0x18 .build/obj_crkbd_rev1_via/serial_vendor.a(serial_vendor.o)
 .text.receive_impl
                0x10008bc4       0xc4 .build/obj_crkbd_rev1_via/serial_vendor.a(serial_vendor.o)
 .text.Vector5C
                0x10008c88       0x9c .build/obj_crkbd_rev1_via/serial_vendor.a(serial_vendor.o)
                0x10008c88                Vector5C
 .text.serial_transport_driver_clear
                0x10008d24       0x44 .build/obj_crkbd_rev1_via/serial_vendor.a(serial_vendor.o)
                0x10008d24                serial_transport_driver_clear
 .text.hot.serial_transport_send
                0x10008d68       0xcc .build/obj_crkbd_rev1_via/serial_vendor.a(serial_vendor.o)
                0x10008d68                serial_transport_send
 .text.hot.serial_transport_receive
                0x10008e34       0x10 .build/obj_crkbd_rev1_via/serial_vendor.a(serial_vendor.o)
                0x10008e34                serial_transport_receive
 .text.hot.serial_transport_receive_blocking
                0x10008e44        0xc .build/obj_crkbd_rev1_via/serial_vendor.a(serial_vendor.o)
                0x10008e44                serial_transport_receive_blocking
 .text.serial_transport_driver_slave_init
                0x10008e50      0x1cc .build/obj_crkbd_rev1_via/serial_vendor.a(serial_vendor.o)
                0x10008e50                serial_transport_driver_slave_init
 .text.serial_transport_driver_master_init
                0x1000901c        0x8 .build/obj_crkbd_rev1_via/serial_vendor.a(serial_vendor.o)
                0x1000901c                serial_transport_driver_master_init
 .text.i2c_epilogue
                0x10009024       0x20 .build/obj_crkbd_rev1_via/i2c_master.a(i2c_master.o)
 .text.i2c_init
                0x10009044       0x54 .build/obj_crkbd_rev1_via/i2c_master.a(i2c_master.o)
                0x10009044                i2c_init
 .text.i2c_transmit
                0x10009098       0x64 .build/obj_crkbd_rev1_via/i2c_master.a(i2c_master.o)
                0x10009098                i2c_transmit
 .text.i2c_write_register
                0x100090fc       0x94 .build/obj_crkbd_rev1_via/i2c_master.a(i2c_master.o)
                0x100090fc                i2c_write_register
 .text.i2c_write_register.__stub
                0x10009190       0xa0 linker stubs
 *(.glue_7t)
 .glue_7t       0x10009230        0x0 linker stubs
 *(.glue_7)
 .glue_7        0x10009230        0x0 linker stubs
 *(.gcc*)
                0x10009230                        __text_end__ = .

.vfp11_veneer   0x10009230        0x0
 .vfp11_veneer  0x10009230        0x0 linker stubs

.v4_bx          0x10009230        0x0
 .v4_bx         0x10009230        0x0 linker stubs

.iplt           0x10009230        0x0
 .iplt          0x10009230        0x0 .build/obj_crkbd_rev1_via/serial_protocol.a(serial_protocol.o)

.rodata         0x10009230     0x10dc
                0x10009230                        __rodata_base__ = .
 *(.rodata)
 .rodata        0x10009230       0xac /opt/homebrew/Cellar/arm-none-eabi-gcc@8/8.5.0_2/lib/arm-none-eabi-gcc/8/gcc/arm-none-eabi/8.5.0/thumb/v6-m/nofp/libgcc.a(divsf3.o)
 .rodata        0x100092dc       0x40 /opt/homebrew/Cellar/arm-none-eabi-gcc@8/8.5.0_2/lib/arm-none-eabi-gcc/8/gcc/arm-none-eabi/8.5.0/thumb/v6-m/nofp/libgcc.a(mulsf3.o)
 .rodata        0x1000931c      0x101 /opt/homebrew/Cellar/arm-none-eabi-gcc@8/8.5.0_2/lib/arm-none-eabi-gcc/8/gcc/arm-none-eabi/8.5.0/../../../../../../arm-none-eabi/lib/thumb/v6-m/nofp/libg_nano.a(lib_a-ctype_.o)
                0x1000931c                _ctype_
 *(.rodata.*)
 .rodata.CIE1931_CURVE
                0x1000941d      0x100 /var/folders/tr/p8fgs8cd4pn1v7l1rzxd4yfr0000gn/T//ccLV2jr4.ltrans0.ltrans.o
 *fill*         0x1000951d        0x3 
 .rodata.CSWTCH.0
                0x10009520        0xc /var/folders/tr/p8fgs8cd4pn1v7l1rzxd4yfr0000gn/T//ccLV2jr4.ltrans0.ltrans.o
 .rodata.CSWTCH.1
                0x1000952c        0x3 /var/folders/tr/p8fgs8cd4pn1v7l1rzxd4yfr0000gn/T//ccLV2jr4.ltrans0.ltrans.o
 *fill*         0x1000952f        0x1 
 .rodata.CSWTCH.2
                0x10009530        0xc /var/folders/tr/p8fgs8cd4pn1v7l1rzxd4yfr0000gn/T//ccLV2jr4.ltrans0.ltrans.o
 .rodata.CSWTCH.3
                0x1000953c        0xc /var/folders/tr/p8fgs8cd4pn1v7l1rzxd4yfr0000gn/T//ccLV2jr4.ltrans0.ltrans.o
 .rodata.CSWTCH.4
                0x10009548        0x3 /var/folders/tr/p8fgs8cd4pn1v7l1rzxd4yfr0000gn/T//ccLV2jr4.ltrans0.ltrans.o
 .rodata.CSWTCH.8
                0x1000954b        0x3 /var/folders/tr/p8fgs8cd4pn1v7l1rzxd4yfr0000gn/T//ccLV2jr4.ltrans0.ltrans.o
 .rodata.CSWTCH.9
                0x1000954e       0x36 /var/folders/tr/p8fgs8cd4pn1v7l1rzxd4yfr0000gn/T//ccLV2jr4.ltrans0.ltrans.o
 .rodata.ConfigurationDescriptor
                0x10009584       0x5b /var/folders/tr/p8fgs8cd4pn1v7l1rzxd4yfr0000gn/T//ccLV2jr4.ltrans0.ltrans.o
 .rodata.DeviceDescriptor
                0x100095df       0x12 /var/folders/tr/p8fgs8cd4pn1v7l1rzxd4yfr0000gn/T//ccLV2jr4.ltrans0.ltrans.o
 .rodata.KeyboardReport
                0x100095f1       0x44 /var/folders/tr/p8fgs8cd4pn1v7l1rzxd4yfr0000gn/T//ccLV2jr4.ltrans0.ltrans.o
 .rodata.LanguageString
                0x10009635        0x4 /var/folders/tr/p8fgs8cd4pn1v7l1rzxd4yfr0000gn/T//ccLV2jr4.ltrans0.ltrans.o
 .rodata.ManufacturerString
                0x10009639       0x12 /var/folders/tr/p8fgs8cd4pn1v7l1rzxd4yfr0000gn/T//ccLV2jr4.ltrans0.ltrans.o
 .rodata.ProductString
                0x1000964b        0xe /var/folders/tr/p8fgs8cd4pn1v7l1rzxd4yfr0000gn/T//ccLV2jr4.ltrans0.ltrans.o
 .rodata.RGBLED_BREATHING_INTERVALS
                0x10009659        0x4 /var/folders/tr/p8fgs8cd4pn1v7l1rzxd4yfr0000gn/T//ccLV2jr4.ltrans0.ltrans.o
 .rodata.RGBLED_GRADIENT_RANGES
                0x1000965d        0x5 /var/folders/tr/p8fgs8cd4pn1v7l1rzxd4yfr0000gn/T//ccLV2jr4.ltrans0.ltrans.o
 .rodata.RGBLED_KNIGHT_INTERVALS
                0x10009662        0x3 /var/folders/tr/p8fgs8cd4pn1v7l1rzxd4yfr0000gn/T//ccLV2jr4.ltrans0.ltrans.o
 .rodata.RGBLED_RAINBOW_MOOD_INTERVALS
                0x10009665        0x3 /var/folders/tr/p8fgs8cd4pn1v7l1rzxd4yfr0000gn/T//ccLV2jr4.ltrans0.ltrans.o
 .rodata.RGBLED_RAINBOW_SWIRL_INTERVALS
                0x10009668        0x3 /var/folders/tr/p8fgs8cd4pn1v7l1rzxd4yfr0000gn/T//ccLV2jr4.ltrans0.ltrans.o
 .rodata.RawReport
                0x1000966b       0x22 /var/folders/tr/p8fgs8cd4pn1v7l1rzxd4yfr0000gn/T//ccLV2jr4.ltrans0.ltrans.o
 .rodata.SharedReport
                0x1000968d       0x6d /var/folders/tr/p8fgs8cd4pn1v7l1rzxd4yfr0000gn/T//ccLV2jr4.ltrans0.ltrans.o
 .rodata.Vector80.str1.1
                0x100096fa       0x76 /var/folders/tr/p8fgs8cd4pn1v7l1rzxd4yfr0000gn/T//ccLV2jr4.ltrans0.ltrans.o
                                  0xd (size before relaxing)
 .rodata.__rp_dma_channels
                0x10009770       0xc0 /var/folders/tr/p8fgs8cd4pn1v7l1rzxd4yfr0000gn/T//ccLV2jr4.ltrans0.ltrans.o
 .rodata.active_status
                0x10009830        0x2 /var/folders/tr/p8fgs8cd4pn1v7l1rzxd4yfr0000gn/T//ccLV2jr4.ltrans0.ltrans.o
 *fill*         0x10009832        0x2 
 .rodata.alarm_irqs
                0x10009834       0x20 /var/folders/tr/p8fgs8cd4pn1v7l1rzxd4yfr0000gn/T//ccLV2jr4.ltrans0.ltrans.o
 .rodata.ascii_to_altgr_lut
                0x10009854       0x10 /var/folders/tr/p8fgs8cd4pn1v7l1rzxd4yfr0000gn/T//ccLV2jr4.ltrans0.ltrans.o
 .rodata.ascii_to_keycode_lut
                0x10009864       0x80 /var/folders/tr/p8fgs8cd4pn1v7l1rzxd4yfr0000gn/T//ccLV2jr4.ltrans0.ltrans.o
 .rodata.ascii_to_shift_lut
                0x100098e4       0x10 /var/folders/tr/p8fgs8cd4pn1v7l1rzxd4yfr0000gn/T//ccLV2jr4.ltrans0.ltrans.o
 .rodata.ch_core0_cfg
                0x100098f4        0xc /var/folders/tr/p8fgs8cd4pn1v7l1rzxd4yfr0000gn/T//ccLV2jr4.ltrans0.ltrans.o
 .rodata.code_to_name
                0x10009900       0x3c /var/folders/tr/p8fgs8cd4pn1v7l1rzxd4yfr0000gn/T//ccLV2jr4.ltrans0.ltrans.o
 .rodata.col_pins
                0x1000993c       0x18 /var/folders/tr/p8fgs8cd4pn1v7l1rzxd4yfr0000gn/T//ccLV2jr4.ltrans0.ltrans.o
 .rodata.crkbd_logo.13141
                0x10009954       0x40 /var/folders/tr/p8fgs8cd4pn1v7l1rzxd4yfr0000gn/T//ccLV2jr4.ltrans0.ltrans.o
 .rodata.display_flipped.9055
                0x10009994        0x5 /var/folders/tr/p8fgs8cd4pn1v7l1rzxd4yfr0000gn/T//ccLV2jr4.ltrans0.ltrans.o
 .rodata.display_normal.9054
                0x10009999        0x5 /var/folders/tr/p8fgs8cd4pn1v7l1rzxd4yfr0000gn/T//ccLV2jr4.ltrans0.ltrans.o
 .rodata.display_off.9204
                0x1000999e        0x2 /var/folders/tr/p8fgs8cd4pn1v7l1rzxd4yfr0000gn/T//ccLV2jr4.ltrans0.ltrans.o
 .rodata.display_on.9200
                0x100099a0        0x2 /var/folders/tr/p8fgs8cd4pn1v7l1rzxd4yfr0000gn/T//ccLV2jr4.ltrans0.ltrans.o
 .rodata.display_setup1.9053
                0x100099a2        0xb /var/folders/tr/p8fgs8cd4pn1v7l1rzxd4yfr0000gn/T//ccLV2jr4.ltrans0.ltrans.o
 .rodata.display_setup2.9056
                0x100099ad        0xd /var/folders/tr/p8fgs8cd4pn1v7l1rzxd4yfr0000gn/T//ccLV2jr4.ltrans0.ltrans.o
 *fill*         0x100099ba        0x2 
 .rodata.ep0config
                0x100099bc       0x1c /var/folders/tr/p8fgs8cd4pn1v7l1rzxd4yfr0000gn/T//ccLV2jr4.ltrans0.ltrans.o
 .rodata.font   0x100099d8      0x540 /var/folders/tr/p8fgs8cd4pn1v7l1rzxd4yfr0000gn/T//ccLV2jr4.ltrans0.ltrans.o
 .rodata.halted_status
                0x10009f18        0x2 /var/folders/tr/p8fgs8cd4pn1v7l1rzxd4yfr0000gn/T//ccLV2jr4.ltrans0.ltrans.o
 *fill*         0x10009f1a        0x2 
 .rodata.kbd_ep_config
                0x10009f1c       0x1c /var/folders/tr/p8fgs8cd4pn1v7l1rzxd4yfr0000gn/T//ccLV2jr4.ltrans0.ltrans.o
 .rodata.keymaps
                0x10009f38      0x180 /var/folders/tr/p8fgs8cd4pn1v7l1rzxd4yfr0000gn/T//ccLV2jr4.ltrans0.ltrans.o
 .rodata.main.str1.1
                0x1000a0b8       0x31 /var/folders/tr/p8fgs8cd4pn1v7l1rzxd4yfr0000gn/T//ccLV2jr4.ltrans0.ltrans.o
 .rodata.mode_base_table
                0x1000a0b8       0x23 /var/folders/tr/p8fgs8cd4pn1v7l1rzxd4yfr0000gn/T//ccLV2jr4.ltrans0.ltrans.o
 .rodata.pio_add_program.str1.1
                0x1000a0db       0x11 /var/folders/tr/p8fgs8cd4pn1v7l1rzxd4yfr0000gn/T//ccLV2jr4.ltrans0.ltrans.o
 .rodata.pio_claim_unused_sm.str1.1
                0x1000a0db       0x24 /var/folders/tr/p8fgs8cd4pn1v7l1rzxd4yfr0000gn/T//ccLV2jr4.ltrans0.ltrans.o
 *fill*         0x1000a0db        0x1 
 .rodata.ram_areas
                0x1000a0dc       0x80 /var/folders/tr/p8fgs8cd4pn1v7l1rzxd4yfr0000gn/T//ccLV2jr4.ltrans0.ltrans.o
 .rodata.rgblight_effect_breathe_table
                0x1000a15c      0x100 /var/folders/tr/p8fgs8cd4pn1v7l1rzxd4yfr0000gn/T//ccLV2jr4.ltrans0.ltrans.o
 .rodata.row_pins
                0x1000a25c       0x10 /var/folders/tr/p8fgs8cd4pn1v7l1rzxd4yfr0000gn/T//ccLV2jr4.ltrans0.ltrans.o
 .rodata.shared_ep_config
                0x1000a26c       0x1c /var/folders/tr/p8fgs8cd4pn1v7l1rzxd4yfr0000gn/T//ccLV2jr4.ltrans0.ltrans.o
 .rodata.source_map.9107
                0x1000a288        0x4 /var/folders/tr/p8fgs8cd4pn1v7l1rzxd4yfr0000gn/T//ccLV2jr4.ltrans0.ltrans.o
 .rodata.split_shmem
                0x1000a28c        0x4 /var/folders/tr/p8fgs8cd4pn1v7l1rzxd4yfr0000gn/T//ccLV2jr4.ltrans0.ltrans.o
                0x1000a28c                split_shmem
 .rodata.str1.1
                0x1000a290        0x3 /var/folders/tr/p8fgs8cd4pn1v7l1rzxd4yfr0000gn/T//ccLV2jr4.ltrans0.ltrans.o
 .rodata.target_map.9108
                0x1000a290        0x4 /var/folders/tr/p8fgs8cd4pn1v7l1rzxd4yfr0000gn/T//ccLV2jr4.ltrans0.ltrans.o
 .rodata.usbcfg
                0x1000a294       0x10 /var/folders/tr/p8fgs8cd4pn1v7l1rzxd4yfr0000gn/T//ccLV2jr4.ltrans0.ltrans.o
 .rodata.vmt    0x1000a2a4       0x28 /var/folders/tr/p8fgs8cd4pn1v7l1rzxd4yfr0000gn/T//ccLV2jr4.ltrans0.ltrans.o
 .rodata.ws2812_program
                0x1000a2cc        0x6 /var/folders/tr/p8fgs8cd4pn1v7l1rzxd4yfr0000gn/T//ccLV2jr4.ltrans0.ltrans.o
 .rodata.ws2812_program_instructions
                0x1000a2d2        0xc /var/folders/tr/p8fgs8cd4pn1v7l1rzxd4yfr0000gn/T//ccLV2jr4.ltrans0.ltrans.o
 .rodata.zero_status
                0x1000a2de        0x2 /var/folders/tr/p8fgs8cd4pn1v7l1rzxd4yfr0000gn/T//ccLV2jr4.ltrans0.ltrans.o
 .rodata.uart_rx_program
                0x1000a2e0        0x6 .build/obj_crkbd_rev1_via/serial_vendor.a(serial_vendor.o)
 .rodata.uart_rx_program_instructions
                0x1000a2e6       0x12 .build/obj_crkbd_rev1_via/serial_vendor.a(serial_vendor.o)
 .rodata.uart_tx_program
                0x1000a2f8        0x6 .build/obj_crkbd_rev1_via/serial_vendor.a(serial_vendor.o)
 .rodata.uart_tx_program_instructions
                0x1000a2fe        0x8 .build/obj_crkbd_rev1_via/serial_vendor.a(serial_vendor.o)
 *fill*         0x1000a306        0x2 
 .rodata.i2cconfig
                0x1000a308        0x4 .build/obj_crkbd_rev1_via/i2c_master.a(i2c_master.o)
                0x1000a30c                        . = ALIGN (0x4)
                0x1000a30c                        __rodata_end__ = .

.rel.dyn        0x1000a30c        0x0
 .rel.iplt      0x1000a30c        0x0 .build/obj_crkbd_rev1_via/serial_protocol.a(serial_protocol.o)

.ARM.extab
 *(.ARM.extab* .gnu.linkonce.armextab.*)

.ARM.exidx      0x1000a30c        0x0
                0x1000a30c                        __exidx_base__ = .
                0x1000a30c                        __exidx_start = .
 *(.ARM.exidx* .gnu.linkonce.armexidx.*)
                0x1000a30c                        __exidx_end__ = .
                0x1000a30c                        __exidx_end = .

.eh_frame_hdr
 *(.eh_frame_hdr)

.eh_frame
 *(.eh_frame)

.data           0x20000000      0xa54 load address 0x1000a30c
                [!provide]                        PROVIDE (_textdata = LOADADDR (.data))
                [!provide]                        PROVIDE (_data = .)
                0x1000a30c                        __textdata_base__ = LOADADDR (.data)
                0x20000000                        __data_base__ = .
 *(vtable)
 *(.time_critical*)
 .time_critical.flash_enable_xip_via_boot2
                0x20000000       0x20 /var/folders/tr/p8fgs8cd4pn1v7l1rzxd4yfr0000gn/T//ccLV2jr4.ltrans0.ltrans.o
 .time_critical.flash_init_boot2_copyout
                0x20000020       0x30 /var/folders/tr/p8fgs8cd4pn1v7l1rzxd4yfr0000gn/T//ccLV2jr4.ltrans0.ltrans.o
 .time_critical.flash_range_erase
                0x20000050       0x60 /var/folders/tr/p8fgs8cd4pn1v7l1rzxd4yfr0000gn/T//ccLV2jr4.ltrans0.ltrans.o
 .time_critical.flash_was_aborted
                0x200000b0       0x10 /var/folders/tr/p8fgs8cd4pn1v7l1rzxd4yfr0000gn/T//ccLV2jr4.ltrans0.ltrans.o
 .time_critical.flash_cs_force
                0x200000c0       0x24 /var/folders/tr/p8fgs8cd4pn1v7l1rzxd4yfr0000gn/T//ccLV2jr4.ltrans0.ltrans.o
 .time_critical.flash_put_cmd_addr
                0x200000e4       0x24 /var/folders/tr/p8fgs8cd4pn1v7l1rzxd4yfr0000gn/T//ccLV2jr4.ltrans0.ltrans.o
 .time_critical.flash_put_get
                0x20000108       0x6a /var/folders/tr/p8fgs8cd4pn1v7l1rzxd4yfr0000gn/T//ccLV2jr4.ltrans0.ltrans.o
 .time_critical._flash_do_cmd
                0x20000172       0x22 /var/folders/tr/p8fgs8cd4pn1v7l1rzxd4yfr0000gn/T//ccLV2jr4.ltrans0.ltrans.o
 .time_critical.flash_enable_write
                0x20000194        0xe /var/folders/tr/p8fgs8cd4pn1v7l1rzxd4yfr0000gn/T//ccLV2jr4.ltrans0.ltrans.o
 .time_critical.flash_wait_ready
                0x200001a2       0x22 /var/folders/tr/p8fgs8cd4pn1v7l1rzxd4yfr0000gn/T//ccLV2jr4.ltrans0.ltrans.o
 .time_critical.pico_program_bulk
                0x200001c4       0x94 /var/folders/tr/p8fgs8cd4pn1v7l1rzxd4yfr0000gn/T//ccLV2jr4.ltrans0.ltrans.o
 .time_critical.enter_rx_state
                0x20000258       0x68 .build/obj_crkbd_rev1_via/serial_vendor.a(serial_vendor.o)
 .time_critical.leave_rx_state
                0x200002c0       0x60 .build/obj_crkbd_rev1_via/serial_vendor.a(serial_vendor.o)
 .time_critical.__wrap___aeabi_idiv
                0x20000320       0x40 .build/obj_crkbd_rev1_via/./lib/pico-sdk/src/rp2_common/pico_divider/divider.o
                0x20000320                __wrap___aeabi_idivmod
                0x20000320                divmod_s32s32
                0x20000320                div_s32s32
                0x20000320                __wrap___aeabi_idiv
                0x20000320                divmod_s32s32_unsafe
 .time_critical.__wrap___aeabi_uidiv
                0x20000360       0x3c .build/obj_crkbd_rev1_via/./lib/pico-sdk/src/rp2_common/pico_divider/divider.o
                0x20000360                divmod_u32u32_unsafe
                0x20000360                __wrap___aeabi_uidiv
                0x20000360                __wrap___aeabi_uidivmod
                0x20000360                div_u32u32
                0x20000360                divmod_u32u32
 .time_critical.__wrap___aeabi_ldiv
                0x2000039c      0x3ec .build/obj_crkbd_rev1_via/./lib/pico-sdk/src/rp2_common/pico_divider/divider.o
                0x2000039c                __wrap___aeabi_ldivmod
                0x2000039c                div_s64s64
                0x2000039c                divmod_s64s64
                0x200003b0                divmod_u64u64
                0x200003b0                __wrap___aeabi_uldivmod
                0x200003b0                div_u64u64
                0x200003c4                divmod_s64s64_unsafe
                0x2000044c                divmod_u64u64_unsafe
 .time_critical.__aeabi_lmul
                0x20000788       0x32 .build/obj_crkbd_rev1_via/./lib/pico-sdk/src/rp2_common/pico_int64_ops/pico_int64_ops_aeabi.o
                0x20000788                __wrap___aeabi_lmul
 *fill*         0x200007ba        0x6 
 .time_critical.__aeabi_lmul.__stub
                0x200007c0       0x90 linker stubs
                0x20000850                        . = ALIGN (0x4)
 *fill*         0x20000850        0x0 
 *(.data)
 *(.data.*)
 .data.SPLIT_SHARED_MEMORY_MUTEX
                0x20000850       0x10 /var/folders/tr/p8fgs8cd4pn1v7l1rzxd4yfr0000gn/T//ccLV2jr4.ltrans0.ltrans.o
 .data.STATE_MACHINE
                0x20000860        0x4 /var/folders/tr/p8fgs8cd4pn1v7l1rzxd4yfr0000gn/T//ccLV2jr4.ltrans0.ltrans.o
 .data.TRANSFER_COUNTER
                0x20000864        0xc /var/folders/tr/p8fgs8cd4pn1v7l1rzxd4yfr0000gn/T//ccLV2jr4.ltrans0.ltrans.o
 .data.chibios_driver
                0x20000870       0x14 /var/folders/tr/p8fgs8cd4pn1v7l1rzxd4yfr0000gn/T//ccLV2jr4.ltrans0.ltrans.o
 .data.display_start.9106
                0x20000884        0x7 /var/folders/tr/p8fgs8cd4pn1v7l1rzxd4yfr0000gn/T//ccLV2jr4.ltrans0.ltrans.o
 *fill*         0x2000088b        0x1 
 .data.drivers  0x2000088c      0x15c /var/folders/tr/p8fgs8cd4pn1v7l1rzxd4yfr0000gn/T//ccLV2jr4.ltrans0.ltrans.o
 .data.func     0x200009e8        0x4 /var/folders/tr/p8fgs8cd4pn1v7l1rzxd4yfr0000gn/T//ccLV2jr4.ltrans0.ltrans.o
 .data.high_bound.7780
                0x200009ec        0x1 /var/folders/tr/p8fgs8cd4pn1v7l1rzxd4yfr0000gn/T//ccLV2jr4.ltrans0.ltrans.o
 .data.increment.7781
                0x200009ed        0x1 /var/folders/tr/p8fgs8cd4pn1v7l1rzxd4yfr0000gn/T//ccLV2jr4.ltrans0.ltrans.o
 .data.increment.7793
                0x200009ee        0x1 /var/folders/tr/p8fgs8cd4pn1v7l1rzxd4yfr0000gn/T//ccLV2jr4.ltrans0.ltrans.o
 .data.isLeftHand
                0x200009ef        0x1 /var/folders/tr/p8fgs8cd4pn1v7l1rzxd4yfr0000gn/T//ccLV2jr4.ltrans0.ltrans.o
 .data.key_name
                0x200009f0        0x1 /var/folders/tr/p8fgs8cd4pn1v7l1rzxd4yfr0000gn/T//ccLV2jr4.ltrans0.ltrans.o
 *fill*         0x200009f1        0x1 
 .data.keyboard_protocol
                0x200009f2        0x1 /var/folders/tr/p8fgs8cd4pn1v7l1rzxd4yfr0000gn/T//ccLV2jr4.ltrans0.ltrans.o
 *fill*         0x200009f3        0x1 
 .data.last_num.13249
                0x200009f4        0x2 /var/folders/tr/p8fgs8cd4pn1v7l1rzxd4yfr0000gn/T//ccLV2jr4.ltrans0.ltrans.o
 .data.linecoding
                0x200009f6        0x7 /var/folders/tr/p8fgs8cd4pn1v7l1rzxd4yfr0000gn/T//ccLV2jr4.ltrans0.ltrans.o
 .data.rgblight_ranges
                0x200009fd        0x5 /var/folders/tr/p8fgs8cd4pn1v7l1rzxd4yfr0000gn/T//ccLV2jr4.ltrans0.ltrans.o
 *fill*         0x20000a02        0x2 
 .data.split_transaction_table
                0x20000a04       0x3c /var/folders/tr/p8fgs8cd4pn1v7l1rzxd4yfr0000gn/T//ccLV2jr4.ltrans0.ltrans.o
                0x20000a04                split_transaction_table
 .data.static_effect_table
                0x20000a40        0xb /var/folders/tr/p8fgs8cd4pn1v7l1rzxd4yfr0000gn/T//ccLV2jr4.ltrans0.ltrans.o
 *fill*         0x20000a4b        0x1 
 .data.rx_state_machine
                0x20000a4c        0x4 .build/obj_crkbd_rev1_via/serial_vendor.a(serial_vendor.o)
 .data.tx_state_machine
                0x20000a50        0x4 .build/obj_crkbd_rev1_via/serial_vendor.a(serial_vendor.o)
 *(.ramtext)
                0x20000a54                        . = ALIGN (0x4)
                [!provide]                        PROVIDE (_edata = .)
                0x20000a54                        __data_end__ = .

.igot.plt       0x20000a54        0x0 load address 0x1000ad60
 .igot.plt      0x20000a54        0x0 .build/obj_crkbd_rev1_via/serial_protocol.a(serial_protocol.o)

.bss            0x20000a58     0x20b4 load address 0x1000ad60
                0x20000a58                        __bss_base__ = .
 *(.bss)
 *(.bss.*)
 .bss.ADCD1     0x20000a58       0x38 /var/folders/tr/p8fgs8cd4pn1v7l1rzxd4yfr0000gn/T//ccLV2jr4.ltrans0.ltrans.o
 .bss.BOOT2_ROM_RAM
                0x20000a90      0x100 /var/folders/tr/p8fgs8cd4pn1v7l1rzxd4yfr0000gn/T//ccLV2jr4.ltrans0.ltrans.o
 .bss.LAST_TRANSFER
                0x20000b90        0x8 /var/folders/tr/p8fgs8cd4pn1v7l1rzxd4yfr0000gn/T//ccLV2jr4.ltrans0.ltrans.o
 .bss.RP_DMA_MODE_WS2812
                0x20000b98        0x4 /var/folders/tr/p8fgs8cd4pn1v7l1rzxd4yfr0000gn/T//ccLV2jr4.ltrans0.ltrans.o
 .bss.SPID0     0x20000b9c       0x30 /var/folders/tr/p8fgs8cd4pn1v7l1rzxd4yfr0000gn/T//ccLV2jr4.ltrans0.ltrans.o
 .bss.USBD1     0x20000bcc       0xe4 /var/folders/tr/p8fgs8cd4pn1v7l1rzxd4yfr0000gn/T//ccLV2jr4.ltrans0.ltrans.o
 .bss.WS2812_BUFFER
                0x20000cb0       0xd8 /var/folders/tr/p8fgs8cd4pn1v7l1rzxd4yfr0000gn/T//ccLV2jr4.ltrans0.ltrans.o
 .bss.WS2812_DMA_CHANNEL
                0x20000d88        0x4 /var/folders/tr/p8fgs8cd4pn1v7l1rzxd4yfr0000gn/T//ccLV2jr4.ltrans0.ltrans.o
 .bss.__compound_literal.0.lto_priv.198
                0x20000d8c        0x8 /var/folders/tr/p8fgs8cd4pn1v7l1rzxd4yfr0000gn/T//ccLV2jr4.ltrans0.ltrans.o
 .bss.__compound_literal.0.lto_priv.199
                0x20000d94       0x90 /var/folders/tr/p8fgs8cd4pn1v7l1rzxd4yfr0000gn/T//ccLV2jr4.ltrans0.ltrans.o
 .bss.__compound_literal.1.lto_priv.200
                0x20000e24       0x20 /var/folders/tr/p8fgs8cd4pn1v7l1rzxd4yfr0000gn/T//ccLV2jr4.ltrans0.ltrans.o
 .bss.__compound_literal.1.lto_priv.201
                0x20000e44       0x90 /var/folders/tr/p8fgs8cd4pn1v7l1rzxd4yfr0000gn/T//ccLV2jr4.ltrans0.ltrans.o
 .bss._used_instruction_space
                0x20000ed4        0x8 /var/folders/tr/p8fgs8cd4pn1v7l1rzxd4yfr0000gn/T//ccLV2jr4.ltrans0.ltrans.o
 .bss.animation_status
                0x20000edc        0x6 /var/folders/tr/p8fgs8cd4pn1v7l1rzxd4yfr0000gn/T//ccLV2jr4.ltrans0.ltrans.o
 *fill*         0x20000ee2        0x2 
 .bss.boot2_copyout
                0x20000ee4      0x100 /var/folders/tr/p8fgs8cd4pn1v7l1rzxd4yfr0000gn/T//ccLV2jr4.ltrans0.ltrans.o
 .bss.boot2_copyout_valid
                0x20000fe4        0x1 /var/folders/tr/p8fgs8cd4pn1v7l1rzxd4yfr0000gn/T//ccLV2jr4.ltrans0.ltrans.o
 .bss.buf.13248
                0x20000fe5        0x6 /var/folders/tr/p8fgs8cd4pn1v7l1rzxd4yfr0000gn/T//ccLV2jr4.ltrans0.ltrans.o
 *fill*         0x20000feb        0x1 
 .bss.bulk_write_buffer.5510
                0x20000fec       0x80 /var/folders/tr/p8fgs8cd4pn1v7l1rzxd4yfr0000gn/T//ccLV2jr4.ltrans0.ltrans.o
 .bss.ch_memcore
                0x2000106c        0x8 /var/folders/tr/p8fgs8cd4pn1v7l1rzxd4yfr0000gn/T//ccLV2jr4.ltrans0.ltrans.o
 .bss.ch_system
                0x20001074       0x10 /var/folders/tr/p8fgs8cd4pn1v7l1rzxd4yfr0000gn/T//ccLV2jr4.ltrans0.ltrans.o
 .bss.claimed   0x20001084        0x1 /var/folders/tr/p8fgs8cd4pn1v7l1rzxd4yfr0000gn/T//ccLV2jr4.ltrans0.ltrans.o
 *fill*         0x20001085        0x3 
 .bss.configured_freq
                0x20001088       0x28 /var/folders/tr/p8fgs8cd4pn1v7l1rzxd4yfr0000gn/T//ccLV2jr4.ltrans0.ltrans.o
 .bss.connection_check_timer.12319
                0x200010b0        0x2 /var/folders/tr/p8fgs8cd4pn1v7l1rzxd4yfr0000gn/T//ccLV2jr4.ltrans0.ltrans.o
 .bss.connection_errors
                0x200010b2        0x1 /var/folders/tr/p8fgs8cd4pn1v7l1rzxd4yfr0000gn/T//ccLV2jr4.ltrans0.ltrans.o
 .bss.debouncing
                0x200010b3        0x1 /var/folders/tr/p8fgs8cd4pn1v7l1rzxd4yfr0000gn/T//ccLV2jr4.ltrans0.ltrans.o
 .bss.debouncing_time
                0x200010b4        0x4 /var/folders/tr/p8fgs8cd4pn1v7l1rzxd4yfr0000gn/T//ccLV2jr4.ltrans0.ltrans.o
 .bss.debug_config
                0x200010b8        0x1 /var/folders/tr/p8fgs8cd4pn1v7l1rzxd4yfr0000gn/T//ccLV2jr4.ltrans0.ltrans.o
 .bss.default_layer_state
                0x200010b9        0x1 /var/folders/tr/p8fgs8cd4pn1v7l1rzxd4yfr0000gn/T//ccLV2jr4.ltrans0.ltrans.o
 *fill*         0x200010ba        0x2 
 .bss.descriptor.12668
                0x200010bc        0x8 /var/folders/tr/p8fgs8cd4pn1v7l1rzxd4yfr0000gn/T//ccLV2jr4.ltrans0.ltrans.o
 .bss.dma       0x200010c4       0x68 /var/folders/tr/p8fgs8cd4pn1v7l1rzxd4yfr0000gn/T//ccLV2jr4.ltrans0.ltrans.o
 .bss.driver.lto_priv.196
                0x2000112c        0x4 /var/folders/tr/p8fgs8cd4pn1v7l1rzxd4yfr0000gn/T//ccLV2jr4.ltrans0.ltrans.o
 .bss.driver.lto_priv.197
                0x20001130        0x4 /var/folders/tr/p8fgs8cd4pn1v7l1rzxd4yfr0000gn/T//ccLV2jr4.ltrans0.ltrans.o
 .bss.ep0_state
                0x20001134       0x3c /var/folders/tr/p8fgs8cd4pn1v7l1rzxd4yfr0000gn/T//ccLV2jr4.ltrans0.ltrans.o
 .bss.event_queue
                0x20001170       0x10 /var/folders/tr/p8fgs8cd4pn1v7l1rzxd4yfr0000gn/T//ccLV2jr4.ltrans0.ltrans.o
 .bss.event_queue_head
                0x20001180        0x1 /var/folders/tr/p8fgs8cd4pn1v7l1rzxd4yfr0000gn/T//ccLV2jr4.ltrans0.ltrans.o
 .bss.event_queue_tail
                0x20001181        0x1 /var/folders/tr/p8fgs8cd4pn1v7l1rzxd4yfr0000gn/T//ccLV2jr4.ltrans0.ltrans.o
 .bss.grave_esc_was_shifted
                0x20001182        0x1 /var/folders/tr/p8fgs8cd4pn1v7l1rzxd4yfr0000gn/T//ccLV2jr4.ltrans0.ltrans.o
 *fill*         0x20001183        0x1 
 .bss.interrupts
                0x20001184        0x4 /var/folders/tr/p8fgs8cd4pn1v7l1rzxd4yfr0000gn/T//ccLV2jr4.ltrans0.ltrans.o
 .bss.is_initialized.10660
                0x20001188        0x1 /var/folders/tr/p8fgs8cd4pn1v7l1rzxd4yfr0000gn/T//ccLV2jr4.ltrans0.ltrans.o
 .bss.is_rgblight_initialized
                0x20001189        0x1 /var/folders/tr/p8fgs8cd4pn1v7l1rzxd4yfr0000gn/T//ccLV2jr4.ltrans0.ltrans.o
 *fill*         0x2000118a        0x2 
 .bss.kbd_ep_state
                0x2000118c       0x20 /var/folders/tr/p8fgs8cd4pn1v7l1rzxd4yfr0000gn/T//ccLV2jr4.ltrans0.ltrans.o
 .bss.keyboard_idle
                0x200011ac        0x1 /var/folders/tr/p8fgs8cd4pn1v7l1rzxd4yfr0000gn/T//ccLV2jr4.ltrans0.ltrans.o
 *fill*         0x200011ad        0x3 
 .bss.keyboard_idle_timer
                0x200011b0       0x18 /var/folders/tr/p8fgs8cd4pn1v7l1rzxd4yfr0000gn/T//ccLV2jr4.ltrans0.ltrans.o
 .bss.keyboard_led_state
                0x200011c8        0x1 /var/folders/tr/p8fgs8cd4pn1v7l1rzxd4yfr0000gn/T//ccLV2jr4.ltrans0.ltrans.o
 .bss.keyboard_report_sent
                0x200011c9        0x8 /var/folders/tr/p8fgs8cd4pn1v7l1rzxd4yfr0000gn/T//ccLV2jr4.ltrans0.ltrans.o
 *fill*         0x200011d1        0x1 
 .bss.keymap_config
                0x200011d2        0x2 /var/folders/tr/p8fgs8cd4pn1v7l1rzxd4yfr0000gn/T//ccLV2jr4.ltrans0.ltrans.o
 .bss.last_col  0x200011d4        0x1 /var/folders/tr/p8fgs8cd4pn1v7l1rzxd4yfr0000gn/T//ccLV2jr4.ltrans0.ltrans.o
 .bss.last_connected.12357
                0x200011d5        0x1 /var/folders/tr/p8fgs8cd4pn1v7l1rzxd4yfr0000gn/T//ccLV2jr4.ltrans0.ltrans.o
 .bss.last_consumer_usage
                0x200011d6        0x2 /var/folders/tr/p8fgs8cd4pn1v7l1rzxd4yfr0000gn/T//ccLV2jr4.ltrans0.ltrans.o
 .bss.last_keycode
                0x200011d8        0x2 /var/folders/tr/p8fgs8cd4pn1v7l1rzxd4yfr0000gn/T//ccLV2jr4.ltrans0.ltrans.o
 .bss.last_led_status.11247
                0x200011da        0x1 /var/folders/tr/p8fgs8cd4pn1v7l1rzxd4yfr0000gn/T//ccLV2jr4.ltrans0.ltrans.o
 .bss.last_matrix.12832
                0x200011db        0x4 /var/folders/tr/p8fgs8cd4pn1v7l1rzxd4yfr0000gn/T//ccLV2jr4.ltrans0.ltrans.o
 .bss.last_pad.13250
                0x200011df        0x1 /var/folders/tr/p8fgs8cd4pn1v7l1rzxd4yfr0000gn/T//ccLV2jr4.ltrans0.ltrans.o
 .bss.last_report.8220
                0x200011e0        0x8 /var/folders/tr/p8fgs8cd4pn1v7l1rzxd4yfr0000gn/T//ccLV2jr4.ltrans0.ltrans.o
 .bss.last_report.8224
                0x200011e8       0x20 /var/folders/tr/p8fgs8cd4pn1v7l1rzxd4yfr0000gn/T//ccLV2jr4.ltrans0.ltrans.o
 .bss.last_row  0x20001208        0x1 /var/folders/tr/p8fgs8cd4pn1v7l1rzxd4yfr0000gn/T//ccLV2jr4.ltrans0.ltrans.o
 .bss.last_suspend_state
                0x20001209        0x1 /var/folders/tr/p8fgs8cd4pn1v7l1rzxd4yfr0000gn/T//ccLV2jr4.ltrans0.ltrans.o
 *fill*         0x2000120a        0x2 
 .bss.last_sync_timer.12859
                0x2000120c        0x4 /var/folders/tr/p8fgs8cd4pn1v7l1rzxd4yfr0000gn/T//ccLV2jr4.ltrans0.ltrans.o
 .bss.last_system_usage
                0x20001210        0x2 /var/folders/tr/p8fgs8cd4pn1v7l1rzxd4yfr0000gn/T//ccLV2jr4.ltrans0.ltrans.o
 .bss.last_tick.12742
                0x20001212        0x2 /var/folders/tr/p8fgs8cd4pn1v7l1rzxd4yfr0000gn/T//ccLV2jr4.ltrans0.ltrans.o
 .bss.last_ticks
                0x20001214        0x4 /var/folders/tr/p8fgs8cd4pn1v7l1rzxd4yfr0000gn/T//ccLV2jr4.ltrans0.ltrans.o
 .bss.last_update.12831
                0x20001218        0x4 /var/folders/tr/p8fgs8cd4pn1v7l1rzxd4yfr0000gn/T//ccLV2jr4.ltrans0.ltrans.o
 .bss.last_update.12843
                0x2000121c        0x4 /var/folders/tr/p8fgs8cd4pn1v7l1rzxd4yfr0000gn/T//ccLV2jr4.ltrans0.ltrans.o
 .bss.last_update.12852
                0x20001220        0x4 /var/folders/tr/p8fgs8cd4pn1v7l1rzxd4yfr0000gn/T//ccLV2jr4.ltrans0.ltrans.o
 .bss.last_update.12864
                0x20001224        0x4 /var/folders/tr/p8fgs8cd4pn1v7l1rzxd4yfr0000gn/T//ccLV2jr4.ltrans0.ltrans.o
 .bss.layer_state
                0x20001228        0x1 /var/folders/tr/p8fgs8cd4pn1v7l1rzxd4yfr0000gn/T//ccLV2jr4.ltrans0.ltrans.o
 .bss.led       0x20001229       0xa2 /var/folders/tr/p8fgs8cd4pn1v7l1rzxd4yfr0000gn/T//ccLV2jr4.ltrans0.ltrans.o
 .bss.low_bound.7779
                0x200012cb        0x1 /var/folders/tr/p8fgs8cd4pn1v7l1rzxd4yfr0000gn/T//ccLV2jr4.ltrans0.ltrans.o
 .bss.matrix    0x200012cc        0x8 /var/folders/tr/p8fgs8cd4pn1v7l1rzxd4yfr0000gn/T//ccLV2jr4.ltrans0.ltrans.o
 .bss.matrix_previous.12749
                0x200012d4        0x8 /var/folders/tr/p8fgs8cd4pn1v7l1rzxd4yfr0000gn/T//ccLV2jr4.ltrans0.ltrans.o
 .bss.ms_offset
                0x200012dc        0x4 /var/folders/tr/p8fgs8cd4pn1v7l1rzxd4yfr0000gn/T//ccLV2jr4.ltrans0.ltrans.o
 .bss.oled_active
                0x200012e0        0x1 /var/folders/tr/p8fgs8cd4pn1v7l1rzxd4yfr0000gn/T//ccLV2jr4.ltrans0.ltrans.o
 .bss.oled_buffer
                0x200012e1      0x200 /var/folders/tr/p8fgs8cd4pn1v7l1rzxd4yfr0000gn/T//ccLV2jr4.ltrans0.ltrans.o
 *fill*         0x200014e1        0x3 
 .bss.oled_cursor
                0x200014e4        0x4 /var/folders/tr/p8fgs8cd4pn1v7l1rzxd4yfr0000gn/T//ccLV2jr4.ltrans0.ltrans.o
 .bss.oled_dirty
                0x200014e8        0x2 /var/folders/tr/p8fgs8cd4pn1v7l1rzxd4yfr0000gn/T//ccLV2jr4.ltrans0.ltrans.o
 .bss.oled_initialized
                0x200014ea        0x1 /var/folders/tr/p8fgs8cd4pn1v7l1rzxd4yfr0000gn/T//ccLV2jr4.ltrans0.ltrans.o
 .bss.oled_rotation
                0x200014eb        0x1 /var/folders/tr/p8fgs8cd4pn1v7l1rzxd4yfr0000gn/T//ccLV2jr4.ltrans0.ltrans.o
 .bss.oled_rotation_width
                0x200014ec        0x1 /var/folders/tr/p8fgs8cd4pn1v7l1rzxd4yfr0000gn/T//ccLV2jr4.ltrans0.ltrans.o
 .bss.oled_scrolling
                0x200014ed        0x1 /var/folders/tr/p8fgs8cd4pn1v7l1rzxd4yfr0000gn/T//ccLV2jr4.ltrans0.ltrans.o
 .bss.oled_temp_buffer.9139
                0x200014ee        0x6 /var/folders/tr/p8fgs8cd4pn1v7l1rzxd4yfr0000gn/T//ccLV2jr4.ltrans0.ltrans.o
 .bss.oled_timeout
                0x200014f4        0x4 /var/folders/tr/p8fgs8cd4pn1v7l1rzxd4yfr0000gn/T//ccLV2jr4.ltrans0.ltrans.o
 .bss.oled_update_timeout
                0x200014f8        0x2 /var/folders/tr/p8fgs8cd4pn1v7l1rzxd4yfr0000gn/T//ccLV2jr4.ltrans0.ltrans.o
 .bss.oneshot_layer_data
                0x200014fa        0x1 /var/folders/tr/p8fgs8cd4pn1v7l1rzxd4yfr0000gn/T//ccLV2jr4.ltrans0.ltrans.o
 .bss.oneshot_locked_mods
                0x200014fb        0x1 /var/folders/tr/p8fgs8cd4pn1v7l1rzxd4yfr0000gn/T//ccLV2jr4.ltrans0.ltrans.o
 .bss.oneshot_mods
                0x200014fc        0x1 /var/folders/tr/p8fgs8cd4pn1v7l1rzxd4yfr0000gn/T//ccLV2jr4.ltrans0.ltrans.o
 .bss.pos.7763  0x200014fd        0x1 /var/folders/tr/p8fgs8cd4pn1v7l1rzxd4yfr0000gn/T//ccLV2jr4.ltrans0.ltrans.o
 .bss.raw_matrix
                0x200014fe        0x8 /var/folders/tr/p8fgs8cd4pn1v7l1rzxd4yfr0000gn/T//ccLV2jr4.ltrans0.ltrans.o
 .bss.real_mods
                0x20001506        0x1 /var/folders/tr/p8fgs8cd4pn1v7l1rzxd4yfr0000gn/T//ccLV2jr4.ltrans0.ltrans.o
 *fill*         0x20001507        0x1 
 .bss.report_last_timer.7733
                0x20001508        0x2 /var/folders/tr/p8fgs8cd4pn1v7l1rzxd4yfr0000gn/T//ccLV2jr4.ltrans0.ltrans.o
 *fill*         0x2000150a        0x6 
 .bss.rgblight_config
                0x20001510        0x8 /var/folders/tr/p8fgs8cd4pn1v7l1rzxd4yfr0000gn/T//ccLV2jr4.ltrans0.ltrans.o
 .bss.rgblight_status
                0x20001518        0x3 /var/folders/tr/p8fgs8cd4pn1v7l1rzxd4yfr0000gn/T//ccLV2jr4.ltrans0.ltrans.o
 .bss.sc_last   0x2000151b        0x1 /var/folders/tr/p8fgs8cd4pn1v7l1rzxd4yfr0000gn/T//ccLV2jr4.ltrans0.ltrans.o
 .bss.sc_timer  0x2000151c        0x2 /var/folders/tr/p8fgs8cd4pn1v7l1rzxd4yfr0000gn/T//ccLV2jr4.ltrans0.ltrans.o
 *fill*         0x2000151e        0x2 
 .bss.set_report_buf
                0x20001520        0x2 /var/folders/tr/p8fgs8cd4pn1v7l1rzxd4yfr0000gn/T//ccLV2jr4.ltrans0.ltrans.o
 *fill*         0x20001522        0x2 
 .bss.shared_ep_state
                0x20001524       0x20 /var/folders/tr/p8fgs8cd4pn1v7l1rzxd4yfr0000gn/T//ccLV2jr4.ltrans0.ltrans.o
 *fill*         0x20001544        0x4 
 .bss.shared_memory
                0x20001548       0x20 /var/folders/tr/p8fgs8cd4pn1v7l1rzxd4yfr0000gn/T//ccLV2jr4.ltrans0.ltrans.o
 .bss.source_layers_cache
                0x20001568       0x12 /var/folders/tr/p8fgs8cd4pn1v7l1rzxd4yfr0000gn/T//ccLV2jr4.ltrans0.ltrans.o
                0x20001568                source_layers_cache
 .bss.split_config
                0x2000157a        0x2 /var/folders/tr/p8fgs8cd4pn1v7l1rzxd4yfr0000gn/T//ccLV2jr4.ltrans0.ltrans.o
 .bss.st_callbacks
                0x2000157c       0x10 /var/folders/tr/p8fgs8cd4pn1v7l1rzxd4yfr0000gn/T//ccLV2jr4.ltrans0.ltrans.o
 .bss.sync_timer_ms
                0x2000158c        0x4 /var/folders/tr/p8fgs8cd4pn1v7l1rzxd4yfr0000gn/T//ccLV2jr4.ltrans0.ltrans.o
 .bss.tapping_key
                0x20001590        0x8 /var/folders/tr/p8fgs8cd4pn1v7l1rzxd4yfr0000gn/T//ccLV2jr4.ltrans0.ltrans.o
 .bss.temp_buffer.9109
                0x20001598       0x20 /var/folders/tr/p8fgs8cd4pn1v7l1rzxd4yfr0000gn/T//ccLV2jr4.ltrans0.ltrans.o
 .bss.thatHand  0x200015b8        0x1 /var/folders/tr/p8fgs8cd4pn1v7l1rzxd4yfr0000gn/T//ccLV2jr4.ltrans0.ltrans.o
 .bss.thisHand  0x200015b9        0x1 /var/folders/tr/p8fgs8cd4pn1v7l1rzxd4yfr0000gn/T//ccLV2jr4.ltrans0.ltrans.o
 .bss.tick_flag.7734
                0x200015ba        0x1 /var/folders/tr/p8fgs8cd4pn1v7l1rzxd4yfr0000gn/T//ccLV2jr4.ltrans0.ltrans.o
 *fill*         0x200015bb        0x1 
 .bss.ticks_offset
                0x200015bc        0x4 /var/folders/tr/p8fgs8cd4pn1v7l1rzxd4yfr0000gn/T//ccLV2jr4.ltrans0.ltrans.o
 .bss.universal_report_blank
                0x200015c0        0x8 /var/folders/tr/p8fgs8cd4pn1v7l1rzxd4yfr0000gn/T//ccLV2jr4.ltrans0.ltrans.o
 .bss.waiting_buffer
                0x200015c8       0x40 /var/folders/tr/p8fgs8cd4pn1v7l1rzxd4yfr0000gn/T//ccLV2jr4.ltrans0.ltrans.o
 .bss.waiting_buffer_head
                0x20001608        0x1 /var/folders/tr/p8fgs8cd4pn1v7l1rzxd4yfr0000gn/T//ccLV2jr4.ltrans0.ltrans.o
 .bss.waiting_buffer_tail
                0x20001609        0x1 /var/folders/tr/p8fgs8cd4pn1v7l1rzxd4yfr0000gn/T//ccLV2jr4.ltrans0.ltrans.o
 .bss.weak_mods
                0x2000160a        0x1 /var/folders/tr/p8fgs8cd4pn1v7l1rzxd4yfr0000gn/T//ccLV2jr4.ltrans0.ltrans.o
 *fill*         0x2000160b        0x1 
 .bss.wear_leveling
                0x2000160c     0x1008 /var/folders/tr/p8fgs8cd4pn1v7l1rzxd4yfr0000gn/T//ccLV2jr4.ltrans0.ltrans.o
 *fill*         0x20002614        0x4 
 .bss.waSlaveThread
                0x20002618      0x4b0 .build/obj_crkbd_rev1_via/serial_protocol.a(serial_protocol.o)
 .bss.rx_thread
                0x20002ac8        0x4 .build/obj_crkbd_rev1_via/serial_vendor.a(serial_vendor.o)
                0x20002ac8                rx_thread
 .bss.tx_thread
                0x20002acc        0x4 .build/obj_crkbd_rev1_via/serial_vendor.a(serial_vendor.o)
                0x20002acc                tx_thread
 .bss.is_initialised.8781
                0x20002ad0        0x1 .build/obj_crkbd_rev1_via/i2c_master.a(i2c_master.o)
 *(COMMON)
 *fill*         0x20002ad1        0x3 
 COMMON         0x20002ad4       0x38 /var/folders/tr/p8fgs8cd4pn1v7l1rzxd4yfr0000gn/T//ccLV2jr4.ltrans0.ltrans.o
                0x20002ad4                I2CD1
                0x20002b0c                        . = ALIGN (0x4)
                0x20002b0c                        __bss_end__ = .
                [!provide]                        PROVIDE (end = .)
                0x20000000                        __ram0_base__ = ORIGIN (ram0)
                0x00040000                        __ram0_size__ = LENGTH (ram0)
                0x20040000                        __ram0_end__ = (__ram0_base__ + __ram0_size__)
                0x00000000                        __ram1_base__ = ORIGIN (ram1)
                0x00040000                        __ram1_size__ = LENGTH (ram1)
                0x00040000                        __ram1_end__ = (__ram1_base__ + __ram1_size__)
                0x00000000                        __ram2_base__ = ORIGIN (ram2)
                0x00000000                        __ram2_size__ = LENGTH (ram2)
                0x00000000                        __ram2_end__ = (__ram2_base__ + __ram2_size__)
                0x00000000                        __ram3_base__ = ORIGIN (ram3)
                0x00000000                        __ram3_size__ = LENGTH (ram3)
                0x00000000                        __ram3_end__ = (__ram3_base__ + __ram3_size__)
                0x20040000                        __ram4_base__ = ORIGIN (ram4)
                0x00001000                        __ram4_size__ = LENGTH (ram4)
                0x20041000                        __ram4_end__ = (__ram4_base__ + __ram4_size__)
                0x20041000                        __ram5_base__ = ORIGIN (ram5)
                0x00001000                        __ram5_size__ = LENGTH (ram5)
                0x20042000                        __ram5_end__ = (__ram5_base__ + __ram5_size__)
                0x00000000                        __ram6_base__ = ORIGIN (ram6)
                0x00000000                        __ram6_size__ = LENGTH (ram6)
                0x00000000                        __ram6_end__ = (__ram6_base__ + __ram6_size__)
                0x20041f00                        __ram7_base__ = ORIGIN (ram7)
                0x00000100                        __ram7_size__ = LENGTH (ram7)
                0x20042000                        __ram7_end__ = (__ram7_base__ + __ram7_size__)
                0x00000000                        __flash0_base__ = ORIGIN (flash0)
                0x00004000                        __flash0_size__ = LENGTH (flash0)
                0x00004000                        __flash0_end__ = (__flash0_base__ + __flash0_size__)
                0x10000000                        __flash1_base__ = ORIGIN (flash1)
                0x00200000                        __flash1_size__ = LENGTH (flash1)
                0x10200000                        __flash1_end__ = (__flash1_base__ + __flash1_size__)
                0x00000000                        __flash2_base__ = ORIGIN (flash2)
                0x00000000                        __flash2_size__ = LENGTH (flash2)
                0x00000000                        __flash2_end__ = (__flash2_base__ + __flash2_size__)
                0x00000000                        __flash3_base__ = ORIGIN (flash3)
                0x00000000                        __flash3_size__ = LENGTH (flash3)
                0x00000000                        __flash3_end__ = (__flash3_base__ + __flash3_size__)
                0x00000000                        __flash4_base__ = ORIGIN (flash4)
                0x00000000                        __flash4_size__ = LENGTH (flash4)
                0x00000000                        __flash4_end__ = (__flash4_base__ + __flash4_size__)
                0x00000000                        __flash5_base__ = ORIGIN (flash5)
                0x00000000                        __flash5_size__ = LENGTH (flash5)
                0x00000000                        __flash5_end__ = (__flash5_base__ + __flash5_size__)
                0x00000000                        __flash6_base__ = ORIGIN (flash6)
                0x00000000                        __flash6_size__ = LENGTH (flash6)
                0x00000000                        __flash6_end__ = (__flash6_base__ + __flash6_size__)
                0x00000000                        __flash7_base__ = ORIGIN (flash7)
                0x00000000                        __flash7_size__ = LENGTH (flash7)
                0x00000000                        __flash7_end__ = (__flash7_base__ + __flash7_size__)

.ram0_init      0x20002b0c        0x0 load address 0x1000ad60
                0x1000ad60                        __ram0_init_text__ = LOADADDR (.ram0_init)
                0x20002b0c                        __ram0_init__ = .
 *(.ram0_init)
 *(.ram0_init.*)
                0x20002b0c                        . = ALIGN (0x4)

.ram0           0x20002b0c        0x4 load address 0x1000ad60
                0x20002b0c                        __ram0_clear__ = .
 *(.ram0_clear)
 *(.ram0_clear.*)
                0x20002b0c                        . = ALIGN (0x4)
                0x20002b0c                        __ram0_noinit__ = .
 *(.ram0)
 *(.ram0.*)
 .ram0.bootloader_magic
                0x20002b0c        0x4 /var/folders/tr/p8fgs8cd4pn1v7l1rzxd4yfr0000gn/T//ccLV2jr4.ltrans0.ltrans.o
                0x20002b10                        . = ALIGN (0x4)
                0x20002b10                        __ram0_free__ = .

.ram1_init      0x00000000        0x0 load address 0x1000ad60
                0x1000ad60                        __ram1_init_text__ = LOADADDR (.ram1_init)
                0x00000000                        __ram1_init__ = .
 *(.ram1_init)
 *(.ram1_init.*)
                0x00000000                        . = ALIGN (0x4)

.ram1           0x00000000        0x0 load address 0x1000ad60
                0x00000000                        __ram1_clear__ = .
 *(.ram1_clear)
 *(.ram1_clear.*)
                0x00000000                        . = ALIGN (0x4)
                0x00000000                        __ram1_noinit__ = .
 *(.ram1)
 *(.ram1.*)
                0x00000000                        . = ALIGN (0x4)
                0x00000000                        __ram1_free__ = .

.ram2_init      0x00000000        0x0 load address 0x1000ad60
                0x1000ad60                        __ram2_init_text__ = LOADADDR (.ram2_init)
                0x00000000                        __ram2_init__ = .
 *(.ram2_init)
 *(.ram2_init.*)
                0x00000000                        . = ALIGN (0x4)

.ram2           0x00000000        0x0 load address 0x1000ad60
                0x00000000                        __ram2_clear__ = .
 *(.ram2_clear)
 *(.ram2_clear.*)
                0x00000000                        . = ALIGN (0x4)
                0x00000000                        __ram2_noinit__ = .
 *(.ram2)
 *(.ram2.*)
                0x00000000                        . = ALIGN (0x4)
                0x00000000                        __ram2_free__ = .

.ram3_init      0x00000000        0x0 load address 0x1000ad60
                0x1000ad60                        __ram3_init_text__ = LOADADDR (.ram3_init)
                0x00000000                        __ram3_init__ = .
 *(.ram3_init)
 *(.ram3_init.*)
                0x00000000                        . = ALIGN (0x4)

.ram3           0x00000000        0x0 load address 0x1000ad60
                0x00000000                        __ram3_clear__ = .
 *(.ram3_clear)
 *(.ram3_clear.*)
                0x00000000                        . = ALIGN (0x4)
                0x00000000                        __ram3_noinit__ = .
 *(.ram3)
 *(.ram3.*)
                0x00000000                        . = ALIGN (0x4)
                0x00000000                        __ram3_free__ = .

.ram4_init      0x20040c00        0x0 load address 0x1000ad60
                0x1000ad60                        __ram4_init_text__ = LOADADDR (.ram4_init)
                0x20040c00                        __ram4_init__ = .
 *(.ram4_init)
 *(.ram4_init.*)
                0x20040c00                        . = ALIGN (0x4)

.ram4           0x20040c00      0x120 load address 0x1000ad60
                0x20040c00                        __ram4_clear__ = .
 *(.ram4_clear)
 *(.ram4_clear.*)
 .ram4_clear.core0
                0x20040c00      0x120 /var/folders/tr/p8fgs8cd4pn1v7l1rzxd4yfr0000gn/T//ccLV2jr4.ltrans0.ltrans.o
                0x20040d20                        . = ALIGN (0x4)
                0x20040d20                        __ram4_noinit__ = .
 *(.ram4)
 *(.ram4.*)
                0x20040d20                        . = ALIGN (0x4)
                0x20040d20                        __ram4_free__ = .

.ram5_init      0x20041c00        0x0 load address 0x1000ad60
                0x1000ad60                        __ram5_init_text__ = LOADADDR (.ram5_init)
                0x20041c00                        __ram5_init__ = .
 *(.ram5_init)
 *(.ram5_init.*)
                0x20041c00                        . = ALIGN (0x4)

.ram5           0x20041c00        0x0 load address 0x1000ad60
                0x20041c00                        __ram5_clear__ = .
 *(.ram5_clear)
 *(.ram5_clear.*)
                0x20041c00                        . = ALIGN (0x4)
                0x20041c00                        __ram5_noinit__ = .
 *(.ram5)
 *(.ram5.*)
                0x20041c00                        . = ALIGN (0x4)
                0x20041c00                        __ram5_free__ = .

.ram6_init      0x00000000        0x0 load address 0x1000ad60
                0x1000ad60                        __ram6_init_text__ = LOADADDR (.ram6_init)
                0x00000000                        __ram6_init__ = .
 *(.ram6_init)
 *(.ram6_init.*)
                0x00000000                        . = ALIGN (0x4)

.ram6           0x00000000        0x0 load address 0x1000ad60
                0x00000000                        __ram6_clear__ = .
 *(.ram6_clear)
 *(.ram6_clear.*)
                0x00000000                        . = ALIGN (0x4)
                0x00000000                        __ram6_noinit__ = .
 *(.ram6)
 *(.ram6.*)
                0x00000000                        . = ALIGN (0x4)
                0x00000000                        __ram6_free__ = .

.ram7_init      0x20041f00        0x0 load address 0x1000ad60
                0x1000ad60                        __ram7_init_text__ = LOADADDR (.ram7_init)
                0x20041f00                        __ram7_init__ = .
 *(.ram7_init)
 *(.ram7_init.*)
                0x20041f00                        . = ALIGN (0x4)

.ram7           0x20041f00        0x0 load address 0x1000ad60
                0x20041f00                        __ram7_clear__ = .
 *(.ram7_clear)
 *(.ram7_clear.*)
                0x20041f00                        . = ALIGN (0x4)
                0x20041f00                        __ram7_noinit__ = .
 *(.ram7)
 *(.ram7.*)
                0x20041f00                        . = ALIGN (0x4)
                0x20041f00                        __ram7_free__ = .

.flash0         0x00000000        0x0
                0x00000000                        __flash0_init__ = .
 *(.flash0_init)
 *(.flash0_init.*)
                0x00000000                        __flash0_free__ = .

.flash1         0x1000ad60        0x0
                0x1000ad60                        __flash1_init__ = .
 *(.flash1_init)
 *(.flash1_init.*)
                0x1000ad60                        __flash1_free__ = .

.flash2         0x00000000        0x0
                0x00000000                        __flash2_init__ = .
 *(.flash2_init)
 *(.flash2_init.*)
                0x00000000                        __flash2_free__ = .

.flash3         0x00000000        0x0
                0x00000000                        __flash3_init__ = .
 *(.flash3_init)
 *(.flash3_init.*)
                0x00000000                        __flash3_free__ = .

.flash4         0x00000000        0x0
                0x00000000                        __flash4_init__ = .
 *(.flash4_init)
 *(.flash4_init.*)
                0x00000000                        __flash4_free__ = .

.flash5         0x00000000        0x0
                0x00000000                        __flash5_init__ = .
 *(.flash5_init)
 *(.flash5_init.*)
                0x00000000                        __flash5_free__ = .

.flash6         0x00000000        0x0
                0x00000000                        __flash6_init__ = .
 *(.flash6_init)
 *(.flash6_init.*)
                0x00000000                        __flash6_free__ = .

.flash7         0x00000000        0x0
                0x00000000                        __flash7_init__ = .
 *(.flash7_init)
 *(.flash7_init.*)
                0x00000000                        __flash7_free__ = .

.heap           0x20002b10    0x3d4f0
                0x20002b10                        . = ALIGN (0x8)
                0x20002b10                        __heap_base__ = .
                0x20040000                        . = (ORIGIN (HEAP_RAM) + LENGTH (HEAP_RAM))
 *fill*         0x20002b10    0x3d4f0 
                0x20040000                        __heap_end__ = .

.flash_end      0x1000ad60        0x0
                0x1000ad60                        __flash_binary_end = .
OUTPUT(.build/crkbd_rev1_via_helios.elf elf32-littlearm)
LOAD linker stubs

.debug_info     0x00000000   0x1773e5
 .debug_info    0x00000000   0x14fd92 /var/folders/tr/p8fgs8cd4pn1v7l1rzxd4yfr0000gn/T//ccgyOZ3Gdebugobj
                0x00000000                crkbd.c.c89a83db
                0x00003f29                default_keyboard.c.bb86d804
                0x00007986                keymap_introspection.c.eb438555
                0x0000d65f                quantum.c.09e3c40c
                0x000139ba                bitwise.c.f8089ecf
                0x00013baa                led.c.3b486398
                0x000171bc                action.c.cb908810
                0x0001d978                action_layer.c.f340ff6e
                0x000214b8                action_tapping.c.663c0320
                0x00024570                action_util.c.8d9f0583
                0x0002559e                eeconfig.c.21f18406
                0x00026105                keyboard.c.aaf2181c
                0x00029d48                keymap_common.c.9e277eca
                0x0002d30f                keycode_config.c.45e649c8
                0x0002ff65                sync_timer.c.d384380c
                0x000300cc                debug.c.c664c9dd
                0x00030a8d                sendchar.c.3227fa68
                0x00030b3f                print.c.1f50cca6
                0x00030c57                matrix_common.c.24e6e73b
                0x000348ce                matrix.c.ba47ac26
                0x00038a29                sym_defer_g.c.3b371384
                0x0003bed8                split_util.c.66312a19
                0x0003f928                transport.c.a54880d2
                0x0004340a                transactions.c.627b52b0
                0x000472e1                main.c.bcdf5d47
                0x00047398                printf.c.1599cd78
                0x00047c01                eeprom_driver.c.537f182c
                0x0004877c                eeprom_wear_leveling.c.55351950
                0x00049132                wear_leveling.c.48d7600a
                0x0004a233                wear_leveling_rp2040_flash.c.0f0736fb
                0x0004b33d                color.c.b1875379
                0x0004bde7                rgblight.c.cc6306ed
                0x0004dacb                rgblight_drivers.c.c5619cb9
                0x0004dbf9                process_rgb.c.dee51e7a
                0x00050d4f                led_tables.c.39a48fd4
                0x0005169d                qmk_fnv_type_validation.c.b52fa589
                0x000521bd                hash_32a.c.e2ff362e
                0x00052d63                hash_64a.c.81d49d5e
                0x00053909                oled_driver.c.4edd41be
                0x00057694                ws2812_vendor.c.f4a84409
                0x0005bb6b                bootmagic.c.d2741dac
                0x0005ef43                crc.c.cccbf2ed
                0x0005f063                dynamic_keymap.c.5b6346f8
                0x00061efb                process_grave_esc.c.ff56e0b0
                0x00064cce                process_magic.c.39c9a103
                0x00067a60                send_string.c.c89b1549
                0x0006d35f                process_space_cadet.c.e3330eef
                0x000700fb                process_tri_layer.c.a672c76f
                0x00072d98                tri_layer.c.a75ac0a1
                0x00072edb                via.c.67b58985
                0x00076d4f                host.c.727fce77
                0x00077d9f                report.c.ee4666db
                0x0007ac60                usb_device_state.c.6bf75d42
                0x0007adef                usb_util.c.3b69a119
                0x0007dddf                suspend.c.6fedb29d
                0x00080911                synchronization_util.c.bcbcb081
                0x000809a7                timer.c.1e0df88b
                0x00080a70                hardware_id.c.e71184df
                0x00081243                platform.c.3432fd23
                0x00083d30                suspend.c.676be922
                0x000871fd                timer.c.e8cd8772
                0x00087dfd                rp2040.c.417124dc
                0x0008aaa1                usb_main.c.e1b5b620
                0x0008fa54                chibios.c.1e748fd1
                0x000931ff                usb_descriptor.c.f41cc9cb
                0x00096c6b                usb_driver.c.ac94354e
                0x0009adc3                usb_util.c.3e03d75a
                0x0009df15                chmboxes.c.6ae69701
                0x0009e68b                chmemcore.c.dca2f973
                0x0009f323                chmemheaps.c.b35651c6
                0x0009fa99                chmempools.c.6090fd44
                0x000a020f                chpipes.c.28239bbd
                0x000a1213                chobjcaches.c.15c3db6c
                0x000a1989                chdelegates.c.8a4511d6
                0x000a20ff                chfactory.c.d8b0594d
                0x000a3103                crt1.c.8e85d932
                0x000a33de                chsys.c.5c3f479e
                0x000a45ca                chrfcu.c.4563ef8c
                0x000a4d7c                chdebug.c.4df714cb
                0x000a54f2                chtrace.c.5c08b12c
                0x000a5c68                chvt.c.bf313f33
                0x000a75f1                chschd.c.337a2233
                0x000a8605                chinstances.c.993b3ff5
                0x000a9231                chthreads.c.128d21fe
                0x000aa449                chtm.c.16d32f0a
                0x000aabbf                chstats.c.3b8b449a
                0x000ab335                chregistry.c.f1980c42
                0x000ac339                chsem.c.cace3f41
                0x000ad1c9                chmtx.c.13a3d173
                0x000adfc1                chcond.c.4acfc331
                0x000ae737                chevents.c.b4809b66
                0x000af7d9                chmsg.c.887fa6e9
                0x000aff4f                chdynamic.c.e12ca2e3
                0x000b06c5                chcore.c.4438bbb7
                0x000b1632                osal.c.81cf6fc6
                0x000b1da8                hal.c.ffc69fb3
                0x000b489e                hal_st.c.865c672a
                0x000b7ae6                hal_buffers.c.3f2aa2f0
                0x000bb969                hal_queues.c.2818061e
                0x000bf6c2                hal_flash.c.b2dd0597
                0x000c2694                hal_mmcsd.c.8943d0ff
                0x000c5179                hal_adc.c.b90aa138
                0x000c8324                hal_can.c.83aca2b2
                0x000cae09                hal_crypto.c.15f85230
                0x000cd8ee                hal_dac.c.4b5b44e5
                0x000d03d3                hal_efl.c.15145a3a
                0x000d2eb8                hal_gpt.c.32def95d
                0x000d599d                hal_i2c.c.81f723de
                0x000d8ab5                hal_i2s.c.ae1324f8
                0x000db59a                hal_icu.c.ea1aa2a8
                0x000de07f                hal_mac.c.ce06a263
                0x000e0b64                hal_mmc_spi.c.41cca18f
                0x000e3ed7                hal_pal.c.54b2b8f9
                0x000e6de3                hal_pwm.c.68f5dc13
                0x000e98c8                hal_rtc.c.17246c23
                0x000ec3ad                hal_sdc.c.23c4196f
                0x000ef720                hal_serial.c.4be9c2f2
                0x000f2205                hal_serial_usb.c.7f37637f
                0x000f4cea                hal_sio.c.e3b7434e
                0x000f77cf                hal_spi.c.f79df3ca
                0x000faa5c                hal_trng.c.719cc8ea
                0x000fd541                hal_uart.c.3ee8c7f5
                0x00100026                hal_usb.c.a3ce675b
                0x00104385                hal_wdg.c.1843c6ff
                0x00106e6a                hal_wspi.c.ba5dccef
                0x0010994f                nvic.c.e2496605
                0x0010c69d                rp_isr.c.9e43395f
                0x0010f192                hal_lld.c.0ec19efe
                0x00111d86                rp_dma.c.dd7f98de
                0x00115018                hal_pal_lld.c.521106f8
                0x00117b5c                hal_spi_lld.c.f9329786
                0x0011ae76                hal_st_lld.c.a1a77099
                0x0011e22a                hal_sio_lld.c.b752c8cb
                0x00120d0f                hal_rtc_lld.c.eb934d13
                0x001237f4                hal_wdg_lld.c.f7798b03
                0x001262d9                hal_i2c_lld.c.3d6f2aee
                0x0012979f                hal_pwm_lld.c.952fdb6c
                0x0012c284                hal_adc_lld.c.da822e04
                0x0012f34f                hal_usb_lld.c.964d8df4
                0x0013386c                board.c.d0c6c688
                0x00136361                chprintf.c.3b453aca
                0x001392ae                chscanf.c.e2fc2294
                0x0013c185                memstreams.c.de528905
                0x0013f7d3                nullstreams.c.62f0e413
                0x001424f5                bufstreams.c.245db9a3
                0x00145bcb                syscalls.c.6805d105
                0x0014705c                syscall_fallbacks.c.4b9d532c
                0x00147ef2                wait.c.523972ea
                0x0014a9d7                synchronization_util.c.4b46d0cf
                0x0014b169                interrupt_handlers.c.202b8aa5
                0x0014b8df                clocks.c.88d8ea1a
                0x0014c00c                pll.c.ec5f1a47
                0x0014c296                pio.c.5ef46269
                0x0014d114                timer.c.46b716f2
                0x0014d84f                flash.c.1a35b9e0
                0x0014df42                gpio.c.4480a660
                0x0014eac5                claim.c.002092d0
                0x0014edcf                watchdog.c.0bd86623
                0x0014f925                xosc.c.b02cd9c4
                0x0014fa99                bootrom.c.ad5d8481
                0x0014fc4a                stage2_bootloaders.c.757615ea
                0x0014fcf3                pico_sdk_shims.c.c398fc8c
 .debug_info    0x0014fd92    0x18f5d /var/folders/tr/p8fgs8cd4pn1v7l1rzxd4yfr0000gn/T//ccLV2jr4.ltrans0.ltrans.o
 .debug_info    0x00168cef      0x2f6 /var/folders/tr/p8fgs8cd4pn1v7l1rzxd4yfr0000gn/T//ccLV2jr4.ltrans1.ltrans.o
 .debug_info    0x00168fe5     0x3d53 .build/obj_crkbd_rev1_via/serial_protocol.a(serial_protocol.o)
 .debug_info    0x0016cd38     0x64c1 .build/obj_crkbd_rev1_via/serial_vendor.a(serial_vendor.o)
 .debug_info    0x001731f9     0x41ec .build/obj_crkbd_rev1_via/i2c_master.a(i2c_master.o)

.debug_abbrev   0x00000000    0x1855c
 .debug_abbrev  0x00000000    0x17012 /var/folders/tr/p8fgs8cd4pn1v7l1rzxd4yfr0000gn/T//ccgyOZ3Gdebugobj
 .debug_abbrev  0x00017012      0x400 /var/folders/tr/p8fgs8cd4pn1v7l1rzxd4yfr0000gn/T//ccLV2jr4.ltrans0.ltrans.o
 .debug_abbrev  0x00017412      0x129 /var/folders/tr/p8fgs8cd4pn1v7l1rzxd4yfr0000gn/T//ccLV2jr4.ltrans1.ltrans.o
 .debug_abbrev  0x0001753b      0x49c .build/obj_crkbd_rev1_via/serial_protocol.a(serial_protocol.o)
 .debug_abbrev  0x000179d7      0x73d .build/obj_crkbd_rev1_via/serial_vendor.a(serial_vendor.o)
 .debug_abbrev  0x00018114      0x448 .build/obj_crkbd_rev1_via/i2c_master.a(i2c_master.o)

.debug_line     0x00000000    0x39a02
 .debug_line    0x00000000    0x266f6 /var/folders/tr/p8fgs8cd4pn1v7l1rzxd4yfr0000gn/T//ccgyOZ3Gdebugobj
 .debug_line    0x000266f6    0x1040d /var/folders/tr/p8fgs8cd4pn1v7l1rzxd4yfr0000gn/T//ccLV2jr4.ltrans0.ltrans.o
 .debug_line    0x00036b03      0x23a /var/folders/tr/p8fgs8cd4pn1v7l1rzxd4yfr0000gn/T//ccLV2jr4.ltrans1.ltrans.o
 .debug_line    0x00036d3d      0x8ac .build/obj_crkbd_rev1_via/serial_protocol.a(serial_protocol.o)
 .debug_line    0x000375e9     0x1a83 .build/obj_crkbd_rev1_via/serial_vendor.a(serial_vendor.o)
 .debug_line    0x0003906c      0x996 .build/obj_crkbd_rev1_via/i2c_master.a(i2c_master.o)

.debug_str      0x00000000    0x1249a
 .debug_str     0x00000000    0xc7e3b /var/folders/tr/p8fgs8cd4pn1v7l1rzxd4yfr0000gn/T//ccgyOZ3Gdebugobj
 .debug_str     0x00000000      0x21e /var/folders/tr/p8fgs8cd4pn1v7l1rzxd4yfr0000gn/T//ccLV2jr4.ltrans0.ltrans.o
 .debug_str     0x00000000      0x168 /var/folders/tr/p8fgs8cd4pn1v7l1rzxd4yfr0000gn/T//ccLV2jr4.ltrans1.ltrans.o
 .debug_str     0x00000000    0x1249a .build/obj_crkbd_rev1_via/serial_protocol.a(serial_protocol.o)
                               0x1d2b (size before relaxing)
 .debug_str     0x0001249a     0x285c .build/obj_crkbd_rev1_via/serial_vendor.a(serial_vendor.o)
 .debug_str     0x0001249a     0x19a8 .build/obj_crkbd_rev1_via/i2c_master.a(i2c_master.o)

.debug_loc      0x00000000    0x16100
 .debug_loc     0x00000000    0x14237 /var/folders/tr/p8fgs8cd4pn1v7l1rzxd4yfr0000gn/T//ccLV2jr4.ltrans0.ltrans.o
 .debug_loc     0x00014237      0x1a2 /var/folders/tr/p8fgs8cd4pn1v7l1rzxd4yfr0000gn/T//ccLV2jr4.ltrans1.ltrans.o
 .debug_loc     0x000143d9      0x11b .build/obj_crkbd_rev1_via/serial_protocol.a(serial_protocol.o)
 .debug_loc     0x000144f4     0x1335 .build/obj_crkbd_rev1_via/serial_vendor.a(serial_vendor.o)
 .debug_loc     0x00015829      0x8d7 .build/obj_crkbd_rev1_via/i2c_master.a(i2c_master.o)

.debug_aranges  0x00000000      0x9c0
 .debug_aranges
                0x00000000      0x878 /var/folders/tr/p8fgs8cd4pn1v7l1rzxd4yfr0000gn/T//ccLV2jr4.ltrans0.ltrans.o
 .debug_aranges
                0x00000878       0x30 /var/folders/tr/p8fgs8cd4pn1v7l1rzxd4yfr0000gn/T//ccLV2jr4.ltrans1.ltrans.o
 .debug_aranges
                0x000008a8       0x38 .build/obj_crkbd_rev1_via/serial_protocol.a(serial_protocol.o)
 .debug_aranges
                0x000008e0       0x80 .build/obj_crkbd_rev1_via/serial_vendor.a(serial_vendor.o)
 .debug_aranges
                0x00000960       0x60 .build/obj_crkbd_rev1_via/i2c_master.a(i2c_master.o)

.debug_ranges   0x00000000     0x8200
 .debug_ranges  0x00000000     0x74c0 /var/folders/tr/p8fgs8cd4pn1v7l1rzxd4yfr0000gn/T//ccLV2jr4.ltrans0.ltrans.o
 .debug_ranges  0x000074c0       0x88 /var/folders/tr/p8fgs8cd4pn1v7l1rzxd4yfr0000gn/T//ccLV2jr4.ltrans1.ltrans.o
 .debug_ranges  0x00007548       0x80 .build/obj_crkbd_rev1_via/serial_protocol.a(serial_protocol.o)
 .debug_ranges  0x000075c8      0xb38 .build/obj_crkbd_rev1_via/serial_vendor.a(serial_vendor.o)
 .debug_ranges  0x00008100      0x100 .build/obj_crkbd_rev1_via/i2c_master.a(i2c_master.o)

.comment        0x00000000       0x26
 .comment       0x00000000       0x27 /var/folders/tr/p8fgs8cd4pn1v7l1rzxd4yfr0000gn/T//ccLV2jr4.ltrans0.ltrans.o
 .comment       0x00000000       0x27 /var/folders/tr/p8fgs8cd4pn1v7l1rzxd4yfr0000gn/T//ccLV2jr4.ltrans1.ltrans.o
 .comment       0x00000000       0x26 .build/obj_crkbd_rev1_via/serial_protocol.a(serial_protocol.o)
                                 0x27 (size before relaxing)
 .comment       0x00000026       0x27 .build/obj_crkbd_rev1_via/serial_vendor.a(serial_vendor.o)
 .comment       0x00000026       0x27 .build/obj_crkbd_rev1_via/i2c_master.a(i2c_master.o)

.ARM.attributes
                0x00000000       0x2a
 .ARM.attributes
                0x00000000       0x2a /var/folders/tr/p8fgs8cd4pn1v7l1rzxd4yfr0000gn/T//ccLV2jr4.ltrans0.ltrans.o
 .ARM.attributes
                0x0000002a       0x2a /var/folders/tr/p8fgs8cd4pn1v7l1rzxd4yfr0000gn/T//ccLV2jr4.ltrans1.ltrans.o
 .ARM.attributes
                0x00000054       0x2c .build/obj_crkbd_rev1_via/serial_protocol.a(serial_protocol.o)
 .ARM.attributes
                0x00000080       0x2c .build/obj_crkbd_rev1_via/serial_vendor.a(serial_vendor.o)
 .ARM.attributes
                0x000000ac       0x2c .build/obj_crkbd_rev1_via/i2c_master.a(i2c_master.o)
 .ARM.attributes
                0x000000d8       0x21 .build/obj_crkbd_rev1_via/./lib/chibios/os/common/startup/ARMCMx/compilers/GCC/crt0_v6m.o
 .ARM.attributes
                0x000000f9       0x21 .build/obj_crkbd_rev1_via/./lib/chibios/os/common/startup/ARMCMx/compilers/GCC/vectors.o
 .ARM.attributes
                0x0000011a       0x21 .build/obj_crkbd_rev1_via/./lib/chibios/os/common/ports/ARMv6-M-RP2/compilers/GCC/chcoreasm.o
 .ARM.attributes
                0x0000013b       0x22 .build/obj_crkbd_rev1_via/./lib/pico-sdk/src/rp2_common/pico_divider/divider.o
 .ARM.attributes
                0x0000015d       0x22 .build/obj_crkbd_rev1_via/./lib/pico-sdk/src/rp2_common/pico_int64_ops/pico_int64_ops_aeabi.o
 .ARM.attributes
                0x0000017f       0x1e /opt/homebrew/Cellar/arm-none-eabi-gcc@8/8.5.0_2/lib/arm-none-eabi-gcc/8/gcc/arm-none-eabi/8.5.0/thumb/v6-m/nofp/libgcc.a(_dvmd_tls.o)
 .ARM.attributes
                0x0000019d       0x2c /opt/homebrew/Cellar/arm-none-eabi-gcc@8/8.5.0_2/lib/arm-none-eabi-gcc/8/gcc/arm-none-eabi/8.5.0/thumb/v6-m/nofp/libgcc.a(_fixunssfsi.o)
 .ARM.attributes
                0x000001c9       0x2c /opt/homebrew/Cellar/arm-none-eabi-gcc@8/8.5.0_2/lib/arm-none-eabi-gcc/8/gcc/arm-none-eabi/8.5.0/thumb/v6-m/nofp/libgcc.a(divsf3.o)
 .ARM.attributes
                0x000001f5       0x2c /opt/homebrew/Cellar/arm-none-eabi-gcc@8/8.5.0_2/lib/arm-none-eabi-gcc/8/gcc/arm-none-eabi/8.5.0/thumb/v6-m/nofp/libgcc.a(mulsf3.o)
 .ARM.attributes
                0x00000221       0x2c /opt/homebrew/Cellar/arm-none-eabi-gcc@8/8.5.0_2/lib/arm-none-eabi-gcc/8/gcc/arm-none-eabi/8.5.0/thumb/v6-m/nofp/libgcc.a(subsf3.o)
 .ARM.attributes
                0x0000024d       0x2c /opt/homebrew/Cellar/arm-none-eabi-gcc@8/8.5.0_2/lib/arm-none-eabi-gcc/8/gcc/arm-none-eabi/8.5.0/thumb/v6-m/nofp/libgcc.a(fixsfsi.o)
 .ARM.attributes
                0x00000279       0x2c /opt/homebrew/Cellar/arm-none-eabi-gcc@8/8.5.0_2/lib/arm-none-eabi-gcc/8/gcc/arm-none-eabi/8.5.0/thumb/v6-m/nofp/libgcc.a(floatunsisf.o)
 .ARM.attributes
                0x000002a5       0x1e /opt/homebrew/Cellar/arm-none-eabi-gcc@8/8.5.0_2/lib/arm-none-eabi-gcc/8/gcc/arm-none-eabi/8.5.0/thumb/v6-m/nofp/libgcc.a(_arm_cmpsf2.o)
 .ARM.attributes
                0x000002c3       0x1e /opt/homebrew/Cellar/arm-none-eabi-gcc@8/8.5.0_2/lib/arm-none-eabi-gcc/8/gcc/arm-none-eabi/8.5.0/thumb/v6-m/nofp/libgcc.a(_clzsi2.o)
 .ARM.attributes
                0x000002e1       0x2c /opt/homebrew/Cellar/arm-none-eabi-gcc@8/8.5.0_2/lib/arm-none-eabi-gcc/8/gcc/arm-none-eabi/8.5.0/thumb/v6-m/nofp/libgcc.a(eqsf2.o)
 .ARM.attributes
                0x0000030d       0x2c /opt/homebrew/Cellar/arm-none-eabi-gcc@8/8.5.0_2/lib/arm-none-eabi-gcc/8/gcc/arm-none-eabi/8.5.0/thumb/v6-m/nofp/libgcc.a(gesf2.o)
 .ARM.attributes
                0x00000339       0x2c /opt/homebrew/Cellar/arm-none-eabi-gcc@8/8.5.0_2/lib/arm-none-eabi-gcc/8/gcc/arm-none-eabi/8.5.0/thumb/v6-m/nofp/libgcc.a(lesf2.o)
 .ARM.attributes
                0x00000365       0x1e /opt/homebrew/Cellar/arm-none-eabi-gcc@8/8.5.0_2/lib/arm-none-eabi-gcc/8/gcc/arm-none-eabi/8.5.0/thumb/v6-m/nofp/libgcc.a(_thumb1_case_sqi.o)
 .ARM.attributes
                0x00000383       0x1e /opt/homebrew/Cellar/arm-none-eabi-gcc@8/8.5.0_2/lib/arm-none-eabi-gcc/8/gcc/arm-none-eabi/8.5.0/thumb/v6-m/nofp/libgcc.a(_thumb1_case_uqi.o)
 .ARM.attributes
                0x000003a1       0x1e /opt/homebrew/Cellar/arm-none-eabi-gcc@8/8.5.0_2/lib/arm-none-eabi-gcc/8/gcc/arm-none-eabi/8.5.0/thumb/v6-m/nofp/libgcc.a(_thumb1_case_shi.o)
 .ARM.attributes
                0x000003bf       0x1e /opt/homebrew/Cellar/arm-none-eabi-gcc@8/8.5.0_2/lib/arm-none-eabi-gcc/8/gcc/arm-none-eabi/8.5.0/thumb/v6-m/nofp/libgcc.a(_thumb1_case_uhi.o)
 .ARM.attributes
                0x000003dd       0x1e /opt/homebrew/Cellar/arm-none-eabi-gcc@8/8.5.0_2/lib/arm-none-eabi-gcc/8/gcc/arm-none-eabi/8.5.0/thumb/v6-m/nofp/libgcc.a(_ctzsi2.o)
 .ARM.attributes
                0x000003fb       0x2c /opt/homebrew/Cellar/arm-none-eabi-gcc@8/8.5.0_2/lib/arm-none-eabi-gcc/8/gcc/arm-none-eabi/8.5.0/../../../../../../arm-none-eabi/lib/thumb/v6-m/nofp/libg_nano.a(lib_a-ctype_.o)
 .ARM.attributes
                0x00000427       0x2c /opt/homebrew/Cellar/arm-none-eabi-gcc@8/8.5.0_2/lib/arm-none-eabi-gcc/8/gcc/arm-none-eabi/8.5.0/../../../../../../arm-none-eabi/lib/thumb/v6-m/nofp/libg_nano.a(lib_a-memcpy-stub.o)
 .ARM.attributes
                0x00000453       0x2c /opt/homebrew/Cellar/arm-none-eabi-gcc@8/8.5.0_2/lib/arm-none-eabi-gcc/8/gcc/arm-none-eabi/8.5.0/../../../../../../arm-none-eabi/lib/thumb/v6-m/nofp/libg_nano.a(lib_a-memchr-stub.o)
 .ARM.attributes
                0x0000047f       0x2c /opt/homebrew/Cellar/arm-none-eabi-gcc@8/8.5.0_2/lib/arm-none-eabi-gcc/8/gcc/arm-none-eabi/8.5.0/../../../../../../arm-none-eabi/lib/thumb/v6-m/nofp/libg_nano.a(lib_a-memset.o)
 .ARM.attributes
                0x000004ab       0x2c /opt/homebrew/Cellar/arm-none-eabi-gcc@8/8.5.0_2/lib/arm-none-eabi-gcc/8/gcc/arm-none-eabi/8.5.0/../../../../../../arm-none-eabi/lib/thumb/v6-m/nofp/libg_nano.a(lib_a-memcmp.o)
 .ARM.attributes
                0x000004d7       0x2c /opt/homebrew/Cellar/arm-none-eabi-gcc@8/8.5.0_2/lib/arm-none-eabi-gcc/8/gcc/arm-none-eabi/8.5.0/../../../../../../arm-none-eabi/lib/thumb/v6-m/nofp/libg_nano.a(lib_a-strlen-stub.o)

.debug_frame    0x00000000     0x21b0
 .debug_frame   0x00000000     0x1b98 /var/folders/tr/p8fgs8cd4pn1v7l1rzxd4yfr0000gn/T//ccLV2jr4.ltrans0.ltrans.o
 .debug_frame   0x00001b98       0x58 /var/folders/tr/p8fgs8cd4pn1v7l1rzxd4yfr0000gn/T//ccLV2jr4.ltrans1.ltrans.o
 .debug_frame   0x00001bf0       0x84 .build/obj_crkbd_rev1_via/serial_protocol.a(serial_protocol.o)
 .debug_frame   0x00001c74      0x17c .build/obj_crkbd_rev1_via/serial_vendor.a(serial_vendor.o)
 .debug_frame   0x00001df0      0x130 .build/obj_crkbd_rev1_via/i2c_master.a(i2c_master.o)
 .debug_frame   0x00001f20       0x28 /opt/homebrew/Cellar/arm-none-eabi-gcc@8/8.5.0_2/lib/arm-none-eabi-gcc/8/gcc/arm-none-eabi/8.5.0/thumb/v6-m/nofp/libgcc.a(_fixunssfsi.o)
 .debug_frame   0x00001f48       0x38 /opt/homebrew/Cellar/arm-none-eabi-gcc@8/8.5.0_2/lib/arm-none-eabi-gcc/8/gcc/arm-none-eabi/8.5.0/thumb/v6-m/nofp/libgcc.a(divsf3.o)
 .debug_frame   0x00001f80       0x38 /opt/homebrew/Cellar/arm-none-eabi-gcc@8/8.5.0_2/lib/arm-none-eabi-gcc/8/gcc/arm-none-eabi/8.5.0/thumb/v6-m/nofp/libgcc.a(mulsf3.o)
 .debug_frame   0x00001fb8       0x3c /opt/homebrew/Cellar/arm-none-eabi-gcc@8/8.5.0_2/lib/arm-none-eabi-gcc/8/gcc/arm-none-eabi/8.5.0/thumb/v6-m/nofp/libgcc.a(subsf3.o)
 .debug_frame   0x00001ff4       0x20 /opt/homebrew/Cellar/arm-none-eabi-gcc@8/8.5.0_2/lib/arm-none-eabi-gcc/8/gcc/arm-none-eabi/8.5.0/thumb/v6-m/nofp/libgcc.a(fixsfsi.o)
 .debug_frame   0x00002014       0x2c /opt/homebrew/Cellar/arm-none-eabi-gcc@8/8.5.0_2/lib/arm-none-eabi-gcc/8/gcc/arm-none-eabi/8.5.0/thumb/v6-m/nofp/libgcc.a(floatunsisf.o)
 .debug_frame   0x00002040       0x2c /opt/homebrew/Cellar/arm-none-eabi-gcc@8/8.5.0_2/lib/arm-none-eabi-gcc/8/gcc/arm-none-eabi/8.5.0/thumb/v6-m/nofp/libgcc.a(eqsf2.o)
 .debug_frame   0x0000206c       0x30 /opt/homebrew/Cellar/arm-none-eabi-gcc@8/8.5.0_2/lib/arm-none-eabi-gcc/8/gcc/arm-none-eabi/8.5.0/thumb/v6-m/nofp/libgcc.a(gesf2.o)
 .debug_frame   0x0000209c       0x30 /opt/homebrew/Cellar/arm-none-eabi-gcc@8/8.5.0_2/lib/arm-none-eabi-gcc/8/gcc/arm-none-eabi/8.5.0/thumb/v6-m/nofp/libgcc.a(lesf2.o)
 .debug_frame   0x000020cc       0x34 /opt/homebrew/Cellar/arm-none-eabi-gcc@8/8.5.0_2/lib/arm-none-eabi-gcc/8/gcc/arm-none-eabi/8.5.0/../../../../../../arm-none-eabi/lib/thumb/v6-m/nofp/libg_nano.a(lib_a-memcpy-stub.o)
 .debug_frame   0x00002100       0x2c /opt/homebrew/Cellar/arm-none-eabi-gcc@8/8.5.0_2/lib/arm-none-eabi-gcc/8/gcc/arm-none-eabi/8.5.0/../../../../../../arm-none-eabi/lib/thumb/v6-m/nofp/libg_nano.a(lib_a-memchr-stub.o)
 .debug_frame   0x0000212c       0x30 /opt/homebrew/Cellar/arm-none-eabi-gcc@8/8.5.0_2/lib/arm-none-eabi-gcc/8/gcc/arm-none-eabi/8.5.0/../../../../../../arm-none-eabi/lib/thumb/v6-m/nofp/libg_nano.a(lib_a-memset.o)
 .debug_frame   0x0000215c       0x2c /opt/homebrew/Cellar/arm-none-eabi-gcc@8/8.5.0_2/lib/arm-none-eabi-gcc/8/gcc/arm-none-eabi/8.5.0/../../../../../../arm-none-eabi/lib/thumb/v6-m/nofp/libg_nano.a(lib_a-memcmp.o)
 .debug_frame   0x00002188       0x28 /opt/homebrew/Cellar/arm-none-eabi-gcc@8/8.5.0_2/lib/arm-none-eabi-gcc/8/gcc/arm-none-eabi/8.5.0/../../../../../../arm-none-eabi/lib/thumb/v6-m/nofp/libg_nano.a(lib_a-strlen-stub.o)

Cross Reference Table

Symbol                                            File
ADCD1                                             .build/obj_crkbd_rev1_via/lib/chibios-contrib/os/hal/ports/RP/LLD/ADCv1/hal_adc_lld.o (symbol from plugin)
BOOT2_ROM                                         /var/folders/tr/p8fgs8cd4pn1v7l1rzxd4yfr0000gn/T//ccLV2jr4.ltrans0.ltrans.o
                                                  .build/obj_crkbd_rev1_via/platforms/chibios/vendors/RP/stage2_bootloaders.o (symbol from plugin)
                                                  .build/obj_crkbd_rev1_via/wear_leveling_rp2040_flash.o (symbol from plugin)
BusFault_Handler                                  .build/obj_crkbd_rev1_via/./lib/chibios/os/common/startup/ARMCMx/compilers/GCC/vectors.o
CIE1931_CURVE                                     .build/obj_crkbd_rev1_via/quantum/led_tables.o (symbol from plugin)
                                                  .build/obj_crkbd_rev1_via/quantum/color.o (symbol from plugin)
ConfigurationDescriptor                           .build/obj_crkbd_rev1_via/usb_descriptor.o (symbol from plugin)
DebugMon_Handler                                  .build/obj_crkbd_rev1_via/./lib/chibios/os/common/startup/ARMCMx/compilers/GCC/vectors.o
DeviceDescriptor                                  .build/obj_crkbd_rev1_via/usb_descriptor.o (symbol from plugin)
HardFault_Handler                                 .build/obj_crkbd_rev1_via/./lib/chibios/os/common/startup/ARMCMx/compilers/GCC/vectors.o
I2CD1                                             /var/folders/tr/p8fgs8cd4pn1v7l1rzxd4yfr0000gn/T//ccLV2jr4.ltrans0.ltrans.o
                                                  .build/obj_crkbd_rev1_via/lib/chibios-contrib/os/hal/ports/RP/LLD/I2Cv1/hal_i2c_lld.o (symbol from plugin)
                                                  .build/obj_crkbd_rev1_via/i2c_master.a(i2c_master.o)
KeyboardReport                                    .build/obj_crkbd_rev1_via/usb_descriptor.o (symbol from plugin)
LanguageString                                    .build/obj_crkbd_rev1_via/usb_descriptor.o (symbol from plugin)
ManufacturerString                                .build/obj_crkbd_rev1_via/usb_descriptor.o (symbol from plugin)
MemManage_Handler                                 .build/obj_crkbd_rev1_via/./lib/chibios/os/common/startup/ARMCMx/compilers/GCC/vectors.o
NMI_Handler                                       /var/folders/tr/p8fgs8cd4pn1v7l1rzxd4yfr0000gn/T//ccLV2jr4.ltrans0.ltrans.o
                                                  .build/obj_crkbd_rev1_via/lib/chibios/os/common/ports/ARMv6-M-RP2/chcore.o (symbol from plugin)
                                                  .build/obj_crkbd_rev1_via/./lib/chibios/os/common/startup/ARMCMx/compilers/GCC/vectors.o
PendSV_Handler                                    .build/obj_crkbd_rev1_via/./lib/chibios/os/common/startup/ARMCMx/compilers/GCC/vectors.o
ProductString                                     .build/obj_crkbd_rev1_via/usb_descriptor.o (symbol from plugin)
RGBLED_BREATHING_INTERVALS                        .build/obj_crkbd_rev1_via/quantum/rgblight/rgblight.o (symbol from plugin)
RGBLED_GRADIENT_RANGES                            .build/obj_crkbd_rev1_via/quantum/rgblight/rgblight.o (symbol from plugin)
RGBLED_KNIGHT_INTERVALS                           .build/obj_crkbd_rev1_via/quantum/rgblight/rgblight.o (symbol from plugin)
RGBLED_RAINBOW_MOOD_INTERVALS                     .build/obj_crkbd_rev1_via/quantum/rgblight/rgblight.o (symbol from plugin)
RGBLED_RAINBOW_SWIRL_INTERVALS                    .build/obj_crkbd_rev1_via/quantum/rgblight/rgblight.o (symbol from plugin)
RGBLED_SNAKE_INTERVALS                            .build/obj_crkbd_rev1_via/quantum/rgblight/rgblight.o (symbol from plugin)
RawReport                                         .build/obj_crkbd_rev1_via/usb_descriptor.o (symbol from plugin)
Reset_Handler                                     .build/obj_crkbd_rev1_via/./lib/chibios/os/common/startup/ARMCMx/compilers/GCC/vectors.o
SPID0                                             .build/obj_crkbd_rev1_via/lib/chibios/os/hal/ports/RP/LLD/SPIv1/hal_spi_lld.o (symbol from plugin)
SVC_Handler                                       .build/obj_crkbd_rev1_via/./lib/chibios/os/common/startup/ARMCMx/compilers/GCC/vectors.o
SecureFault_Handler                               .build/obj_crkbd_rev1_via/./lib/chibios/os/common/startup/ARMCMx/compilers/GCC/vectors.o
SharedReport                                      .build/obj_crkbd_rev1_via/usb_descriptor.o (symbol from plugin)
SysTick_Handler                                   .build/obj_crkbd_rev1_via/./lib/chibios/os/common/startup/ARMCMx/compilers/GCC/vectors.o
SystemCoreClock                                   .build/obj_crkbd_rev1_via/lib/chibios/os/hal/ports/RP/RP2040/hal_lld.o (symbol from plugin)
USBD1                                             .build/obj_crkbd_rev1_via/lib/chibios-contrib/os/hal/ports/RP/LLD/USBDv1/hal_usb_lld.o (symbol from plugin)
                                                  .build/obj_crkbd_rev1_via/protocol/chibios/usb_util.o (symbol from plugin)
                                                  .build/obj_crkbd_rev1_via/protocol/chibios/chibios.o (symbol from plugin)
                                                  .build/obj_crkbd_rev1_via/protocol/chibios/usb_main.o (symbol from plugin)
UsageFault_Handler                                .build/obj_crkbd_rev1_via/./lib/chibios/os/common/startup/ARMCMx/compilers/GCC/vectors.o
Vector20                                          .build/obj_crkbd_rev1_via/./lib/chibios/os/common/startup/ARMCMx/compilers/GCC/vectors.o
Vector24                                          .build/obj_crkbd_rev1_via/./lib/chibios/os/common/startup/ARMCMx/compilers/GCC/vectors.o
Vector28                                          .build/obj_crkbd_rev1_via/./lib/chibios/os/common/startup/ARMCMx/compilers/GCC/vectors.o
Vector34                                          .build/obj_crkbd_rev1_via/./lib/chibios/os/common/startup/ARMCMx/compilers/GCC/vectors.o
Vector40                                          /var/folders/tr/p8fgs8cd4pn1v7l1rzxd4yfr0000gn/T//ccLV2jr4.ltrans0.ltrans.o
                                                  .build/obj_crkbd_rev1_via/lib/chibios/os/hal/ports/RP/LLD/TIMERv1/hal_st_lld.o (symbol from plugin)
                                                  .build/obj_crkbd_rev1_via/./lib/chibios/os/common/startup/ARMCMx/compilers/GCC/vectors.o
Vector44                                          /var/folders/tr/p8fgs8cd4pn1v7l1rzxd4yfr0000gn/T//ccLV2jr4.ltrans0.ltrans.o
                                                  .build/obj_crkbd_rev1_via/lib/chibios/os/hal/ports/RP/LLD/TIMERv1/hal_st_lld.o (symbol from plugin)
                                                  .build/obj_crkbd_rev1_via/./lib/chibios/os/common/startup/ARMCMx/compilers/GCC/vectors.o
Vector48                                          /var/folders/tr/p8fgs8cd4pn1v7l1rzxd4yfr0000gn/T//ccLV2jr4.ltrans0.ltrans.o
                                                  .build/obj_crkbd_rev1_via/lib/chibios/os/hal/ports/RP/LLD/TIMERv1/hal_st_lld.o (symbol from plugin)
                                                  .build/obj_crkbd_rev1_via/./lib/chibios/os/common/startup/ARMCMx/compilers/GCC/vectors.o
Vector4C                                          /var/folders/tr/p8fgs8cd4pn1v7l1rzxd4yfr0000gn/T//ccLV2jr4.ltrans0.ltrans.o
                                                  .build/obj_crkbd_rev1_via/lib/chibios/os/hal/ports/RP/LLD/TIMERv1/hal_st_lld.o (symbol from plugin)
                                                  .build/obj_crkbd_rev1_via/./lib/chibios/os/common/startup/ARMCMx/compilers/GCC/vectors.o
Vector50                                          .build/obj_crkbd_rev1_via/./lib/chibios/os/common/startup/ARMCMx/compilers/GCC/vectors.o
Vector54                                          /var/folders/tr/p8fgs8cd4pn1v7l1rzxd4yfr0000gn/T//ccLV2jr4.ltrans0.ltrans.o
                                                  .build/obj_crkbd_rev1_via/lib/chibios-contrib/os/hal/ports/RP/LLD/USBDv1/hal_usb_lld.o (symbol from plugin)
                                                  .build/obj_crkbd_rev1_via/./lib/chibios/os/common/startup/ARMCMx/compilers/GCC/vectors.o
Vector58                                          .build/obj_crkbd_rev1_via/./lib/chibios/os/common/startup/ARMCMx/compilers/GCC/vectors.o
Vector5C                                          .build/obj_crkbd_rev1_via/serial_vendor.a(serial_vendor.o)
Vector60                                          .build/obj_crkbd_rev1_via/./lib/chibios/os/common/startup/ARMCMx/compilers/GCC/vectors.o
Vector64                                          .build/obj_crkbd_rev1_via/./lib/chibios/os/common/startup/ARMCMx/compilers/GCC/vectors.o
Vector68                                          .build/obj_crkbd_rev1_via/./lib/chibios/os/common/startup/ARMCMx/compilers/GCC/vectors.o
Vector6C                                          /var/folders/tr/p8fgs8cd4pn1v7l1rzxd4yfr0000gn/T//ccLV2jr4.ltrans0.ltrans.o
                                                  .build/obj_crkbd_rev1_via/lib/chibios/os/hal/ports/RP/LLD/DMAv1/rp_dma.o (symbol from plugin)
                                                  .build/obj_crkbd_rev1_via/./lib/chibios/os/common/startup/ARMCMx/compilers/GCC/vectors.o
Vector70                                          /var/folders/tr/p8fgs8cd4pn1v7l1rzxd4yfr0000gn/T//ccLV2jr4.ltrans0.ltrans.o
                                                  .build/obj_crkbd_rev1_via/lib/chibios/os/hal/ports/RP/LLD/DMAv1/rp_dma.o (symbol from plugin)
                                                  .build/obj_crkbd_rev1_via/./lib/chibios/os/common/startup/ARMCMx/compilers/GCC/vectors.o
Vector74                                          .build/obj_crkbd_rev1_via/./lib/chibios/os/common/startup/ARMCMx/compilers/GCC/vectors.o
Vector78                                          .build/obj_crkbd_rev1_via/./lib/chibios/os/common/startup/ARMCMx/compilers/GCC/vectors.o
Vector7C                                          /var/folders/tr/p8fgs8cd4pn1v7l1rzxd4yfr0000gn/T//ccLV2jr4.ltrans0.ltrans.o
                                                  .build/obj_crkbd_rev1_via/lib/chibios/os/common/ports/ARMv6-M-RP2/chcore.o (symbol from plugin)
                                                  .build/obj_crkbd_rev1_via/./lib/chibios/os/common/startup/ARMCMx/compilers/GCC/vectors.o
Vector80                                          /var/folders/tr/p8fgs8cd4pn1v7l1rzxd4yfr0000gn/T//ccLV2jr4.ltrans0.ltrans.o
                                                  .build/obj_crkbd_rev1_via/lib/chibios/os/common/ports/ARMv6-M-RP2/chcore.o (symbol from plugin)
                                                  .build/obj_crkbd_rev1_via/./lib/chibios/os/common/startup/ARMCMx/compilers/GCC/vectors.o
Vector84                                          .build/obj_crkbd_rev1_via/./lib/chibios/os/common/startup/ARMCMx/compilers/GCC/vectors.o
Vector88                                          .build/obj_crkbd_rev1_via/./lib/chibios/os/common/startup/ARMCMx/compilers/GCC/vectors.o
Vector8C                                          .build/obj_crkbd_rev1_via/./lib/chibios/os/common/startup/ARMCMx/compilers/GCC/vectors.o
Vector90                                          .build/obj_crkbd_rev1_via/./lib/chibios/os/common/startup/ARMCMx/compilers/GCC/vectors.o
Vector94                                          .build/obj_crkbd_rev1_via/./lib/chibios/os/common/startup/ARMCMx/compilers/GCC/vectors.o
Vector98                                          /var/folders/tr/p8fgs8cd4pn1v7l1rzxd4yfr0000gn/T//ccLV2jr4.ltrans0.ltrans.o
                                                  .build/obj_crkbd_rev1_via/lib/chibios-contrib/os/hal/ports/RP/LLD/ADCv1/hal_adc_lld.o (symbol from plugin)
                                                  .build/obj_crkbd_rev1_via/./lib/chibios/os/common/startup/ARMCMx/compilers/GCC/vectors.o
Vector9C                                          .build/obj_crkbd_rev1_via/./lib/chibios/os/common/startup/ARMCMx/compilers/GCC/vectors.o
VectorA0                                          /var/folders/tr/p8fgs8cd4pn1v7l1rzxd4yfr0000gn/T//ccLV2jr4.ltrans0.ltrans.o
                                                  .build/obj_crkbd_rev1_via/lib/chibios-contrib/os/hal/ports/RP/LLD/I2Cv1/hal_i2c_lld.o (symbol from plugin)
                                                  .build/obj_crkbd_rev1_via/./lib/chibios/os/common/startup/ARMCMx/compilers/GCC/vectors.o
VectorA4                                          .build/obj_crkbd_rev1_via/./lib/chibios/os/common/startup/ARMCMx/compilers/GCC/vectors.o
VectorA8                                          .build/obj_crkbd_rev1_via/./lib/chibios/os/common/startup/ARMCMx/compilers/GCC/vectors.o
VectorAC                                          .build/obj_crkbd_rev1_via/./lib/chibios/os/common/startup/ARMCMx/compilers/GCC/vectors.o
VectorB0                                          .build/obj_crkbd_rev1_via/./lib/chibios/os/common/startup/ARMCMx/compilers/GCC/vectors.o
VectorB4                                          .build/obj_crkbd_rev1_via/./lib/chibios/os/common/startup/ARMCMx/compilers/GCC/vectors.o
VectorB8                                          .build/obj_crkbd_rev1_via/./lib/chibios/os/common/startup/ARMCMx/compilers/GCC/vectors.o
VectorBC                                          .build/obj_crkbd_rev1_via/./lib/chibios/os/common/startup/ARMCMx/compilers/GCC/vectors.o
__aeabi_cfcmpeq                                   /opt/homebrew/Cellar/arm-none-eabi-gcc@8/8.5.0_2/lib/arm-none-eabi-gcc/8/gcc/arm-none-eabi/8.5.0/thumb/v6-m/nofp/libgcc.a(_arm_cmpsf2.o)
__aeabi_cfcmple                                   /opt/homebrew/Cellar/arm-none-eabi-gcc@8/8.5.0_2/lib/arm-none-eabi-gcc/8/gcc/arm-none-eabi/8.5.0/thumb/v6-m/nofp/libgcc.a(_arm_cmpsf2.o)
__aeabi_cfrcmple                                  /opt/homebrew/Cellar/arm-none-eabi-gcc@8/8.5.0_2/lib/arm-none-eabi-gcc/8/gcc/arm-none-eabi/8.5.0/thumb/v6-m/nofp/libgcc.a(_arm_cmpsf2.o)
__aeabi_f2iz                                      /opt/homebrew/Cellar/arm-none-eabi-gcc@8/8.5.0_2/lib/arm-none-eabi-gcc/8/gcc/arm-none-eabi/8.5.0/thumb/v6-m/nofp/libgcc.a(fixsfsi.o)
                                                  /opt/homebrew/Cellar/arm-none-eabi-gcc@8/8.5.0_2/lib/arm-none-eabi-gcc/8/gcc/arm-none-eabi/8.5.0/thumb/v6-m/nofp/libgcc.a(_fixunssfsi.o)
__aeabi_f2uiz                                     /opt/homebrew/Cellar/arm-none-eabi-gcc@8/8.5.0_2/lib/arm-none-eabi-gcc/8/gcc/arm-none-eabi/8.5.0/thumb/v6-m/nofp/libgcc.a(_fixunssfsi.o)
                                                  /var/folders/tr/p8fgs8cd4pn1v7l1rzxd4yfr0000gn/T//ccLV2jr4.ltrans0.ltrans.o
                                                  .build/obj_crkbd_rev1_via/serial_vendor.a(serial_vendor.o)
__aeabi_fcmpeq                                    /opt/homebrew/Cellar/arm-none-eabi-gcc@8/8.5.0_2/lib/arm-none-eabi-gcc/8/gcc/arm-none-eabi/8.5.0/thumb/v6-m/nofp/libgcc.a(_arm_cmpsf2.o)
__aeabi_fcmpge                                    /opt/homebrew/Cellar/arm-none-eabi-gcc@8/8.5.0_2/lib/arm-none-eabi-gcc/8/gcc/arm-none-eabi/8.5.0/thumb/v6-m/nofp/libgcc.a(_arm_cmpsf2.o)
                                                  /opt/homebrew/Cellar/arm-none-eabi-gcc@8/8.5.0_2/lib/arm-none-eabi-gcc/8/gcc/arm-none-eabi/8.5.0/thumb/v6-m/nofp/libgcc.a(_fixunssfsi.o)
__aeabi_fcmpgt                                    /opt/homebrew/Cellar/arm-none-eabi-gcc@8/8.5.0_2/lib/arm-none-eabi-gcc/8/gcc/arm-none-eabi/8.5.0/thumb/v6-m/nofp/libgcc.a(_arm_cmpsf2.o)
__aeabi_fcmple                                    /opt/homebrew/Cellar/arm-none-eabi-gcc@8/8.5.0_2/lib/arm-none-eabi-gcc/8/gcc/arm-none-eabi/8.5.0/thumb/v6-m/nofp/libgcc.a(_arm_cmpsf2.o)
__aeabi_fcmplt                                    /opt/homebrew/Cellar/arm-none-eabi-gcc@8/8.5.0_2/lib/arm-none-eabi-gcc/8/gcc/arm-none-eabi/8.5.0/thumb/v6-m/nofp/libgcc.a(_arm_cmpsf2.o)
__aeabi_fdiv                                      /opt/homebrew/Cellar/arm-none-eabi-gcc@8/8.5.0_2/lib/arm-none-eabi-gcc/8/gcc/arm-none-eabi/8.5.0/thumb/v6-m/nofp/libgcc.a(divsf3.o)
                                                  /var/folders/tr/p8fgs8cd4pn1v7l1rzxd4yfr0000gn/T//ccLV2jr4.ltrans0.ltrans.o
                                                  .build/obj_crkbd_rev1_via/serial_vendor.a(serial_vendor.o)
__aeabi_fmul                                      /opt/homebrew/Cellar/arm-none-eabi-gcc@8/8.5.0_2/lib/arm-none-eabi-gcc/8/gcc/arm-none-eabi/8.5.0/thumb/v6-m/nofp/libgcc.a(mulsf3.o)
                                                  /var/folders/tr/p8fgs8cd4pn1v7l1rzxd4yfr0000gn/T//ccLV2jr4.ltrans0.ltrans.o
                                                  .build/obj_crkbd_rev1_via/serial_vendor.a(serial_vendor.o)
__aeabi_fsub                                      /opt/homebrew/Cellar/arm-none-eabi-gcc@8/8.5.0_2/lib/arm-none-eabi-gcc/8/gcc/arm-none-eabi/8.5.0/thumb/v6-m/nofp/libgcc.a(subsf3.o)
                                                  /var/folders/tr/p8fgs8cd4pn1v7l1rzxd4yfr0000gn/T//ccLV2jr4.ltrans0.ltrans.o
                                                  /opt/homebrew/Cellar/arm-none-eabi-gcc@8/8.5.0_2/lib/arm-none-eabi-gcc/8/gcc/arm-none-eabi/8.5.0/thumb/v6-m/nofp/libgcc.a(_fixunssfsi.o)
                                                  .build/obj_crkbd_rev1_via/serial_vendor.a(serial_vendor.o)
__aeabi_idiv0                                     /opt/homebrew/Cellar/arm-none-eabi-gcc@8/8.5.0_2/lib/arm-none-eabi-gcc/8/gcc/arm-none-eabi/8.5.0/thumb/v6-m/nofp/libgcc.a(_dvmd_tls.o)
                                                  .build/obj_crkbd_rev1_via/./lib/pico-sdk/src/rp2_common/pico_divider/divider.o
__aeabi_ldiv0                                     /opt/homebrew/Cellar/arm-none-eabi-gcc@8/8.5.0_2/lib/arm-none-eabi-gcc/8/gcc/arm-none-eabi/8.5.0/thumb/v6-m/nofp/libgcc.a(_dvmd_tls.o)
                                                  .build/obj_crkbd_rev1_via/./lib/pico-sdk/src/rp2_common/pico_divider/divider.o
__aeabi_ui2f                                      /opt/homebrew/Cellar/arm-none-eabi-gcc@8/8.5.0_2/lib/arm-none-eabi-gcc/8/gcc/arm-none-eabi/8.5.0/thumb/v6-m/nofp/libgcc.a(floatunsisf.o)
                                                  /var/folders/tr/p8fgs8cd4pn1v7l1rzxd4yfr0000gn/T//ccLV2jr4.ltrans0.ltrans.o
                                                  .build/obj_crkbd_rev1_via/serial_vendor.a(serial_vendor.o)
__assert                                          /opt/homebrew/Cellar/arm-none-eabi-gcc@8/8.5.0_2/lib/arm-none-eabi-gcc/8/gcc/arm-none-eabi/8.5.0/../../../../../../arm-none-eabi/lib/thumb/v6-m/nofp/libg_nano.a(lib_a-assert.o)
__assert_func                                     /opt/homebrew/Cellar/arm-none-eabi-gcc@8/8.5.0_2/lib/arm-none-eabi-gcc/8/gcc/arm-none-eabi/8.5.0/../../../../../../arm-none-eabi/lib/thumb/v6-m/nofp/libg_nano.a(lib_a-assert.o)
                                                  /opt/homebrew/Cellar/arm-none-eabi-gcc@8/8.5.0_2/lib/arm-none-eabi-gcc/8/gcc/arm-none-eabi/8.5.0/../../../../../../arm-none-eabi/lib/thumb/v6-m/nofp/libg_nano.a(lib_a-rand.o)
__bss_base__                                      .build/obj_crkbd_rev1_via/./lib/chibios/os/common/startup/ARMCMx/compilers/GCC/crt0_v6m.o
__bss_end__                                       .build/obj_crkbd_rev1_via/./lib/chibios/os/common/startup/ARMCMx/compilers/GCC/crt0_v6m.o
__chibios_override___early_init                   .build/obj_crkbd_rev1_via/lib/chibios/os/hal/boards/RP_PICO_RP2040/board.o (symbol from plugin)
                                                  .build/obj_crkbd_rev1_via/protocol/chibios/chibios.o (symbol from plugin)
__chibios_override_boardInit                      .build/obj_crkbd_rev1_via/lib/chibios/os/hal/boards/RP_PICO_RP2040/board.o (symbol from plugin)
                                                  .build/obj_crkbd_rev1_via/protocol/chibios/chibios.o (symbol from plugin)
__clzsi2                                          /opt/homebrew/Cellar/arm-none-eabi-gcc@8/8.5.0_2/lib/arm-none-eabi-gcc/8/gcc/arm-none-eabi/8.5.0/thumb/v6-m/nofp/libgcc.a(_clzsi2.o)
                                                  /opt/homebrew/Cellar/arm-none-eabi-gcc@8/8.5.0_2/lib/arm-none-eabi-gcc/8/gcc/arm-none-eabi/8.5.0/thumb/v6-m/nofp/libgcc.a(floatunsisf.o)
                                                  /opt/homebrew/Cellar/arm-none-eabi-gcc@8/8.5.0_2/lib/arm-none-eabi-gcc/8/gcc/arm-none-eabi/8.5.0/thumb/v6-m/nofp/libgcc.a(subsf3.o)
                                                  /opt/homebrew/Cellar/arm-none-eabi-gcc@8/8.5.0_2/lib/arm-none-eabi-gcc/8/gcc/arm-none-eabi/8.5.0/thumb/v6-m/nofp/libgcc.a(mulsf3.o)
                                                  /opt/homebrew/Cellar/arm-none-eabi-gcc@8/8.5.0_2/lib/arm-none-eabi-gcc/8/gcc/arm-none-eabi/8.5.0/thumb/v6-m/nofp/libgcc.a(divsf3.o)
__core_init                                       .build/obj_crkbd_rev1_via/./lib/chibios/os/oslib/src/chmemcore.o (symbol from plugin)
                                                  .build/obj_crkbd_rev1_via/lib/chibios/os/rt/src/chsys.o (symbol from plugin)
__cpu_init                                        /var/folders/tr/p8fgs8cd4pn1v7l1rzxd4yfr0000gn/T//ccLV2jr4.ltrans0.ltrans.o
                                                  .build/obj_crkbd_rev1_via/lib/chibios/os/common/startup/ARMCMx/compilers/GCC/crt1.o (symbol from plugin)
                                                  .build/obj_crkbd_rev1_via/./lib/chibios/os/common/startup/ARMCMx/compilers/GCC/crt0_v6m.o
__ctzsi2                                          /opt/homebrew/Cellar/arm-none-eabi-gcc@8/8.5.0_2/lib/arm-none-eabi-gcc/8/gcc/arm-none-eabi/8.5.0/thumb/v6-m/nofp/libgcc.a(_ctzsi2.o)
                                                  /var/folders/tr/p8fgs8cd4pn1v7l1rzxd4yfr0000gn/T//ccLV2jr4.ltrans0.ltrans.o
__cxa_pure_virtual                                .build/obj_crkbd_rev1_via/lib/chibios/os/various/syscalls.o (symbol from plugin)
__data_base__                                     .build/obj_crkbd_rev1_via/./lib/chibios/os/common/startup/ARMCMx/compilers/GCC/crt0_v6m.o
__data_end__                                      .build/obj_crkbd_rev1_via/./lib/chibios/os/common/startup/ARMCMx/compilers/GCC/crt0_v6m.o
__default_exit                                    /var/folders/tr/p8fgs8cd4pn1v7l1rzxd4yfr0000gn/T//ccLV2jr4.ltrans0.ltrans.o
                                                  .build/obj_crkbd_rev1_via/lib/chibios/os/common/startup/ARMCMx/compilers/GCC/crt1.o (symbol from plugin)
                                                  .build/obj_crkbd_rev1_via/./lib/chibios/os/common/startup/ARMCMx/compilers/GCC/crt0_v6m.o
__dso_handle                                      /var/folders/tr/p8fgs8cd4pn1v7l1rzxd4yfr0000gn/T//ccLV2jr4.ltrans1.ltrans.o
                                                  .build/obj_crkbd_rev1_via/platforms/chibios/syscall-fallbacks.o (symbol from plugin)
__early_init                                      /var/folders/tr/p8fgs8cd4pn1v7l1rzxd4yfr0000gn/T//ccLV2jr4.ltrans0.ltrans.o
                                                  .build/obj_crkbd_rev1_via/protocol/chibios/chibios.o (symbol from plugin)
                                                  .build/obj_crkbd_rev1_via/./lib/chibios/os/common/startup/ARMCMx/compilers/GCC/crt0_v6m.o
__eqsf2                                           /opt/homebrew/Cellar/arm-none-eabi-gcc@8/8.5.0_2/lib/arm-none-eabi-gcc/8/gcc/arm-none-eabi/8.5.0/thumb/v6-m/nofp/libgcc.a(eqsf2.o)
                                                  /opt/homebrew/Cellar/arm-none-eabi-gcc@8/8.5.0_2/lib/arm-none-eabi-gcc/8/gcc/arm-none-eabi/8.5.0/thumb/v6-m/nofp/libgcc.a(_arm_cmpsf2.o)
__errno                                           /opt/homebrew/Cellar/arm-none-eabi-gcc@8/8.5.0_2/lib/arm-none-eabi-gcc/8/gcc/arm-none-eabi/8.5.0/../../../../../../arm-none-eabi/lib/thumb/v6-m/nofp/libg_nano.a(lib_a-errno.o)
                                                  .build/obj_crkbd_rev1_via/platforms/chibios/syscall-fallbacks.o (symbol from plugin)
__fini_array_base__                               .build/obj_crkbd_rev1_via/./lib/chibios/os/common/startup/ARMCMx/compilers/GCC/crt0_v6m.o
__fini_array_end__                                .build/obj_crkbd_rev1_via/./lib/chibios/os/common/startup/ARMCMx/compilers/GCC/crt0_v6m.o
__fixunssfsi                                      /opt/homebrew/Cellar/arm-none-eabi-gcc@8/8.5.0_2/lib/arm-none-eabi-gcc/8/gcc/arm-none-eabi/8.5.0/thumb/v6-m/nofp/libgcc.a(_fixunssfsi.o)
__fp_lock_all                                     /opt/homebrew/Cellar/arm-none-eabi-gcc@8/8.5.0_2/lib/arm-none-eabi-gcc/8/gcc/arm-none-eabi/8.5.0/../../../../../../arm-none-eabi/lib/thumb/v6-m/nofp/libg_nano.a(lib_a-findfp.o)
__fp_unlock_all                                   /opt/homebrew/Cellar/arm-none-eabi-gcc@8/8.5.0_2/lib/arm-none-eabi-gcc/8/gcc/arm-none-eabi/8.5.0/../../../../../../arm-none-eabi/lib/thumb/v6-m/nofp/libg_nano.a(lib_a-findfp.o)
__gesf2                                           /opt/homebrew/Cellar/arm-none-eabi-gcc@8/8.5.0_2/lib/arm-none-eabi-gcc/8/gcc/arm-none-eabi/8.5.0/thumb/v6-m/nofp/libgcc.a(gesf2.o)
                                                  /opt/homebrew/Cellar/arm-none-eabi-gcc@8/8.5.0_2/lib/arm-none-eabi-gcc/8/gcc/arm-none-eabi/8.5.0/thumb/v6-m/nofp/libgcc.a(_arm_cmpsf2.o)
__gnu_thumb1_case_shi                             /opt/homebrew/Cellar/arm-none-eabi-gcc@8/8.5.0_2/lib/arm-none-eabi-gcc/8/gcc/arm-none-eabi/8.5.0/thumb/v6-m/nofp/libgcc.a(_thumb1_case_shi.o)
                                                  /var/folders/tr/p8fgs8cd4pn1v7l1rzxd4yfr0000gn/T//ccLV2jr4.ltrans0.ltrans.o
__gnu_thumb1_case_sqi                             /opt/homebrew/Cellar/arm-none-eabi-gcc@8/8.5.0_2/lib/arm-none-eabi-gcc/8/gcc/arm-none-eabi/8.5.0/thumb/v6-m/nofp/libgcc.a(_thumb1_case_sqi.o)
                                                  /var/folders/tr/p8fgs8cd4pn1v7l1rzxd4yfr0000gn/T//ccLV2jr4.ltrans0.ltrans.o
__gnu_thumb1_case_uhi                             /opt/homebrew/Cellar/arm-none-eabi-gcc@8/8.5.0_2/lib/arm-none-eabi-gcc/8/gcc/arm-none-eabi/8.5.0/thumb/v6-m/nofp/libgcc.a(_thumb1_case_uhi.o)
                                                  /var/folders/tr/p8fgs8cd4pn1v7l1rzxd4yfr0000gn/T//ccLV2jr4.ltrans0.ltrans.o
__gnu_thumb1_case_uqi                             /opt/homebrew/Cellar/arm-none-eabi-gcc@8/8.5.0_2/lib/arm-none-eabi-gcc/8/gcc/arm-none-eabi/8.5.0/thumb/v6-m/nofp/libgcc.a(_thumb1_case_uqi.o)
                                                  /var/folders/tr/p8fgs8cd4pn1v7l1rzxd4yfr0000gn/T//ccLV2jr4.ltrans0.ltrans.o
__gtsf2                                           /opt/homebrew/Cellar/arm-none-eabi-gcc@8/8.5.0_2/lib/arm-none-eabi-gcc/8/gcc/arm-none-eabi/8.5.0/thumb/v6-m/nofp/libgcc.a(gesf2.o)
__heap_base__                                     /var/folders/tr/p8fgs8cd4pn1v7l1rzxd4yfr0000gn/T//ccLV2jr4.ltrans0.ltrans.o
                                                  .build/obj_crkbd_rev1_via/./lib/chibios/os/oslib/src/chmemcore.o (symbol from plugin)
__heap_end__                                      /var/folders/tr/p8fgs8cd4pn1v7l1rzxd4yfr0000gn/T//ccLV2jr4.ltrans0.ltrans.o
                                                  .build/obj_crkbd_rev1_via/./lib/chibios/os/oslib/src/chmemcore.o (symbol from plugin)
__init_array_base__                               .build/obj_crkbd_rev1_via/./lib/chibios/os/common/startup/ARMCMx/compilers/GCC/crt0_v6m.o
__init_array_end__                                .build/obj_crkbd_rev1_via/./lib/chibios/os/common/startup/ARMCMx/compilers/GCC/crt0_v6m.o
__init_ram_areas                                  /var/folders/tr/p8fgs8cd4pn1v7l1rzxd4yfr0000gn/T//ccLV2jr4.ltrans0.ltrans.o
                                                  .build/obj_crkbd_rev1_via/lib/chibios/os/common/startup/ARMCMx/compilers/GCC/crt1.o (symbol from plugin)
                                                  .build/obj_crkbd_rev1_via/./lib/chibios/os/common/startup/ARMCMx/compilers/GCC/crt0_v6m.o
__late_init                                       /var/folders/tr/p8fgs8cd4pn1v7l1rzxd4yfr0000gn/T//ccLV2jr4.ltrans0.ltrans.o
                                                  .build/obj_crkbd_rev1_via/platforms/chibios/bootloaders/rp2040.o (symbol from plugin)
                                                  .build/obj_crkbd_rev1_via/./lib/chibios/os/common/startup/ARMCMx/compilers/GCC/crt0_v6m.o
__lesf2                                           /opt/homebrew/Cellar/arm-none-eabi-gcc@8/8.5.0_2/lib/arm-none-eabi-gcc/8/gcc/arm-none-eabi/8.5.0/thumb/v6-m/nofp/libgcc.a(lesf2.o)
                                                  /opt/homebrew/Cellar/arm-none-eabi-gcc@8/8.5.0_2/lib/arm-none-eabi-gcc/8/gcc/arm-none-eabi/8.5.0/thumb/v6-m/nofp/libgcc.a(_arm_cmpsf2.o)
__lock___arc4random_mutex                         /opt/homebrew/Cellar/arm-none-eabi-gcc@8/8.5.0_2/lib/arm-none-eabi-gcc/8/gcc/arm-none-eabi/8.5.0/../../../../../../arm-none-eabi/lib/thumb/v6-m/nofp/libg_nano.a(lib_a-lock.o)
__lock___at_quick_exit_mutex                      /opt/homebrew/Cellar/arm-none-eabi-gcc@8/8.5.0_2/lib/arm-none-eabi-gcc/8/gcc/arm-none-eabi/8.5.0/../../../../../../arm-none-eabi/lib/thumb/v6-m/nofp/libg_nano.a(lib_a-lock.o)
__lock___atexit_recursive_mutex                   /opt/homebrew/Cellar/arm-none-eabi-gcc@8/8.5.0_2/lib/arm-none-eabi-gcc/8/gcc/arm-none-eabi/8.5.0/../../../../../../arm-none-eabi/lib/thumb/v6-m/nofp/libg_nano.a(lib_a-lock.o)
__lock___dd_hash_mutex                            /opt/homebrew/Cellar/arm-none-eabi-gcc@8/8.5.0_2/lib/arm-none-eabi-gcc/8/gcc/arm-none-eabi/8.5.0/../../../../../../arm-none-eabi/lib/thumb/v6-m/nofp/libg_nano.a(lib_a-lock.o)
__lock___env_recursive_mutex                      /opt/homebrew/Cellar/arm-none-eabi-gcc@8/8.5.0_2/lib/arm-none-eabi-gcc/8/gcc/arm-none-eabi/8.5.0/../../../../../../arm-none-eabi/lib/thumb/v6-m/nofp/libg_nano.a(lib_a-lock.o)
__lock___malloc_recursive_mutex                   /opt/homebrew/Cellar/arm-none-eabi-gcc@8/8.5.0_2/lib/arm-none-eabi-gcc/8/gcc/arm-none-eabi/8.5.0/../../../../../../arm-none-eabi/lib/thumb/v6-m/nofp/libg_nano.a(lib_a-lock.o)
                                                  /opt/homebrew/Cellar/arm-none-eabi-gcc@8/8.5.0_2/lib/arm-none-eabi-gcc/8/gcc/arm-none-eabi/8.5.0/../../../../../../arm-none-eabi/lib/thumb/v6-m/nofp/libg_nano.a(lib_a-mlock.o)
__lock___sfp_recursive_mutex                      /opt/homebrew/Cellar/arm-none-eabi-gcc@8/8.5.0_2/lib/arm-none-eabi-gcc/8/gcc/arm-none-eabi/8.5.0/../../../../../../arm-none-eabi/lib/thumb/v6-m/nofp/libg_nano.a(lib_a-lock.o)
                                                  /opt/homebrew/Cellar/arm-none-eabi-gcc@8/8.5.0_2/lib/arm-none-eabi-gcc/8/gcc/arm-none-eabi/8.5.0/../../../../../../arm-none-eabi/lib/thumb/v6-m/nofp/libg_nano.a(lib_a-findfp.o)
__lock___sinit_recursive_mutex                    /opt/homebrew/Cellar/arm-none-eabi-gcc@8/8.5.0_2/lib/arm-none-eabi-gcc/8/gcc/arm-none-eabi/8.5.0/../../../../../../arm-none-eabi/lib/thumb/v6-m/nofp/libg_nano.a(lib_a-lock.o)
                                                  /opt/homebrew/Cellar/arm-none-eabi-gcc@8/8.5.0_2/lib/arm-none-eabi-gcc/8/gcc/arm-none-eabi/8.5.0/../../../../../../arm-none-eabi/lib/thumb/v6-m/nofp/libg_nano.a(lib_a-findfp.o)
__lock___tz_mutex                                 /opt/homebrew/Cellar/arm-none-eabi-gcc@8/8.5.0_2/lib/arm-none-eabi-gcc/8/gcc/arm-none-eabi/8.5.0/../../../../../../arm-none-eabi/lib/thumb/v6-m/nofp/libg_nano.a(lib_a-lock.o)
__ltsf2                                           /opt/homebrew/Cellar/arm-none-eabi-gcc@8/8.5.0_2/lib/arm-none-eabi-gcc/8/gcc/arm-none-eabi/8.5.0/thumb/v6-m/nofp/libgcc.a(lesf2.o)
__main_stack_base__                               .build/obj_crkbd_rev1_via/./lib/chibios/os/common/startup/ARMCMx/compilers/GCC/crt0_v6m.o
__main_stack_end__                                .build/obj_crkbd_rev1_via/./lib/chibios/os/common/startup/ARMCMx/compilers/GCC/vectors.o
                                                  .build/obj_crkbd_rev1_via/./lib/chibios/os/common/startup/ARMCMx/compilers/GCC/crt0_v6m.o
__malloc_free_list                                /opt/homebrew/Cellar/arm-none-eabi-gcc@8/8.5.0_2/lib/arm-none-eabi-gcc/8/gcc/arm-none-eabi/8.5.0/../../../../../../arm-none-eabi/lib/thumb/v6-m/nofp/libg_nano.a(lib_a-nano-mallocr.o)
                                                  /opt/homebrew/Cellar/arm-none-eabi-gcc@8/8.5.0_2/lib/arm-none-eabi-gcc/8/gcc/arm-none-eabi/8.5.0/../../../../../../arm-none-eabi/lib/thumb/v6-m/nofp/libg_nano.a(lib_a-nano-freer.o)
__malloc_lock                                     /opt/homebrew/Cellar/arm-none-eabi-gcc@8/8.5.0_2/lib/arm-none-eabi-gcc/8/gcc/arm-none-eabi/8.5.0/../../../../../../arm-none-eabi/lib/thumb/v6-m/nofp/libg_nano.a(lib_a-mlock.o)
                                                  /opt/homebrew/Cellar/arm-none-eabi-gcc@8/8.5.0_2/lib/arm-none-eabi-gcc/8/gcc/arm-none-eabi/8.5.0/../../../../../../arm-none-eabi/lib/thumb/v6-m/nofp/libg_nano.a(lib_a-nano-mallocr.o)
                                                  /opt/homebrew/Cellar/arm-none-eabi-gcc@8/8.5.0_2/lib/arm-none-eabi-gcc/8/gcc/arm-none-eabi/8.5.0/../../../../../../arm-none-eabi/lib/thumb/v6-m/nofp/libg_nano.a(lib_a-nano-freer.o)
__malloc_sbrk_start                               /opt/homebrew/Cellar/arm-none-eabi-gcc@8/8.5.0_2/lib/arm-none-eabi-gcc/8/gcc/arm-none-eabi/8.5.0/../../../../../../arm-none-eabi/lib/thumb/v6-m/nofp/libg_nano.a(lib_a-nano-mallocr.o)
__malloc_unlock                                   /opt/homebrew/Cellar/arm-none-eabi-gcc@8/8.5.0_2/lib/arm-none-eabi-gcc/8/gcc/arm-none-eabi/8.5.0/../../../../../../arm-none-eabi/lib/thumb/v6-m/nofp/libg_nano.a(lib_a-mlock.o)
                                                  /opt/homebrew/Cellar/arm-none-eabi-gcc@8/8.5.0_2/lib/arm-none-eabi-gcc/8/gcc/arm-none-eabi/8.5.0/../../../../../../arm-none-eabi/lib/thumb/v6-m/nofp/libg_nano.a(lib_a-nano-mallocr.o)
                                                  /opt/homebrew/Cellar/arm-none-eabi-gcc@8/8.5.0_2/lib/arm-none-eabi-gcc/8/gcc/arm-none-eabi/8.5.0/../../../../../../arm-none-eabi/lib/thumb/v6-m/nofp/libg_nano.a(lib_a-nano-freer.o)
__nesf2                                           /opt/homebrew/Cellar/arm-none-eabi-gcc@8/8.5.0_2/lib/arm-none-eabi-gcc/8/gcc/arm-none-eabi/8.5.0/thumb/v6-m/nofp/libgcc.a(eqsf2.o)
__pal_lld_init                                    .build/obj_crkbd_rev1_via/lib/chibios/os/hal/ports/RP/LLD/GPIOv1/hal_pal_lld.o (symbol from plugin)
                                                  .build/obj_crkbd_rev1_via/lib/chibios/os/hal/src/hal.o (symbol from plugin)
__port_exit_from_isr                              .build/obj_crkbd_rev1_via/./lib/chibios/os/common/ports/ARMv6-M-RP2/compilers/GCC/chcoreasm.o
                                                  /var/folders/tr/p8fgs8cd4pn1v7l1rzxd4yfr0000gn/T//ccLV2jr4.ltrans0.ltrans.o
                                                  .build/obj_crkbd_rev1_via/lib/chibios/os/common/ports/ARMv6-M-RP2/chcore.o (symbol from plugin)
__port_irq_epilogue                               /var/folders/tr/p8fgs8cd4pn1v7l1rzxd4yfr0000gn/T//ccLV2jr4.ltrans0.ltrans.o
                                                  .build/obj_crkbd_rev1_via/lib/chibios/os/common/ports/ARMv6-M-RP2/chcore.o (symbol from plugin)
                                                  .build/obj_crkbd_rev1_via/lib/chibios-contrib/os/hal/ports/RP/LLD/USBDv1/hal_usb_lld.o (symbol from plugin)
                                                  .build/obj_crkbd_rev1_via/lib/chibios-contrib/os/hal/ports/RP/LLD/ADCv1/hal_adc_lld.o (symbol from plugin)
                                                  .build/obj_crkbd_rev1_via/lib/chibios-contrib/os/hal/ports/RP/LLD/I2Cv1/hal_i2c_lld.o (symbol from plugin)
                                                  .build/obj_crkbd_rev1_via/lib/chibios/os/hal/ports/RP/LLD/TIMERv1/hal_st_lld.o (symbol from plugin)
                                                  .build/obj_crkbd_rev1_via/lib/chibios/os/hal/ports/RP/LLD/DMAv1/rp_dma.o (symbol from plugin)
                                                  .build/obj_crkbd_rev1_via/serial_vendor.a(serial_vendor.o)
__port_spinlock_release                           /var/folders/tr/p8fgs8cd4pn1v7l1rzxd4yfr0000gn/T//ccLV2jr4.ltrans0.ltrans.o
                                                  .build/obj_crkbd_rev1_via/lib/chibios/os/common/ports/ARMv6-M-RP2/chcore.o (symbol from plugin)
                                                  .build/obj_crkbd_rev1_via/./lib/chibios/os/common/ports/ARMv6-M-RP2/compilers/GCC/chcoreasm.o
__port_spinlock_take                              .build/obj_crkbd_rev1_via/lib/chibios/os/common/ports/ARMv6-M-RP2/chcore.o (symbol from plugin)
__port_switch                                     .build/obj_crkbd_rev1_via/./lib/chibios/os/common/ports/ARMv6-M-RP2/compilers/GCC/chcoreasm.o
                                                  /var/folders/tr/p8fgs8cd4pn1v7l1rzxd4yfr0000gn/T//ccLV2jr4.ltrans0.ltrans.o
                                                  .build/obj_crkbd_rev1_via/lib/chibios/os/rt/src/chschd.o (symbol from plugin)
__port_switch_from_isr                            .build/obj_crkbd_rev1_via/./lib/chibios/os/common/ports/ARMv6-M-RP2/compilers/GCC/chcoreasm.o
                                                  /var/folders/tr/p8fgs8cd4pn1v7l1rzxd4yfr0000gn/T//ccLV2jr4.ltrans0.ltrans.o
                                                  .build/obj_crkbd_rev1_via/lib/chibios/os/common/ports/ARMv6-M-RP2/chcore.o (symbol from plugin)
__port_thread_start                               .build/obj_crkbd_rev1_via/./lib/chibios/os/common/ports/ARMv6-M-RP2/compilers/GCC/chcoreasm.o
                                                  /var/folders/tr/p8fgs8cd4pn1v7l1rzxd4yfr0000gn/T//ccLV2jr4.ltrans0.ltrans.o
                                                  .build/obj_crkbd_rev1_via/lib/chibios/os/rt/src/chthreads.o (symbol from plugin)
__process_stack_base__                            .build/obj_crkbd_rev1_via/./lib/chibios/os/common/startup/ARMCMx/compilers/GCC/crt0_v6m.o
__process_stack_end__                             .build/obj_crkbd_rev1_via/./lib/chibios/os/common/startup/ARMCMx/compilers/GCC/crt0_v6m.o
__ram0_clear__                                    /var/folders/tr/p8fgs8cd4pn1v7l1rzxd4yfr0000gn/T//ccLV2jr4.ltrans0.ltrans.o
                                                  .build/obj_crkbd_rev1_via/lib/chibios/os/common/startup/ARMCMx/compilers/GCC/crt1.o (symbol from plugin)
__ram0_init__                                     /var/folders/tr/p8fgs8cd4pn1v7l1rzxd4yfr0000gn/T//ccLV2jr4.ltrans0.ltrans.o
                                                  .build/obj_crkbd_rev1_via/lib/chibios/os/common/startup/ARMCMx/compilers/GCC/crt1.o (symbol from plugin)
__ram0_init_text__                                /var/folders/tr/p8fgs8cd4pn1v7l1rzxd4yfr0000gn/T//ccLV2jr4.ltrans0.ltrans.o
                                                  .build/obj_crkbd_rev1_via/lib/chibios/os/common/startup/ARMCMx/compilers/GCC/crt1.o (symbol from plugin)
__ram0_noinit__                                   /var/folders/tr/p8fgs8cd4pn1v7l1rzxd4yfr0000gn/T//ccLV2jr4.ltrans0.ltrans.o
                                                  .build/obj_crkbd_rev1_via/lib/chibios/os/common/startup/ARMCMx/compilers/GCC/crt1.o (symbol from plugin)
__ram1_clear__                                    /var/folders/tr/p8fgs8cd4pn1v7l1rzxd4yfr0000gn/T//ccLV2jr4.ltrans0.ltrans.o
                                                  .build/obj_crkbd_rev1_via/lib/chibios/os/common/startup/ARMCMx/compilers/GCC/crt1.o (symbol from plugin)
__ram1_init__                                     /var/folders/tr/p8fgs8cd4pn1v7l1rzxd4yfr0000gn/T//ccLV2jr4.ltrans0.ltrans.o
                                                  .build/obj_crkbd_rev1_via/lib/chibios/os/common/startup/ARMCMx/compilers/GCC/crt1.o (symbol from plugin)
__ram1_init_text__                                /var/folders/tr/p8fgs8cd4pn1v7l1rzxd4yfr0000gn/T//ccLV2jr4.ltrans0.ltrans.o
                                                  .build/obj_crkbd_rev1_via/lib/chibios/os/common/startup/ARMCMx/compilers/GCC/crt1.o (symbol from plugin)
__ram1_noinit__                                   /var/folders/tr/p8fgs8cd4pn1v7l1rzxd4yfr0000gn/T//ccLV2jr4.ltrans0.ltrans.o
                                                  .build/obj_crkbd_rev1_via/lib/chibios/os/common/startup/ARMCMx/compilers/GCC/crt1.o (symbol from plugin)
__ram2_clear__                                    /var/folders/tr/p8fgs8cd4pn1v7l1rzxd4yfr0000gn/T//ccLV2jr4.ltrans0.ltrans.o
                                                  .build/obj_crkbd_rev1_via/lib/chibios/os/common/startup/ARMCMx/compilers/GCC/crt1.o (symbol from plugin)
__ram2_init__                                     /var/folders/tr/p8fgs8cd4pn1v7l1rzxd4yfr0000gn/T//ccLV2jr4.ltrans0.ltrans.o
                                                  .build/obj_crkbd_rev1_via/lib/chibios/os/common/startup/ARMCMx/compilers/GCC/crt1.o (symbol from plugin)
__ram2_init_text__                                /var/folders/tr/p8fgs8cd4pn1v7l1rzxd4yfr0000gn/T//ccLV2jr4.ltrans0.ltrans.o
                                                  .build/obj_crkbd_rev1_via/lib/chibios/os/common/startup/ARMCMx/compilers/GCC/crt1.o (symbol from plugin)
__ram2_noinit__                                   /var/folders/tr/p8fgs8cd4pn1v7l1rzxd4yfr0000gn/T//ccLV2jr4.ltrans0.ltrans.o
                                                  .build/obj_crkbd_rev1_via/lib/chibios/os/common/startup/ARMCMx/compilers/GCC/crt1.o (symbol from plugin)
__ram3_clear__                                    /var/folders/tr/p8fgs8cd4pn1v7l1rzxd4yfr0000gn/T//ccLV2jr4.ltrans0.ltrans.o
                                                  .build/obj_crkbd_rev1_via/lib/chibios/os/common/startup/ARMCMx/compilers/GCC/crt1.o (symbol from plugin)
__ram3_init__                                     /var/folders/tr/p8fgs8cd4pn1v7l1rzxd4yfr0000gn/T//ccLV2jr4.ltrans0.ltrans.o
                                                  .build/obj_crkbd_rev1_via/lib/chibios/os/common/startup/ARMCMx/compilers/GCC/crt1.o (symbol from plugin)
__ram3_init_text__                                /var/folders/tr/p8fgs8cd4pn1v7l1rzxd4yfr0000gn/T//ccLV2jr4.ltrans0.ltrans.o
                                                  .build/obj_crkbd_rev1_via/lib/chibios/os/common/startup/ARMCMx/compilers/GCC/crt1.o (symbol from plugin)
__ram3_noinit__                                   /var/folders/tr/p8fgs8cd4pn1v7l1rzxd4yfr0000gn/T//ccLV2jr4.ltrans0.ltrans.o
                                                  .build/obj_crkbd_rev1_via/lib/chibios/os/common/startup/ARMCMx/compilers/GCC/crt1.o (symbol from plugin)
__ram4_clear__                                    /var/folders/tr/p8fgs8cd4pn1v7l1rzxd4yfr0000gn/T//ccLV2jr4.ltrans0.ltrans.o
                                                  .build/obj_crkbd_rev1_via/lib/chibios/os/common/startup/ARMCMx/compilers/GCC/crt1.o (symbol from plugin)
__ram4_init__                                     /var/folders/tr/p8fgs8cd4pn1v7l1rzxd4yfr0000gn/T//ccLV2jr4.ltrans0.ltrans.o
                                                  .build/obj_crkbd_rev1_via/lib/chibios/os/common/startup/ARMCMx/compilers/GCC/crt1.o (symbol from plugin)
__ram4_init_text__                                /var/folders/tr/p8fgs8cd4pn1v7l1rzxd4yfr0000gn/T//ccLV2jr4.ltrans0.ltrans.o
                                                  .build/obj_crkbd_rev1_via/lib/chibios/os/common/startup/ARMCMx/compilers/GCC/crt1.o (symbol from plugin)
__ram4_noinit__                                   /var/folders/tr/p8fgs8cd4pn1v7l1rzxd4yfr0000gn/T//ccLV2jr4.ltrans0.ltrans.o
                                                  .build/obj_crkbd_rev1_via/lib/chibios/os/common/startup/ARMCMx/compilers/GCC/crt1.o (symbol from plugin)
__ram5_clear__                                    /var/folders/tr/p8fgs8cd4pn1v7l1rzxd4yfr0000gn/T//ccLV2jr4.ltrans0.ltrans.o
                                                  .build/obj_crkbd_rev1_via/lib/chibios/os/common/startup/ARMCMx/compilers/GCC/crt1.o (symbol from plugin)
__ram5_init__                                     /var/folders/tr/p8fgs8cd4pn1v7l1rzxd4yfr0000gn/T//ccLV2jr4.ltrans0.ltrans.o
                                                  .build/obj_crkbd_rev1_via/lib/chibios/os/common/startup/ARMCMx/compilers/GCC/crt1.o (symbol from plugin)
__ram5_init_text__                                /var/folders/tr/p8fgs8cd4pn1v7l1rzxd4yfr0000gn/T//ccLV2jr4.ltrans0.ltrans.o
                                                  .build/obj_crkbd_rev1_via/lib/chibios/os/common/startup/ARMCMx/compilers/GCC/crt1.o (symbol from plugin)
__ram5_noinit__                                   /var/folders/tr/p8fgs8cd4pn1v7l1rzxd4yfr0000gn/T//ccLV2jr4.ltrans0.ltrans.o
                                                  .build/obj_crkbd_rev1_via/lib/chibios/os/common/startup/ARMCMx/compilers/GCC/crt1.o (symbol from plugin)
__ram6_clear__                                    /var/folders/tr/p8fgs8cd4pn1v7l1rzxd4yfr0000gn/T//ccLV2jr4.ltrans0.ltrans.o
                                                  .build/obj_crkbd_rev1_via/lib/chibios/os/common/startup/ARMCMx/compilers/GCC/crt1.o (symbol from plugin)
__ram6_init__                                     /var/folders/tr/p8fgs8cd4pn1v7l1rzxd4yfr0000gn/T//ccLV2jr4.ltrans0.ltrans.o
                                                  .build/obj_crkbd_rev1_via/lib/chibios/os/common/startup/ARMCMx/compilers/GCC/crt1.o (symbol from plugin)
__ram6_init_text__                                /var/folders/tr/p8fgs8cd4pn1v7l1rzxd4yfr0000gn/T//ccLV2jr4.ltrans0.ltrans.o
                                                  .build/obj_crkbd_rev1_via/lib/chibios/os/common/startup/ARMCMx/compilers/GCC/crt1.o (symbol from plugin)
__ram6_noinit__                                   /var/folders/tr/p8fgs8cd4pn1v7l1rzxd4yfr0000gn/T//ccLV2jr4.ltrans0.ltrans.o
                                                  .build/obj_crkbd_rev1_via/lib/chibios/os/common/startup/ARMCMx/compilers/GCC/crt1.o (symbol from plugin)
__ram7_clear__                                    /var/folders/tr/p8fgs8cd4pn1v7l1rzxd4yfr0000gn/T//ccLV2jr4.ltrans0.ltrans.o
                                                  .build/obj_crkbd_rev1_via/lib/chibios/os/common/startup/ARMCMx/compilers/GCC/crt1.o (symbol from plugin)
__ram7_init__                                     /var/folders/tr/p8fgs8cd4pn1v7l1rzxd4yfr0000gn/T//ccLV2jr4.ltrans0.ltrans.o
                                                  .build/obj_crkbd_rev1_via/lib/chibios/os/common/startup/ARMCMx/compilers/GCC/crt1.o (symbol from plugin)
__ram7_init_text__                                /var/folders/tr/p8fgs8cd4pn1v7l1rzxd4yfr0000gn/T//ccLV2jr4.ltrans0.ltrans.o
                                                  .build/obj_crkbd_rev1_via/lib/chibios/os/common/startup/ARMCMx/compilers/GCC/crt1.o (symbol from plugin)
__ram7_noinit__                                   /var/folders/tr/p8fgs8cd4pn1v7l1rzxd4yfr0000gn/T//ccLV2jr4.ltrans0.ltrans.o
                                                  .build/obj_crkbd_rev1_via/lib/chibios/os/common/startup/ARMCMx/compilers/GCC/crt1.o (symbol from plugin)
__retarget_lock_acquire                           /opt/homebrew/Cellar/arm-none-eabi-gcc@8/8.5.0_2/lib/arm-none-eabi-gcc/8/gcc/arm-none-eabi/8.5.0/../../../../../../arm-none-eabi/lib/thumb/v6-m/nofp/libg_nano.a(lib_a-lock.o)
__retarget_lock_acquire_recursive                 /opt/homebrew/Cellar/arm-none-eabi-gcc@8/8.5.0_2/lib/arm-none-eabi-gcc/8/gcc/arm-none-eabi/8.5.0/../../../../../../arm-none-eabi/lib/thumb/v6-m/nofp/libg_nano.a(lib_a-lock.o)
                                                  /opt/homebrew/Cellar/arm-none-eabi-gcc@8/8.5.0_2/lib/arm-none-eabi-gcc/8/gcc/arm-none-eabi/8.5.0/../../../../../../arm-none-eabi/lib/thumb/v6-m/nofp/libg_nano.a(lib_a-mlock.o)
                                                  /opt/homebrew/Cellar/arm-none-eabi-gcc@8/8.5.0_2/lib/arm-none-eabi-gcc/8/gcc/arm-none-eabi/8.5.0/../../../../../../arm-none-eabi/lib/thumb/v6-m/nofp/libg_nano.a(lib_a-findfp.o)
                                                  /opt/homebrew/Cellar/arm-none-eabi-gcc@8/8.5.0_2/lib/arm-none-eabi-gcc/8/gcc/arm-none-eabi/8.5.0/../../../../../../arm-none-eabi/lib/thumb/v6-m/nofp/libg_nano.a(lib_a-fflush.o)
                                                  /opt/homebrew/Cellar/arm-none-eabi-gcc@8/8.5.0_2/lib/arm-none-eabi-gcc/8/gcc/arm-none-eabi/8.5.0/../../../../../../arm-none-eabi/lib/thumb/v6-m/nofp/libg_nano.a(lib_a-nano-vfprintf.o)
__retarget_lock_close                             /opt/homebrew/Cellar/arm-none-eabi-gcc@8/8.5.0_2/lib/arm-none-eabi-gcc/8/gcc/arm-none-eabi/8.5.0/../../../../../../arm-none-eabi/lib/thumb/v6-m/nofp/libg_nano.a(lib_a-lock.o)
__retarget_lock_close_recursive                   /opt/homebrew/Cellar/arm-none-eabi-gcc@8/8.5.0_2/lib/arm-none-eabi-gcc/8/gcc/arm-none-eabi/8.5.0/../../../../../../arm-none-eabi/lib/thumb/v6-m/nofp/libg_nano.a(lib_a-lock.o)
__retarget_lock_init                              /opt/homebrew/Cellar/arm-none-eabi-gcc@8/8.5.0_2/lib/arm-none-eabi-gcc/8/gcc/arm-none-eabi/8.5.0/../../../../../../arm-none-eabi/lib/thumb/v6-m/nofp/libg_nano.a(lib_a-lock.o)
__retarget_lock_init_recursive                    /opt/homebrew/Cellar/arm-none-eabi-gcc@8/8.5.0_2/lib/arm-none-eabi-gcc/8/gcc/arm-none-eabi/8.5.0/../../../../../../arm-none-eabi/lib/thumb/v6-m/nofp/libg_nano.a(lib_a-lock.o)
                                                  /opt/homebrew/Cellar/arm-none-eabi-gcc@8/8.5.0_2/lib/arm-none-eabi-gcc/8/gcc/arm-none-eabi/8.5.0/../../../../../../arm-none-eabi/lib/thumb/v6-m/nofp/libg_nano.a(lib_a-findfp.o)
__retarget_lock_release                           /opt/homebrew/Cellar/arm-none-eabi-gcc@8/8.5.0_2/lib/arm-none-eabi-gcc/8/gcc/arm-none-eabi/8.5.0/../../../../../../arm-none-eabi/lib/thumb/v6-m/nofp/libg_nano.a(lib_a-lock.o)
__retarget_lock_release_recursive                 /opt/homebrew/Cellar/arm-none-eabi-gcc@8/8.5.0_2/lib/arm-none-eabi-gcc/8/gcc/arm-none-eabi/8.5.0/../../../../../../arm-none-eabi/lib/thumb/v6-m/nofp/libg_nano.a(lib_a-lock.o)
                                                  /opt/homebrew/Cellar/arm-none-eabi-gcc@8/8.5.0_2/lib/arm-none-eabi-gcc/8/gcc/arm-none-eabi/8.5.0/../../../../../../arm-none-eabi/lib/thumb/v6-m/nofp/libg_nano.a(lib_a-mlock.o)
                                                  /opt/homebrew/Cellar/arm-none-eabi-gcc@8/8.5.0_2/lib/arm-none-eabi-gcc/8/gcc/arm-none-eabi/8.5.0/../../../../../../arm-none-eabi/lib/thumb/v6-m/nofp/libg_nano.a(lib_a-findfp.o)
                                                  /opt/homebrew/Cellar/arm-none-eabi-gcc@8/8.5.0_2/lib/arm-none-eabi-gcc/8/gcc/arm-none-eabi/8.5.0/../../../../../../arm-none-eabi/lib/thumb/v6-m/nofp/libg_nano.a(lib_a-fflush.o)
                                                  /opt/homebrew/Cellar/arm-none-eabi-gcc@8/8.5.0_2/lib/arm-none-eabi-gcc/8/gcc/arm-none-eabi/8.5.0/../../../../../../arm-none-eabi/lib/thumb/v6-m/nofp/libg_nano.a(lib_a-nano-vfprintf.o)
__retarget_lock_try_acquire                       /opt/homebrew/Cellar/arm-none-eabi-gcc@8/8.5.0_2/lib/arm-none-eabi-gcc/8/gcc/arm-none-eabi/8.5.0/../../../../../../arm-none-eabi/lib/thumb/v6-m/nofp/libg_nano.a(lib_a-lock.o)
__retarget_lock_try_acquire_recursive             /opt/homebrew/Cellar/arm-none-eabi-gcc@8/8.5.0_2/lib/arm-none-eabi-gcc/8/gcc/arm-none-eabi/8.5.0/../../../../../../arm-none-eabi/lib/thumb/v6-m/nofp/libg_nano.a(lib_a-lock.o)
__rp_dma_channels                                 .build/obj_crkbd_rev1_via/lib/chibios/os/hal/ports/RP/LLD/DMAv1/rp_dma.o (symbol from plugin)
__sclose                                          /opt/homebrew/Cellar/arm-none-eabi-gcc@8/8.5.0_2/lib/arm-none-eabi-gcc/8/gcc/arm-none-eabi/8.5.0/../../../../../../arm-none-eabi/lib/thumb/v6-m/nofp/libg_nano.a(lib_a-stdio.o)
                                                  /opt/homebrew/Cellar/arm-none-eabi-gcc@8/8.5.0_2/lib/arm-none-eabi-gcc/8/gcc/arm-none-eabi/8.5.0/../../../../../../arm-none-eabi/lib/thumb/v6-m/nofp/libg_nano.a(lib_a-findfp.o)
__seofread                                        /opt/homebrew/Cellar/arm-none-eabi-gcc@8/8.5.0_2/lib/arm-none-eabi-gcc/8/gcc/arm-none-eabi/8.5.0/../../../../../../arm-none-eabi/lib/thumb/v6-m/nofp/libg_nano.a(lib_a-stdio.o)
__sf_fake_stderr                                  /opt/homebrew/Cellar/arm-none-eabi-gcc@8/8.5.0_2/lib/arm-none-eabi-gcc/8/gcc/arm-none-eabi/8.5.0/../../../../../../arm-none-eabi/lib/thumb/v6-m/nofp/libg_nano.a(lib_a-findfp.o)
                                                  /opt/homebrew/Cellar/arm-none-eabi-gcc@8/8.5.0_2/lib/arm-none-eabi-gcc/8/gcc/arm-none-eabi/8.5.0/../../../../../../arm-none-eabi/lib/thumb/v6-m/nofp/libg_nano.a(lib_a-fflush.o)
                                                  /opt/homebrew/Cellar/arm-none-eabi-gcc@8/8.5.0_2/lib/arm-none-eabi-gcc/8/gcc/arm-none-eabi/8.5.0/../../../../../../arm-none-eabi/lib/thumb/v6-m/nofp/libg_nano.a(lib_a-wsetup.o)
                                                  /opt/homebrew/Cellar/arm-none-eabi-gcc@8/8.5.0_2/lib/arm-none-eabi-gcc/8/gcc/arm-none-eabi/8.5.0/../../../../../../arm-none-eabi/lib/thumb/v6-m/nofp/libg_nano.a(lib_a-wbuf.o)
                                                  /opt/homebrew/Cellar/arm-none-eabi-gcc@8/8.5.0_2/lib/arm-none-eabi-gcc/8/gcc/arm-none-eabi/8.5.0/../../../../../../arm-none-eabi/lib/thumb/v6-m/nofp/libg_nano.a(lib_a-nano-vfprintf.o)
                                                  /opt/homebrew/Cellar/arm-none-eabi-gcc@8/8.5.0_2/lib/arm-none-eabi-gcc/8/gcc/arm-none-eabi/8.5.0/../../../../../../arm-none-eabi/lib/thumb/v6-m/nofp/libg_nano.a(lib_a-impure.o)
__sf_fake_stdin                                   /opt/homebrew/Cellar/arm-none-eabi-gcc@8/8.5.0_2/lib/arm-none-eabi-gcc/8/gcc/arm-none-eabi/8.5.0/../../../../../../arm-none-eabi/lib/thumb/v6-m/nofp/libg_nano.a(lib_a-findfp.o)
                                                  /opt/homebrew/Cellar/arm-none-eabi-gcc@8/8.5.0_2/lib/arm-none-eabi-gcc/8/gcc/arm-none-eabi/8.5.0/../../../../../../arm-none-eabi/lib/thumb/v6-m/nofp/libg_nano.a(lib_a-fflush.o)
                                                  /opt/homebrew/Cellar/arm-none-eabi-gcc@8/8.5.0_2/lib/arm-none-eabi-gcc/8/gcc/arm-none-eabi/8.5.0/../../../../../../arm-none-eabi/lib/thumb/v6-m/nofp/libg_nano.a(lib_a-wsetup.o)
                                                  /opt/homebrew/Cellar/arm-none-eabi-gcc@8/8.5.0_2/lib/arm-none-eabi-gcc/8/gcc/arm-none-eabi/8.5.0/../../../../../../arm-none-eabi/lib/thumb/v6-m/nofp/libg_nano.a(lib_a-wbuf.o)
                                                  /opt/homebrew/Cellar/arm-none-eabi-gcc@8/8.5.0_2/lib/arm-none-eabi-gcc/8/gcc/arm-none-eabi/8.5.0/../../../../../../arm-none-eabi/lib/thumb/v6-m/nofp/libg_nano.a(lib_a-nano-vfprintf.o)
                                                  /opt/homebrew/Cellar/arm-none-eabi-gcc@8/8.5.0_2/lib/arm-none-eabi-gcc/8/gcc/arm-none-eabi/8.5.0/../../../../../../arm-none-eabi/lib/thumb/v6-m/nofp/libg_nano.a(lib_a-impure.o)
__sf_fake_stdout                                  /opt/homebrew/Cellar/arm-none-eabi-gcc@8/8.5.0_2/lib/arm-none-eabi-gcc/8/gcc/arm-none-eabi/8.5.0/../../../../../../arm-none-eabi/lib/thumb/v6-m/nofp/libg_nano.a(lib_a-findfp.o)
                                                  /opt/homebrew/Cellar/arm-none-eabi-gcc@8/8.5.0_2/lib/arm-none-eabi-gcc/8/gcc/arm-none-eabi/8.5.0/../../../../../../arm-none-eabi/lib/thumb/v6-m/nofp/libg_nano.a(lib_a-fflush.o)
                                                  /opt/homebrew/Cellar/arm-none-eabi-gcc@8/8.5.0_2/lib/arm-none-eabi-gcc/8/gcc/arm-none-eabi/8.5.0/../../../../../../arm-none-eabi/lib/thumb/v6-m/nofp/libg_nano.a(lib_a-wsetup.o)
                                                  /opt/homebrew/Cellar/arm-none-eabi-gcc@8/8.5.0_2/lib/arm-none-eabi-gcc/8/gcc/arm-none-eabi/8.5.0/../../../../../../arm-none-eabi/lib/thumb/v6-m/nofp/libg_nano.a(lib_a-wbuf.o)
                                                  /opt/homebrew/Cellar/arm-none-eabi-gcc@8/8.5.0_2/lib/arm-none-eabi-gcc/8/gcc/arm-none-eabi/8.5.0/../../../../../../arm-none-eabi/lib/thumb/v6-m/nofp/libg_nano.a(lib_a-nano-vfprintf.o)
                                                  /opt/homebrew/Cellar/arm-none-eabi-gcc@8/8.5.0_2/lib/arm-none-eabi-gcc/8/gcc/arm-none-eabi/8.5.0/../../../../../../arm-none-eabi/lib/thumb/v6-m/nofp/libg_nano.a(lib_a-impure.o)
__sflush_r                                        /opt/homebrew/Cellar/arm-none-eabi-gcc@8/8.5.0_2/lib/arm-none-eabi-gcc/8/gcc/arm-none-eabi/8.5.0/../../../../../../arm-none-eabi/lib/thumb/v6-m/nofp/libg_nano.a(lib_a-fflush.o)
__sfmoreglue                                      /opt/homebrew/Cellar/arm-none-eabi-gcc@8/8.5.0_2/lib/arm-none-eabi-gcc/8/gcc/arm-none-eabi/8.5.0/../../../../../../arm-none-eabi/lib/thumb/v6-m/nofp/libg_nano.a(lib_a-findfp.o)
__sfp                                             /opt/homebrew/Cellar/arm-none-eabi-gcc@8/8.5.0_2/lib/arm-none-eabi-gcc/8/gcc/arm-none-eabi/8.5.0/../../../../../../arm-none-eabi/lib/thumb/v6-m/nofp/libg_nano.a(lib_a-findfp.o)
__sfp_lock_acquire                                /opt/homebrew/Cellar/arm-none-eabi-gcc@8/8.5.0_2/lib/arm-none-eabi-gcc/8/gcc/arm-none-eabi/8.5.0/../../../../../../arm-none-eabi/lib/thumb/v6-m/nofp/libg_nano.a(lib_a-findfp.o)
__sfp_lock_release                                /opt/homebrew/Cellar/arm-none-eabi-gcc@8/8.5.0_2/lib/arm-none-eabi-gcc/8/gcc/arm-none-eabi/8.5.0/../../../../../../arm-none-eabi/lib/thumb/v6-m/nofp/libg_nano.a(lib_a-findfp.o)
__sfputs_r                                        /opt/homebrew/Cellar/arm-none-eabi-gcc@8/8.5.0_2/lib/arm-none-eabi-gcc/8/gcc/arm-none-eabi/8.5.0/../../../../../../arm-none-eabi/lib/thumb/v6-m/nofp/libg_nano.a(lib_a-nano-vfprintf.o)
__sfvwrite_r                                      /opt/homebrew/Cellar/arm-none-eabi-gcc@8/8.5.0_2/lib/arm-none-eabi-gcc/8/gcc/arm-none-eabi/8.5.0/../../../../../../arm-none-eabi/lib/thumb/v6-m/nofp/libg_nano.a(lib_a-fvwrite.o)
                                                  /opt/homebrew/Cellar/arm-none-eabi-gcc@8/8.5.0_2/lib/arm-none-eabi-gcc/8/gcc/arm-none-eabi/8.5.0/../../../../../../arm-none-eabi/lib/thumb/v6-m/nofp/libg_nano.a(lib_a-nano-vfprintf.o)
__sigtramp                                        /opt/homebrew/Cellar/arm-none-eabi-gcc@8/8.5.0_2/lib/arm-none-eabi-gcc/8/gcc/arm-none-eabi/8.5.0/../../../../../../arm-none-eabi/lib/thumb/v6-m/nofp/libg_nano.a(lib_a-signal.o)
__sigtramp_r                                      /opt/homebrew/Cellar/arm-none-eabi-gcc@8/8.5.0_2/lib/arm-none-eabi-gcc/8/gcc/arm-none-eabi/8.5.0/../../../../../../arm-none-eabi/lib/thumb/v6-m/nofp/libg_nano.a(lib_a-signal.o)
__sinit                                           /opt/homebrew/Cellar/arm-none-eabi-gcc@8/8.5.0_2/lib/arm-none-eabi-gcc/8/gcc/arm-none-eabi/8.5.0/../../../../../../arm-none-eabi/lib/thumb/v6-m/nofp/libg_nano.a(lib_a-findfp.o)
                                                  /opt/homebrew/Cellar/arm-none-eabi-gcc@8/8.5.0_2/lib/arm-none-eabi-gcc/8/gcc/arm-none-eabi/8.5.0/../../../../../../arm-none-eabi/lib/thumb/v6-m/nofp/libg_nano.a(lib_a-fflush.o)
                                                  /opt/homebrew/Cellar/arm-none-eabi-gcc@8/8.5.0_2/lib/arm-none-eabi-gcc/8/gcc/arm-none-eabi/8.5.0/../../../../../../arm-none-eabi/lib/thumb/v6-m/nofp/libg_nano.a(lib_a-wsetup.o)
                                                  /opt/homebrew/Cellar/arm-none-eabi-gcc@8/8.5.0_2/lib/arm-none-eabi-gcc/8/gcc/arm-none-eabi/8.5.0/../../../../../../arm-none-eabi/lib/thumb/v6-m/nofp/libg_nano.a(lib_a-wbuf.o)
                                                  /opt/homebrew/Cellar/arm-none-eabi-gcc@8/8.5.0_2/lib/arm-none-eabi-gcc/8/gcc/arm-none-eabi/8.5.0/../../../../../../arm-none-eabi/lib/thumb/v6-m/nofp/libg_nano.a(lib_a-nano-vfprintf.o)
__sinit_lock_acquire                              /opt/homebrew/Cellar/arm-none-eabi-gcc@8/8.5.0_2/lib/arm-none-eabi-gcc/8/gcc/arm-none-eabi/8.5.0/../../../../../../arm-none-eabi/lib/thumb/v6-m/nofp/libg_nano.a(lib_a-findfp.o)
__sinit_lock_release                              /opt/homebrew/Cellar/arm-none-eabi-gcc@8/8.5.0_2/lib/arm-none-eabi-gcc/8/gcc/arm-none-eabi/8.5.0/../../../../../../arm-none-eabi/lib/thumb/v6-m/nofp/libg_nano.a(lib_a-findfp.o)
__smakebuf_r                                      /opt/homebrew/Cellar/arm-none-eabi-gcc@8/8.5.0_2/lib/arm-none-eabi-gcc/8/gcc/arm-none-eabi/8.5.0/../../../../../../arm-none-eabi/lib/thumb/v6-m/nofp/libg_nano.a(lib_a-makebuf.o)
                                                  /opt/homebrew/Cellar/arm-none-eabi-gcc@8/8.5.0_2/lib/arm-none-eabi-gcc/8/gcc/arm-none-eabi/8.5.0/../../../../../../arm-none-eabi/lib/thumb/v6-m/nofp/libg_nano.a(lib_a-wsetup.o)
__sprint_r                                        /opt/homebrew/Cellar/arm-none-eabi-gcc@8/8.5.0_2/lib/arm-none-eabi-gcc/8/gcc/arm-none-eabi/8.5.0/../../../../../../arm-none-eabi/lib/thumb/v6-m/nofp/libg_nano.a(lib_a-nano-vfprintf.o)
__sread                                           /opt/homebrew/Cellar/arm-none-eabi-gcc@8/8.5.0_2/lib/arm-none-eabi-gcc/8/gcc/arm-none-eabi/8.5.0/../../../../../../arm-none-eabi/lib/thumb/v6-m/nofp/libg_nano.a(lib_a-stdio.o)
                                                  /opt/homebrew/Cellar/arm-none-eabi-gcc@8/8.5.0_2/lib/arm-none-eabi-gcc/8/gcc/arm-none-eabi/8.5.0/../../../../../../arm-none-eabi/lib/thumb/v6-m/nofp/libg_nano.a(lib_a-findfp.o)
__sseek                                           /opt/homebrew/Cellar/arm-none-eabi-gcc@8/8.5.0_2/lib/arm-none-eabi-gcc/8/gcc/arm-none-eabi/8.5.0/../../../../../../arm-none-eabi/lib/thumb/v6-m/nofp/libg_nano.a(lib_a-stdio.o)
                                                  /opt/homebrew/Cellar/arm-none-eabi-gcc@8/8.5.0_2/lib/arm-none-eabi-gcc/8/gcc/arm-none-eabi/8.5.0/../../../../../../arm-none-eabi/lib/thumb/v6-m/nofp/libg_nano.a(lib_a-findfp.o)
__swbuf                                           /opt/homebrew/Cellar/arm-none-eabi-gcc@8/8.5.0_2/lib/arm-none-eabi-gcc/8/gcc/arm-none-eabi/8.5.0/../../../../../../arm-none-eabi/lib/thumb/v6-m/nofp/libg_nano.a(lib_a-wbuf.o)
__swbuf_r                                         /opt/homebrew/Cellar/arm-none-eabi-gcc@8/8.5.0_2/lib/arm-none-eabi-gcc/8/gcc/arm-none-eabi/8.5.0/../../../../../../arm-none-eabi/lib/thumb/v6-m/nofp/libg_nano.a(lib_a-wbuf.o)
                                                  /opt/homebrew/Cellar/arm-none-eabi-gcc@8/8.5.0_2/lib/arm-none-eabi-gcc/8/gcc/arm-none-eabi/8.5.0/../../../../../../arm-none-eabi/lib/thumb/v6-m/nofp/libg_nano.a(lib_a-nano-vfprintf.o)
__swhatbuf_r                                      /opt/homebrew/Cellar/arm-none-eabi-gcc@8/8.5.0_2/lib/arm-none-eabi-gcc/8/gcc/arm-none-eabi/8.5.0/../../../../../../arm-none-eabi/lib/thumb/v6-m/nofp/libg_nano.a(lib_a-makebuf.o)
__swrite                                          /opt/homebrew/Cellar/arm-none-eabi-gcc@8/8.5.0_2/lib/arm-none-eabi-gcc/8/gcc/arm-none-eabi/8.5.0/../../../../../../arm-none-eabi/lib/thumb/v6-m/nofp/libg_nano.a(lib_a-stdio.o)
                                                  /opt/homebrew/Cellar/arm-none-eabi-gcc@8/8.5.0_2/lib/arm-none-eabi-gcc/8/gcc/arm-none-eabi/8.5.0/../../../../../../arm-none-eabi/lib/thumb/v6-m/nofp/libg_nano.a(lib_a-findfp.o)
__swsetup_r                                       /opt/homebrew/Cellar/arm-none-eabi-gcc@8/8.5.0_2/lib/arm-none-eabi-gcc/8/gcc/arm-none-eabi/8.5.0/../../../../../../arm-none-eabi/lib/thumb/v6-m/nofp/libg_nano.a(lib_a-wsetup.o)
                                                  /opt/homebrew/Cellar/arm-none-eabi-gcc@8/8.5.0_2/lib/arm-none-eabi-gcc/8/gcc/arm-none-eabi/8.5.0/../../../../../../arm-none-eabi/lib/thumb/v6-m/nofp/libg_nano.a(lib_a-fvwrite.o)
                                                  /opt/homebrew/Cellar/arm-none-eabi-gcc@8/8.5.0_2/lib/arm-none-eabi-gcc/8/gcc/arm-none-eabi/8.5.0/../../../../../../arm-none-eabi/lib/thumb/v6-m/nofp/libg_nano.a(lib_a-wbuf.o)
                                                  /opt/homebrew/Cellar/arm-none-eabi-gcc@8/8.5.0_2/lib/arm-none-eabi-gcc/8/gcc/arm-none-eabi/8.5.0/../../../../../../arm-none-eabi/lib/thumb/v6-m/nofp/libg_nano.a(lib_a-nano-vfprintf.o)
__textdata_base__                                 .build/obj_crkbd_rev1_via/./lib/chibios/os/common/startup/ARMCMx/compilers/GCC/crt0_v6m.o
__textvectors_base__                              .build/obj_crkbd_rev1_via/./lib/chibios/os/common/startup/ARMCMx/compilers/GCC/crt0_v6m.o
__thd_object_init                                 .build/obj_crkbd_rev1_via/lib/chibios/os/rt/src/chthreads.o (symbol from plugin)
                                                  .build/obj_crkbd_rev1_via/lib/chibios/os/rt/src/chinstances.o (symbol from plugin)
__vectors_base__                                  .build/obj_crkbd_rev1_via/./lib/chibios/os/common/startup/ARMCMx/compilers/GCC/crt0_v6m.o
__vectors_end__                                   .build/obj_crkbd_rev1_via/./lib/chibios/os/common/startup/ARMCMx/compilers/GCC/crt0_v6m.o
__wrap___aeabi_idiv                               .build/obj_crkbd_rev1_via/./lib/pico-sdk/src/rp2_common/pico_divider/divider.o
                                                  /var/folders/tr/p8fgs8cd4pn1v7l1rzxd4yfr0000gn/T//ccLV2jr4.ltrans0.ltrans.o
                                                  /opt/homebrew/Cellar/arm-none-eabi-gcc@8/8.5.0_2/lib/arm-none-eabi-gcc/8/gcc/arm-none-eabi/8.5.0/../../../../../../arm-none-eabi/lib/thumb/v6-m/nofp/libg_nano.a(lib_a-fvwrite.o)
__wrap___aeabi_idivmod                            .build/obj_crkbd_rev1_via/./lib/pico-sdk/src/rp2_common/pico_divider/divider.o
                                                  /var/folders/tr/p8fgs8cd4pn1v7l1rzxd4yfr0000gn/T//ccLV2jr4.ltrans0.ltrans.o
__wrap___aeabi_ldivmod                            .build/obj_crkbd_rev1_via/./lib/pico-sdk/src/rp2_common/pico_divider/divider.o
                                                  /var/folders/tr/p8fgs8cd4pn1v7l1rzxd4yfr0000gn/T//ccLV2jr4.ltrans0.ltrans.o
                                                  .build/obj_crkbd_rev1_via/i2c_master.a(i2c_master.o)
__wrap___aeabi_lmul                               .build/obj_crkbd_rev1_via/./lib/pico-sdk/src/rp2_common/pico_int64_ops/pico_int64_ops_aeabi.o
                                                  /var/folders/tr/p8fgs8cd4pn1v7l1rzxd4yfr0000gn/T//ccLV2jr4.ltrans0.ltrans.o
                                                  /opt/homebrew/Cellar/arm-none-eabi-gcc@8/8.5.0_2/lib/arm-none-eabi-gcc/8/gcc/arm-none-eabi/8.5.0/../../../../../../arm-none-eabi/lib/thumb/v6-m/nofp/libg_nano.a(lib_a-rand.o)
                                                  .build/obj_crkbd_rev1_via/i2c_master.a(i2c_master.o)
__wrap___aeabi_uidiv                              .build/obj_crkbd_rev1_via/./lib/pico-sdk/src/rp2_common/pico_divider/divider.o
                                                  /var/folders/tr/p8fgs8cd4pn1v7l1rzxd4yfr0000gn/T//ccLV2jr4.ltrans0.ltrans.o
__wrap___aeabi_uidivmod                           .build/obj_crkbd_rev1_via/./lib/pico-sdk/src/rp2_common/pico_divider/divider.o
                                                  /var/folders/tr/p8fgs8cd4pn1v7l1rzxd4yfr0000gn/T//ccLV2jr4.ltrans0.ltrans.o
                                                  /opt/homebrew/Cellar/arm-none-eabi-gcc@8/8.5.0_2/lib/arm-none-eabi-gcc/8/gcc/arm-none-eabi/8.5.0/../../../../../../arm-none-eabi/lib/thumb/v6-m/nofp/libg_nano.a(lib_a-nano-vfprintf_i.o)
__wrap___aeabi_uldivmod                           .build/obj_crkbd_rev1_via/./lib/pico-sdk/src/rp2_common/pico_divider/divider.o
                                                  /var/folders/tr/p8fgs8cd4pn1v7l1rzxd4yfr0000gn/T//ccLV2jr4.ltrans0.ltrans.o
                                                  .build/obj_crkbd_rev1_via/i2c_master.a(i2c_master.o)
_cleanup                                          /opt/homebrew/Cellar/arm-none-eabi-gcc@8/8.5.0_2/lib/arm-none-eabi-gcc/8/gcc/arm-none-eabi/8.5.0/../../../../../../arm-none-eabi/lib/thumb/v6-m/nofp/libg_nano.a(lib_a-findfp.o)
_cleanup_r                                        /opt/homebrew/Cellar/arm-none-eabi-gcc@8/8.5.0_2/lib/arm-none-eabi-gcc/8/gcc/arm-none-eabi/8.5.0/../../../../../../arm-none-eabi/lib/thumb/v6-m/nofp/libg_nano.a(lib_a-findfp.o)
                                                  /opt/homebrew/Cellar/arm-none-eabi-gcc@8/8.5.0_2/lib/arm-none-eabi-gcc/8/gcc/arm-none-eabi/8.5.0/../../../../../../arm-none-eabi/lib/thumb/v6-m/nofp/libg_nano.a(lib_a-makebuf.o)
_close_r                                          /var/folders/tr/p8fgs8cd4pn1v7l1rzxd4yfr0000gn/T//ccLV2jr4.ltrans0.ltrans.o
                                                  .build/obj_crkbd_rev1_via/lib/chibios/os/various/syscalls.o (symbol from plugin)
                                                  /opt/homebrew/Cellar/arm-none-eabi-gcc@8/8.5.0_2/lib/arm-none-eabi-gcc/8/gcc/arm-none-eabi/8.5.0/../../../../../../arm-none-eabi/lib/thumb/v6-m/nofp/libg_nano.a(lib_a-stdio.o)
_crt0_entry                                       .build/obj_crkbd_rev1_via/./lib/chibios/os/common/startup/ARMCMx/compilers/GCC/crt0_v6m.o
                                                  .build/obj_crkbd_rev1_via/./lib/chibios/os/common/startup/ARMCMx/compilers/GCC/vectors.o
_ctype_                                           /opt/homebrew/Cellar/arm-none-eabi-gcc@8/8.5.0_2/lib/arm-none-eabi-gcc/8/gcc/arm-none-eabi/8.5.0/../../../../../../arm-none-eabi/lib/thumb/v6-m/nofp/libg_nano.a(lib_a-ctype_.o)
                                                  /var/folders/tr/p8fgs8cd4pn1v7l1rzxd4yfr0000gn/T//ccLV2jr4.ltrans0.ltrans.o
                                                  .build/obj_crkbd_rev1_via/lib/chibios/os/hal/lib/streams/chscanf.o (symbol from plugin)
                                                  .build/obj_crkbd_rev1_via/quantum/send_string/send_string.o (symbol from plugin)
_exit                                             /var/folders/tr/p8fgs8cd4pn1v7l1rzxd4yfr0000gn/T//ccLV2jr4.ltrans0.ltrans.o
                                                  /opt/homebrew/Cellar/arm-none-eabi-gcc@8/8.5.0_2/lib/arm-none-eabi-gcc/8/gcc/arm-none-eabi/8.5.0/../../../../../../arm-none-eabi/lib/thumb/v6-m/nofp/libg_nano.a(lib_a-abort.o)
_fflush_r                                         /opt/homebrew/Cellar/arm-none-eabi-gcc@8/8.5.0_2/lib/arm-none-eabi-gcc/8/gcc/arm-none-eabi/8.5.0/../../../../../../arm-none-eabi/lib/thumb/v6-m/nofp/libg_nano.a(lib_a-fflush.o)
                                                  /opt/homebrew/Cellar/arm-none-eabi-gcc@8/8.5.0_2/lib/arm-none-eabi-gcc/8/gcc/arm-none-eabi/8.5.0/../../../../../../arm-none-eabi/lib/thumb/v6-m/nofp/libg_nano.a(lib_a-fvwrite.o)
                                                  /opt/homebrew/Cellar/arm-none-eabi-gcc@8/8.5.0_2/lib/arm-none-eabi-gcc/8/gcc/arm-none-eabi/8.5.0/../../../../../../arm-none-eabi/lib/thumb/v6-m/nofp/libg_nano.a(lib_a-findfp.o)
                                                  /opt/homebrew/Cellar/arm-none-eabi-gcc@8/8.5.0_2/lib/arm-none-eabi-gcc/8/gcc/arm-none-eabi/8.5.0/../../../../../../arm-none-eabi/lib/thumb/v6-m/nofp/libg_nano.a(lib_a-wbuf.o)
_fini                                             /var/folders/tr/p8fgs8cd4pn1v7l1rzxd4yfr0000gn/T//ccLV2jr4.ltrans0.ltrans.o
                                                  .build/obj_crkbd_rev1_via/platforms/chibios/syscall-fallbacks.o (symbol from plugin)
_fiprintf_r                                       /opt/homebrew/Cellar/arm-none-eabi-gcc@8/8.5.0_2/lib/arm-none-eabi-gcc/8/gcc/arm-none-eabi/8.5.0/../../../../../../arm-none-eabi/lib/thumb/v6-m/nofp/libg_nano.a(lib_a-fprintf.o)
_fprintf_r                                        /opt/homebrew/Cellar/arm-none-eabi-gcc@8/8.5.0_2/lib/arm-none-eabi-gcc/8/gcc/arm-none-eabi/8.5.0/../../../../../../arm-none-eabi/lib/thumb/v6-m/nofp/libg_nano.a(lib_a-fprintf.o)
_free_r                                           /opt/homebrew/Cellar/arm-none-eabi-gcc@8/8.5.0_2/lib/arm-none-eabi-gcc/8/gcc/arm-none-eabi/8.5.0/../../../../../../arm-none-eabi/lib/thumb/v6-m/nofp/libg_nano.a(lib_a-nano-freer.o)
                                                  /opt/homebrew/Cellar/arm-none-eabi-gcc@8/8.5.0_2/lib/arm-none-eabi-gcc/8/gcc/arm-none-eabi/8.5.0/../../../../../../arm-none-eabi/lib/thumb/v6-m/nofp/libg_nano.a(lib_a-reent.o)
                                                  /opt/homebrew/Cellar/arm-none-eabi-gcc@8/8.5.0_2/lib/arm-none-eabi-gcc/8/gcc/arm-none-eabi/8.5.0/../../../../../../arm-none-eabi/lib/thumb/v6-m/nofp/libg_nano.a(lib_a-nano-reallocr.o)
                                                  /opt/homebrew/Cellar/arm-none-eabi-gcc@8/8.5.0_2/lib/arm-none-eabi-gcc/8/gcc/arm-none-eabi/8.5.0/../../../../../../arm-none-eabi/lib/thumb/v6-m/nofp/libg_nano.a(lib_a-fvwrite.o)
                                                  /opt/homebrew/Cellar/arm-none-eabi-gcc@8/8.5.0_2/lib/arm-none-eabi-gcc/8/gcc/arm-none-eabi/8.5.0/../../../../../../arm-none-eabi/lib/thumb/v6-m/nofp/libg_nano.a(lib_a-fflush.o)
                                                  /opt/homebrew/Cellar/arm-none-eabi-gcc@8/8.5.0_2/lib/arm-none-eabi-gcc/8/gcc/arm-none-eabi/8.5.0/../../../../../../arm-none-eabi/lib/thumb/v6-m/nofp/libg_nano.a(lib_a-wsetup.o)
                                                  /opt/homebrew/Cellar/arm-none-eabi-gcc@8/8.5.0_2/lib/arm-none-eabi-gcc/8/gcc/arm-none-eabi/8.5.0/../../../../../../arm-none-eabi/lib/thumb/v6-m/nofp/libg_nano.a(lib_a-malloc.o)
_fstat_r                                          /var/folders/tr/p8fgs8cd4pn1v7l1rzxd4yfr0000gn/T//ccLV2jr4.ltrans0.ltrans.o
                                                  .build/obj_crkbd_rev1_via/lib/chibios/os/various/syscalls.o (symbol from plugin)
                                                  /opt/homebrew/Cellar/arm-none-eabi-gcc@8/8.5.0_2/lib/arm-none-eabi-gcc/8/gcc/arm-none-eabi/8.5.0/../../../../../../arm-none-eabi/lib/thumb/v6-m/nofp/libg_nano.a(lib_a-makebuf.o)
_fwalk                                            /opt/homebrew/Cellar/arm-none-eabi-gcc@8/8.5.0_2/lib/arm-none-eabi-gcc/8/gcc/arm-none-eabi/8.5.0/../../../../../../arm-none-eabi/lib/thumb/v6-m/nofp/libg_nano.a(lib_a-fwalk.o)
                                                  /opt/homebrew/Cellar/arm-none-eabi-gcc@8/8.5.0_2/lib/arm-none-eabi-gcc/8/gcc/arm-none-eabi/8.5.0/../../../../../../arm-none-eabi/lib/thumb/v6-m/nofp/libg_nano.a(lib_a-findfp.o)
_fwalk_reent                                      /opt/homebrew/Cellar/arm-none-eabi-gcc@8/8.5.0_2/lib/arm-none-eabi-gcc/8/gcc/arm-none-eabi/8.5.0/../../../../../../arm-none-eabi/lib/thumb/v6-m/nofp/libg_nano.a(lib_a-fwalk.o)
                                                  /opt/homebrew/Cellar/arm-none-eabi-gcc@8/8.5.0_2/lib/arm-none-eabi-gcc/8/gcc/arm-none-eabi/8.5.0/../../../../../../arm-none-eabi/lib/thumb/v6-m/nofp/libg_nano.a(lib_a-findfp.o)
                                                  /opt/homebrew/Cellar/arm-none-eabi-gcc@8/8.5.0_2/lib/arm-none-eabi-gcc/8/gcc/arm-none-eabi/8.5.0/../../../../../../arm-none-eabi/lib/thumb/v6-m/nofp/libg_nano.a(lib_a-fflush.o)
_getpid                                           /var/folders/tr/p8fgs8cd4pn1v7l1rzxd4yfr0000gn/T//ccLV2jr4.ltrans0.ltrans.o
                                                  .build/obj_crkbd_rev1_via/lib/chibios/os/various/syscalls.o (symbol from plugin)
                                                  /opt/homebrew/Cellar/arm-none-eabi-gcc@8/8.5.0_2/lib/arm-none-eabi-gcc/8/gcc/arm-none-eabi/8.5.0/../../../../../../arm-none-eabi/lib/thumb/v6-m/nofp/libg_nano.a(lib_a-signalr.o)
_getpid_r                                         /opt/homebrew/Cellar/arm-none-eabi-gcc@8/8.5.0_2/lib/arm-none-eabi-gcc/8/gcc/arm-none-eabi/8.5.0/../../../../../../arm-none-eabi/lib/thumb/v6-m/nofp/libg_nano.a(lib_a-signalr.o)
                                                  /opt/homebrew/Cellar/arm-none-eabi-gcc@8/8.5.0_2/lib/arm-none-eabi-gcc/8/gcc/arm-none-eabi/8.5.0/../../../../../../arm-none-eabi/lib/thumb/v6-m/nofp/libg_nano.a(lib_a-signal.o)
_gettimeofday_r                                   /var/folders/tr/p8fgs8cd4pn1v7l1rzxd4yfr0000gn/T//ccLV2jr4.ltrans0.ltrans.o
                                                  .build/obj_crkbd_rev1_via/platforms/chibios/syscall-fallbacks.o (symbol from plugin)
_global_impure_ptr                                /opt/homebrew/Cellar/arm-none-eabi-gcc@8/8.5.0_2/lib/arm-none-eabi-gcc/8/gcc/arm-none-eabi/8.5.0/../../../../../../arm-none-eabi/lib/thumb/v6-m/nofp/libg_nano.a(lib_a-impure.o)
                                                  /opt/homebrew/Cellar/arm-none-eabi-gcc@8/8.5.0_2/lib/arm-none-eabi-gcc/8/gcc/arm-none-eabi/8.5.0/../../../../../../arm-none-eabi/lib/thumb/v6-m/nofp/libg_nano.a(lib_a-findfp.o)
                                                  /opt/homebrew/Cellar/arm-none-eabi-gcc@8/8.5.0_2/lib/arm-none-eabi-gcc/8/gcc/arm-none-eabi/8.5.0/../../../../../../arm-none-eabi/lib/thumb/v6-m/nofp/libg_nano.a(lib_a-fflush.o)
_impure_ptr                                       /opt/homebrew/Cellar/arm-none-eabi-gcc@8/8.5.0_2/lib/arm-none-eabi-gcc/8/gcc/arm-none-eabi/8.5.0/../../../../../../arm-none-eabi/lib/thumb/v6-m/nofp/libg_nano.a(lib_a-impure.o)
                                                  /opt/homebrew/Cellar/arm-none-eabi-gcc@8/8.5.0_2/lib/arm-none-eabi-gcc/8/gcc/arm-none-eabi/8.5.0/../../../../../../arm-none-eabi/lib/thumb/v6-m/nofp/libg_nano.a(lib_a-reent.o)
                                                  /opt/homebrew/Cellar/arm-none-eabi-gcc@8/8.5.0_2/lib/arm-none-eabi-gcc/8/gcc/arm-none-eabi/8.5.0/../../../../../../arm-none-eabi/lib/thumb/v6-m/nofp/libg_nano.a(lib_a-signal.o)
                                                  /opt/homebrew/Cellar/arm-none-eabi-gcc@8/8.5.0_2/lib/arm-none-eabi-gcc/8/gcc/arm-none-eabi/8.5.0/../../../../../../arm-none-eabi/lib/thumb/v6-m/nofp/libg_nano.a(lib_a-findfp.o)
                                                  /opt/homebrew/Cellar/arm-none-eabi-gcc@8/8.5.0_2/lib/arm-none-eabi-gcc/8/gcc/arm-none-eabi/8.5.0/../../../../../../arm-none-eabi/lib/thumb/v6-m/nofp/libg_nano.a(lib_a-fflush.o)
                                                  /opt/homebrew/Cellar/arm-none-eabi-gcc@8/8.5.0_2/lib/arm-none-eabi-gcc/8/gcc/arm-none-eabi/8.5.0/../../../../../../arm-none-eabi/lib/thumb/v6-m/nofp/libg_nano.a(lib_a-wsetup.o)
                                                  /opt/homebrew/Cellar/arm-none-eabi-gcc@8/8.5.0_2/lib/arm-none-eabi-gcc/8/gcc/arm-none-eabi/8.5.0/../../../../../../arm-none-eabi/lib/thumb/v6-m/nofp/libg_nano.a(lib_a-wbuf.o)
                                                  /opt/homebrew/Cellar/arm-none-eabi-gcc@8/8.5.0_2/lib/arm-none-eabi-gcc/8/gcc/arm-none-eabi/8.5.0/../../../../../../arm-none-eabi/lib/thumb/v6-m/nofp/libg_nano.a(lib_a-nano-vfprintf.o)
                                                  /opt/homebrew/Cellar/arm-none-eabi-gcc@8/8.5.0_2/lib/arm-none-eabi-gcc/8/gcc/arm-none-eabi/8.5.0/../../../../../../arm-none-eabi/lib/thumb/v6-m/nofp/libg_nano.a(lib_a-malloc.o)
                                                  /opt/homebrew/Cellar/arm-none-eabi-gcc@8/8.5.0_2/lib/arm-none-eabi-gcc/8/gcc/arm-none-eabi/8.5.0/../../../../../../arm-none-eabi/lib/thumb/v6-m/nofp/libg_nano.a(lib_a-fprintf.o)
                                                  /opt/homebrew/Cellar/arm-none-eabi-gcc@8/8.5.0_2/lib/arm-none-eabi-gcc/8/gcc/arm-none-eabi/8.5.0/../../../../../../arm-none-eabi/lib/thumb/v6-m/nofp/libg_nano.a(lib_a-assert.o)
                                                  /opt/homebrew/Cellar/arm-none-eabi-gcc@8/8.5.0_2/lib/arm-none-eabi-gcc/8/gcc/arm-none-eabi/8.5.0/../../../../../../arm-none-eabi/lib/thumb/v6-m/nofp/libg_nano.a(lib_a-rand.o)
                                                  /opt/homebrew/Cellar/arm-none-eabi-gcc@8/8.5.0_2/lib/arm-none-eabi-gcc/8/gcc/arm-none-eabi/8.5.0/../../../../../../arm-none-eabi/lib/thumb/v6-m/nofp/libg_nano.a(lib_a-errno.o)
_init_signal                                      /opt/homebrew/Cellar/arm-none-eabi-gcc@8/8.5.0_2/lib/arm-none-eabi-gcc/8/gcc/arm-none-eabi/8.5.0/../../../../../../arm-none-eabi/lib/thumb/v6-m/nofp/libg_nano.a(lib_a-signal.o)
_init_signal_r                                    /opt/homebrew/Cellar/arm-none-eabi-gcc@8/8.5.0_2/lib/arm-none-eabi-gcc/8/gcc/arm-none-eabi/8.5.0/../../../../../../arm-none-eabi/lib/thumb/v6-m/nofp/libg_nano.a(lib_a-signal.o)
_isatty_r                                         /var/folders/tr/p8fgs8cd4pn1v7l1rzxd4yfr0000gn/T//ccLV2jr4.ltrans0.ltrans.o
                                                  .build/obj_crkbd_rev1_via/lib/chibios/os/various/syscalls.o (symbol from plugin)
                                                  /opt/homebrew/Cellar/arm-none-eabi-gcc@8/8.5.0_2/lib/arm-none-eabi-gcc/8/gcc/arm-none-eabi/8.5.0/../../../../../../arm-none-eabi/lib/thumb/v6-m/nofp/libg_nano.a(lib_a-makebuf.o)
_kill                                             /var/folders/tr/p8fgs8cd4pn1v7l1rzxd4yfr0000gn/T//ccLV2jr4.ltrans0.ltrans.o
                                                  .build/obj_crkbd_rev1_via/lib/chibios/os/various/syscalls.o (symbol from plugin)
                                                  /opt/homebrew/Cellar/arm-none-eabi-gcc@8/8.5.0_2/lib/arm-none-eabi-gcc/8/gcc/arm-none-eabi/8.5.0/../../../../../../arm-none-eabi/lib/thumb/v6-m/nofp/libg_nano.a(lib_a-signalr.o)
_kill_r                                           /opt/homebrew/Cellar/arm-none-eabi-gcc@8/8.5.0_2/lib/arm-none-eabi-gcc/8/gcc/arm-none-eabi/8.5.0/../../../../../../arm-none-eabi/lib/thumb/v6-m/nofp/libg_nano.a(lib_a-signalr.o)
                                                  /opt/homebrew/Cellar/arm-none-eabi-gcc@8/8.5.0_2/lib/arm-none-eabi-gcc/8/gcc/arm-none-eabi/8.5.0/../../../../../../arm-none-eabi/lib/thumb/v6-m/nofp/libg_nano.a(lib_a-signal.o)
_link_r                                           /var/folders/tr/p8fgs8cd4pn1v7l1rzxd4yfr0000gn/T//ccLV2jr4.ltrans0.ltrans.o
                                                  .build/obj_crkbd_rev1_via/platforms/chibios/syscall-fallbacks.o (symbol from plugin)
_lseek_r                                          /var/folders/tr/p8fgs8cd4pn1v7l1rzxd4yfr0000gn/T//ccLV2jr4.ltrans0.ltrans.o
                                                  .build/obj_crkbd_rev1_via/lib/chibios/os/various/syscalls.o (symbol from plugin)
                                                  /opt/homebrew/Cellar/arm-none-eabi-gcc@8/8.5.0_2/lib/arm-none-eabi-gcc/8/gcc/arm-none-eabi/8.5.0/../../../../../../arm-none-eabi/lib/thumb/v6-m/nofp/libg_nano.a(lib_a-stdio.o)
_malloc_r                                         /opt/homebrew/Cellar/arm-none-eabi-gcc@8/8.5.0_2/lib/arm-none-eabi-gcc/8/gcc/arm-none-eabi/8.5.0/../../../../../../arm-none-eabi/lib/thumb/v6-m/nofp/libg_nano.a(lib_a-nano-mallocr.o)
                                                  /opt/homebrew/Cellar/arm-none-eabi-gcc@8/8.5.0_2/lib/arm-none-eabi-gcc/8/gcc/arm-none-eabi/8.5.0/../../../../../../arm-none-eabi/lib/thumb/v6-m/nofp/libg_nano.a(lib_a-signal.o)
                                                  /opt/homebrew/Cellar/arm-none-eabi-gcc@8/8.5.0_2/lib/arm-none-eabi-gcc/8/gcc/arm-none-eabi/8.5.0/../../../../../../arm-none-eabi/lib/thumb/v6-m/nofp/libg_nano.a(lib_a-nano-reallocr.o)
                                                  /opt/homebrew/Cellar/arm-none-eabi-gcc@8/8.5.0_2/lib/arm-none-eabi-gcc/8/gcc/arm-none-eabi/8.5.0/../../../../../../arm-none-eabi/lib/thumb/v6-m/nofp/libg_nano.a(lib_a-makebuf.o)
                                                  /opt/homebrew/Cellar/arm-none-eabi-gcc@8/8.5.0_2/lib/arm-none-eabi-gcc/8/gcc/arm-none-eabi/8.5.0/../../../../../../arm-none-eabi/lib/thumb/v6-m/nofp/libg_nano.a(lib_a-fvwrite.o)
                                                  /opt/homebrew/Cellar/arm-none-eabi-gcc@8/8.5.0_2/lib/arm-none-eabi-gcc/8/gcc/arm-none-eabi/8.5.0/../../../../../../arm-none-eabi/lib/thumb/v6-m/nofp/libg_nano.a(lib_a-findfp.o)
                                                  /opt/homebrew/Cellar/arm-none-eabi-gcc@8/8.5.0_2/lib/arm-none-eabi-gcc/8/gcc/arm-none-eabi/8.5.0/../../../../../../arm-none-eabi/lib/thumb/v6-m/nofp/libg_nano.a(lib_a-malloc.o)
_malloc_usable_size_r                             /opt/homebrew/Cellar/arm-none-eabi-gcc@8/8.5.0_2/lib/arm-none-eabi-gcc/8/gcc/arm-none-eabi/8.5.0/../../../../../../arm-none-eabi/lib/thumb/v6-m/nofp/libg_nano.a(lib_a-nano-msizer.o)
                                                  /opt/homebrew/Cellar/arm-none-eabi-gcc@8/8.5.0_2/lib/arm-none-eabi-gcc/8/gcc/arm-none-eabi/8.5.0/../../../../../../arm-none-eabi/lib/thumb/v6-m/nofp/libg_nano.a(lib_a-nano-reallocr.o)
_open_r                                           /var/folders/tr/p8fgs8cd4pn1v7l1rzxd4yfr0000gn/T//ccLV2jr4.ltrans0.ltrans.o
                                                  .build/obj_crkbd_rev1_via/lib/chibios/os/various/syscalls.o (symbol from plugin)
_printf_common                                    /opt/homebrew/Cellar/arm-none-eabi-gcc@8/8.5.0_2/lib/arm-none-eabi-gcc/8/gcc/arm-none-eabi/8.5.0/../../../../../../arm-none-eabi/lib/thumb/v6-m/nofp/libg_nano.a(lib_a-nano-vfprintf_i.o)
_printf_float                                     /opt/homebrew/Cellar/arm-none-eabi-gcc@8/8.5.0_2/lib/arm-none-eabi-gcc/8/gcc/arm-none-eabi/8.5.0/../../../../../../arm-none-eabi/lib/thumb/v6-m/nofp/libg_nano.a(lib_a-nano-vfprintf.o)
_printf_i                                         /opt/homebrew/Cellar/arm-none-eabi-gcc@8/8.5.0_2/lib/arm-none-eabi-gcc/8/gcc/arm-none-eabi/8.5.0/../../../../../../arm-none-eabi/lib/thumb/v6-m/nofp/libg_nano.a(lib_a-nano-vfprintf_i.o)
                                                  /opt/homebrew/Cellar/arm-none-eabi-gcc@8/8.5.0_2/lib/arm-none-eabi-gcc/8/gcc/arm-none-eabi/8.5.0/../../../../../../arm-none-eabi/lib/thumb/v6-m/nofp/libg_nano.a(lib_a-nano-vfprintf.o)
_raise_r                                          /opt/homebrew/Cellar/arm-none-eabi-gcc@8/8.5.0_2/lib/arm-none-eabi-gcc/8/gcc/arm-none-eabi/8.5.0/../../../../../../arm-none-eabi/lib/thumb/v6-m/nofp/libg_nano.a(lib_a-signal.o)
_read_r                                           /var/folders/tr/p8fgs8cd4pn1v7l1rzxd4yfr0000gn/T//ccLV2jr4.ltrans0.ltrans.o
                                                  .build/obj_crkbd_rev1_via/lib/chibios/os/various/syscalls.o (symbol from plugin)
                                                  /opt/homebrew/Cellar/arm-none-eabi-gcc@8/8.5.0_2/lib/arm-none-eabi-gcc/8/gcc/arm-none-eabi/8.5.0/../../../../../../arm-none-eabi/lib/thumb/v6-m/nofp/libg_nano.a(lib_a-stdio.o)
_realloc_r                                        /opt/homebrew/Cellar/arm-none-eabi-gcc@8/8.5.0_2/lib/arm-none-eabi-gcc/8/gcc/arm-none-eabi/8.5.0/../../../../../../arm-none-eabi/lib/thumb/v6-m/nofp/libg_nano.a(lib_a-nano-reallocr.o)
                                                  /opt/homebrew/Cellar/arm-none-eabi-gcc@8/8.5.0_2/lib/arm-none-eabi-gcc/8/gcc/arm-none-eabi/8.5.0/../../../../../../arm-none-eabi/lib/thumb/v6-m/nofp/libg_nano.a(lib_a-fvwrite.o)
_reclaim_reent                                    /opt/homebrew/Cellar/arm-none-eabi-gcc@8/8.5.0_2/lib/arm-none-eabi-gcc/8/gcc/arm-none-eabi/8.5.0/../../../../../../arm-none-eabi/lib/thumb/v6-m/nofp/libg_nano.a(lib_a-reent.o)
_sbrk_r                                           /var/folders/tr/p8fgs8cd4pn1v7l1rzxd4yfr0000gn/T//ccLV2jr4.ltrans0.ltrans.o
                                                  .build/obj_crkbd_rev1_via/lib/chibios/os/various/syscalls.o (symbol from plugin)
                                                  /opt/homebrew/Cellar/arm-none-eabi-gcc@8/8.5.0_2/lib/arm-none-eabi-gcc/8/gcc/arm-none-eabi/8.5.0/../../../../../../arm-none-eabi/lib/thumb/v6-m/nofp/libg_nano.a(lib_a-nano-mallocr.o)
_signal_r                                         /opt/homebrew/Cellar/arm-none-eabi-gcc@8/8.5.0_2/lib/arm-none-eabi-gcc/8/gcc/arm-none-eabi/8.5.0/../../../../../../arm-none-eabi/lib/thumb/v6-m/nofp/libg_nano.a(lib_a-signal.o)
_times_r                                          /var/folders/tr/p8fgs8cd4pn1v7l1rzxd4yfr0000gn/T//ccLV2jr4.ltrans0.ltrans.o
                                                  .build/obj_crkbd_rev1_via/platforms/chibios/syscall-fallbacks.o (symbol from plugin)
_unhandled_exception                              .build/obj_crkbd_rev1_via/./lib/chibios/os/common/startup/ARMCMx/compilers/GCC/vectors.o
_unlink_r                                         /var/folders/tr/p8fgs8cd4pn1v7l1rzxd4yfr0000gn/T//ccLV2jr4.ltrans0.ltrans.o
                                                  .build/obj_crkbd_rev1_via/platforms/chibios/syscall-fallbacks.o (symbol from plugin)
_usb_ep0in                                        .build/obj_crkbd_rev1_via/lib/chibios/os/hal/src/hal_usb.o (symbol from plugin)
                                                  .build/obj_crkbd_rev1_via/lib/chibios-contrib/os/hal/ports/RP/LLD/USBDv1/hal_usb_lld.o (symbol from plugin)
_usb_ep0out                                       .build/obj_crkbd_rev1_via/lib/chibios/os/hal/src/hal_usb.o (symbol from plugin)
                                                  .build/obj_crkbd_rev1_via/lib/chibios-contrib/os/hal/ports/RP/LLD/USBDv1/hal_usb_lld.o (symbol from plugin)
_usb_ep0setup                                     .build/obj_crkbd_rev1_via/lib/chibios/os/hal/src/hal_usb.o (symbol from plugin)
                                                  .build/obj_crkbd_rev1_via/lib/chibios-contrib/os/hal/ports/RP/LLD/USBDv1/hal_usb_lld.o (symbol from plugin)
_usb_reset                                        .build/obj_crkbd_rev1_via/lib/chibios/os/hal/src/hal_usb.o (symbol from plugin)
                                                  .build/obj_crkbd_rev1_via/lib/chibios-contrib/os/hal/ports/RP/LLD/USBDv1/hal_usb_lld.o (symbol from plugin)
_usb_suspend                                      .build/obj_crkbd_rev1_via/lib/chibios/os/hal/src/hal_usb.o (symbol from plugin)
                                                  .build/obj_crkbd_rev1_via/lib/chibios-contrib/os/hal/ports/RP/LLD/USBDv1/hal_usb_lld.o (symbol from plugin)
_usb_wakeup                                       .build/obj_crkbd_rev1_via/lib/chibios/os/hal/src/hal_usb.o (symbol from plugin)
                                                  .build/obj_crkbd_rev1_via/lib/chibios-contrib/os/hal/ports/RP/LLD/USBDv1/hal_usb_lld.o (symbol from plugin)
_vectors                                          .build/obj_crkbd_rev1_via/./lib/chibios/os/common/startup/ARMCMx/compilers/GCC/vectors.o
                                                  .build/obj_crkbd_rev1_via/./lib/chibios/os/common/startup/ARMCMx/compilers/GCC/crt0_v6m.o
_vfiprintf_r                                      /opt/homebrew/Cellar/arm-none-eabi-gcc@8/8.5.0_2/lib/arm-none-eabi-gcc/8/gcc/arm-none-eabi/8.5.0/../../../../../../arm-none-eabi/lib/thumb/v6-m/nofp/libg_nano.a(lib_a-nano-vfprintf.o)
_vfprintf_r                                       /opt/homebrew/Cellar/arm-none-eabi-gcc@8/8.5.0_2/lib/arm-none-eabi-gcc/8/gcc/arm-none-eabi/8.5.0/../../../../../../arm-none-eabi/lib/thumb/v6-m/nofp/libg_nano.a(lib_a-nano-vfprintf.o)
                                                  /opt/homebrew/Cellar/arm-none-eabi-gcc@8/8.5.0_2/lib/arm-none-eabi-gcc/8/gcc/arm-none-eabi/8.5.0/../../../../../../arm-none-eabi/lib/thumb/v6-m/nofp/libg_nano.a(lib_a-fprintf.o)
_watchdog_enable                                  .build/obj_crkbd_rev1_via/./lib/pico-sdk/src/rp2_common/hardware_watchdog/watchdog.o (symbol from plugin)
_write_r                                          /var/folders/tr/p8fgs8cd4pn1v7l1rzxd4yfr0000gn/T//ccLV2jr4.ltrans0.ltrans.o
                                                  .build/obj_crkbd_rev1_via/lib/chibios/os/various/syscalls.o (symbol from plugin)
                                                  /opt/homebrew/Cellar/arm-none-eabi-gcc@8/8.5.0_2/lib/arm-none-eabi-gcc/8/gcc/arm-none-eabi/8.5.0/../../../../../../arm-none-eabi/lib/thumb/v6-m/nofp/libg_nano.a(lib_a-stdio.o)
abort                                             /opt/homebrew/Cellar/arm-none-eabi-gcc@8/8.5.0_2/lib/arm-none-eabi-gcc/8/gcc/arm-none-eabi/8.5.0/../../../../../../arm-none-eabi/lib/thumb/v6-m/nofp/libg_nano.a(lib_a-abort.o)
                                                  /opt/homebrew/Cellar/arm-none-eabi-gcc@8/8.5.0_2/lib/arm-none-eabi-gcc/8/gcc/arm-none-eabi/8.5.0/../../../../../../arm-none-eabi/lib/thumb/v6-m/nofp/libg_nano.a(lib_a-assert.o)
action.c.cb908810                                 /var/folders/tr/p8fgs8cd4pn1v7l1rzxd4yfr0000gn/T//ccgyOZ3Gdebugobj
                                                  /var/folders/tr/p8fgs8cd4pn1v7l1rzxd4yfr0000gn/T//ccLV2jr4.ltrans1.ltrans.o
                                                  /var/folders/tr/p8fgs8cd4pn1v7l1rzxd4yfr0000gn/T//ccLV2jr4.ltrans0.ltrans.o
action_exec                                       .build/obj_crkbd_rev1_via/quantum/action.o (symbol from plugin)
                                                  .build/obj_crkbd_rev1_via/quantum/keyboard.o (symbol from plugin)
action_for_key                                    .build/obj_crkbd_rev1_via/quantum/keymap_common.o (symbol from plugin)
                                                  .build/obj_crkbd_rev1_via/quantum/action_layer.o (symbol from plugin)
action_for_keycode                                .build/obj_crkbd_rev1_via/quantum/keymap_common.o (symbol from plugin)
action_layer.c.f340ff6e                           /var/folders/tr/p8fgs8cd4pn1v7l1rzxd4yfr0000gn/T//ccgyOZ3Gdebugobj
                                                  /var/folders/tr/p8fgs8cd4pn1v7l1rzxd4yfr0000gn/T//ccLV2jr4.ltrans1.ltrans.o
                                                  /var/folders/tr/p8fgs8cd4pn1v7l1rzxd4yfr0000gn/T//ccLV2jr4.ltrans0.ltrans.o
action_tapping.c.663c0320                         /var/folders/tr/p8fgs8cd4pn1v7l1rzxd4yfr0000gn/T//ccgyOZ3Gdebugobj
                                                  /var/folders/tr/p8fgs8cd4pn1v7l1rzxd4yfr0000gn/T//ccLV2jr4.ltrans0.ltrans.o
action_tapping_process                            .build/obj_crkbd_rev1_via/quantum/action_tapping.o (symbol from plugin)
                                                  .build/obj_crkbd_rev1_via/quantum/action.o (symbol from plugin)
action_util.c.8d9f0583                            /var/folders/tr/p8fgs8cd4pn1v7l1rzxd4yfr0000gn/T//ccgyOZ3Gdebugobj
                                                  /var/folders/tr/p8fgs8cd4pn1v7l1rzxd4yfr0000gn/T//ccLV2jr4.ltrans0.ltrans.o
adcAcquireBus                                     .build/obj_crkbd_rev1_via/lib/chibios/os/hal/src/hal_adc.o (symbol from plugin)
adcConvert                                        .build/obj_crkbd_rev1_via/lib/chibios/os/hal/src/hal_adc.o (symbol from plugin)
adcInit                                           .build/obj_crkbd_rev1_via/lib/chibios/os/hal/src/hal_adc.o (symbol from plugin)
                                                  .build/obj_crkbd_rev1_via/lib/chibios/os/hal/src/hal.o (symbol from plugin)
adcObjectInit                                     .build/obj_crkbd_rev1_via/lib/chibios/os/hal/src/hal_adc.o (symbol from plugin)
                                                  .build/obj_crkbd_rev1_via/lib/chibios-contrib/os/hal/ports/RP/LLD/ADCv1/hal_adc_lld.o (symbol from plugin)
adcRPDisableTS                                    .build/obj_crkbd_rev1_via/lib/chibios-contrib/os/hal/ports/RP/LLD/ADCv1/hal_adc_lld.o (symbol from plugin)
adcRPEnableTS                                     .build/obj_crkbd_rev1_via/lib/chibios-contrib/os/hal/ports/RP/LLD/ADCv1/hal_adc_lld.o (symbol from plugin)
adcReleaseBus                                     .build/obj_crkbd_rev1_via/lib/chibios/os/hal/src/hal_adc.o (symbol from plugin)
adcStart                                          .build/obj_crkbd_rev1_via/lib/chibios/os/hal/src/hal_adc.o (symbol from plugin)
adcStartConversion                                .build/obj_crkbd_rev1_via/lib/chibios/os/hal/src/hal_adc.o (symbol from plugin)
adcStartConversionI                               .build/obj_crkbd_rev1_via/lib/chibios/os/hal/src/hal_adc.o (symbol from plugin)
adcStop                                           .build/obj_crkbd_rev1_via/lib/chibios/os/hal/src/hal_adc.o (symbol from plugin)
adcStopConversion                                 .build/obj_crkbd_rev1_via/lib/chibios/os/hal/src/hal_adc.o (symbol from plugin)
adcStopConversionI                                .build/obj_crkbd_rev1_via/lib/chibios/os/hal/src/hal_adc.o (symbol from plugin)
adc_lld_init                                      .build/obj_crkbd_rev1_via/lib/chibios-contrib/os/hal/ports/RP/LLD/ADCv1/hal_adc_lld.o (symbol from plugin)
                                                  .build/obj_crkbd_rev1_via/lib/chibios/os/hal/src/hal_adc.o (symbol from plugin)
adc_lld_start                                     .build/obj_crkbd_rev1_via/lib/chibios-contrib/os/hal/ports/RP/LLD/ADCv1/hal_adc_lld.o (symbol from plugin)
                                                  .build/obj_crkbd_rev1_via/lib/chibios/os/hal/src/hal_adc.o (symbol from plugin)
adc_lld_start_conversion                          .build/obj_crkbd_rev1_via/lib/chibios-contrib/os/hal/ports/RP/LLD/ADCv1/hal_adc_lld.o (symbol from plugin)
                                                  .build/obj_crkbd_rev1_via/lib/chibios/os/hal/src/hal_adc.o (symbol from plugin)
adc_lld_stop                                      .build/obj_crkbd_rev1_via/lib/chibios-contrib/os/hal/ports/RP/LLD/ADCv1/hal_adc_lld.o (symbol from plugin)
                                                  .build/obj_crkbd_rev1_via/lib/chibios/os/hal/src/hal_adc.o (symbol from plugin)
adc_lld_stop_conversion                           .build/obj_crkbd_rev1_via/lib/chibios-contrib/os/hal/ports/RP/LLD/ADCv1/hal_adc_lld.o (symbol from plugin)
                                                  .build/obj_crkbd_rev1_via/lib/chibios/os/hal/src/hal_adc.o (symbol from plugin)
add_key                                           .build/obj_crkbd_rev1_via/quantum/action_util.o (symbol from plugin)
add_key_bit                                       .build/obj_crkbd_rev1_via/protocol/report.o (symbol from plugin)
add_key_byte                                      .build/obj_crkbd_rev1_via/protocol/report.o (symbol from plugin)
add_key_to_report                                 .build/obj_crkbd_rev1_via/protocol/report.o (symbol from plugin)
                                                  .build/obj_crkbd_rev1_via/quantum/process_keycode/process_grave_esc.o (symbol from plugin)
                                                  .build/obj_crkbd_rev1_via/quantum/action_util.o (symbol from plugin)
                                                  .build/obj_crkbd_rev1_via/quantum/action.o (symbol from plugin)
add_mods                                          .build/obj_crkbd_rev1_via/quantum/action_util.o (symbol from plugin)
                                                  .build/obj_crkbd_rev1_via/quantum/action.o (symbol from plugin)
add_oneshot_locked_mods                           .build/obj_crkbd_rev1_via/quantum/action_util.o (symbol from plugin)
add_oneshot_mods                                  .build/obj_crkbd_rev1_via/quantum/action_util.o (symbol from plugin)
                                                  .build/obj_crkbd_rev1_via/quantum/action.o (symbol from plugin)
add_weak_mods                                     .build/obj_crkbd_rev1_via/quantum/action_util.o (symbol from plugin)
                                                  .build/obj_crkbd_rev1_via/quantum/action.o (symbol from plugin)
animation_status                                  .build/obj_crkbd_rev1_via/quantum/rgblight/rgblight.o (symbol from plugin)
ascii_to_altgr_lut                                .build/obj_crkbd_rev1_via/quantum/send_string/send_string.o (symbol from plugin)
ascii_to_dead_lut                                 .build/obj_crkbd_rev1_via/quantum/send_string/send_string.o (symbol from plugin)
ascii_to_keycode_lut                              .build/obj_crkbd_rev1_via/quantum/send_string/send_string.o (symbol from plugin)
ascii_to_shift_lut                                .build/obj_crkbd_rev1_via/quantum/send_string/send_string.o (symbol from plugin)
backing_store_erase                               .build/obj_crkbd_rev1_via/wear_leveling_rp2040_flash.o (symbol from plugin)
                                                  .build/obj_crkbd_rev1_via/wear_leveling.o (symbol from plugin)
backing_store_init                                .build/obj_crkbd_rev1_via/wear_leveling_rp2040_flash.o (symbol from plugin)
                                                  .build/obj_crkbd_rev1_via/wear_leveling.o (symbol from plugin)
backing_store_lock                                .build/obj_crkbd_rev1_via/wear_leveling_rp2040_flash.o (symbol from plugin)
                                                  .build/obj_crkbd_rev1_via/wear_leveling.o (symbol from plugin)
backing_store_read                                .build/obj_crkbd_rev1_via/wear_leveling_rp2040_flash.o (symbol from plugin)
                                                  .build/obj_crkbd_rev1_via/wear_leveling.o (symbol from plugin)
backing_store_read_bulk                           .build/obj_crkbd_rev1_via/wear_leveling_rp2040_flash.o (symbol from plugin)
                                                  .build/obj_crkbd_rev1_via/wear_leveling.o (symbol from plugin)
backing_store_unlock                              .build/obj_crkbd_rev1_via/wear_leveling_rp2040_flash.o (symbol from plugin)
                                                  .build/obj_crkbd_rev1_via/wear_leveling.o (symbol from plugin)
backing_store_write                               .build/obj_crkbd_rev1_via/wear_leveling_rp2040_flash.o (symbol from plugin)
                                                  .build/obj_crkbd_rev1_via/wear_leveling.o (symbol from plugin)
backing_store_write_bulk                          .build/obj_crkbd_rev1_via/wear_leveling_rp2040_flash.o (symbol from plugin)
                                                  .build/obj_crkbd_rev1_via/wear_leveling.o (symbol from plugin)
biton                                             /var/folders/tr/p8fgs8cd4pn1v7l1rzxd4yfr0000gn/T//ccLV2jr4.ltrans1.ltrans.o
                                                  .build/obj_crkbd_rev1_via/quantum/bitwise.o (symbol from plugin)
                                                  /var/folders/tr/p8fgs8cd4pn1v7l1rzxd4yfr0000gn/T//ccLV2jr4.ltrans0.ltrans.o
                                                  .build/obj_crkbd_rev1_via/protocol/report.o (symbol from plugin)
                                                  .build/obj_crkbd_rev1_via/keyboards/crkbd/crkbd.o (symbol from plugin)
biton16                                           .build/obj_crkbd_rev1_via/quantum/bitwise.o (symbol from plugin)
biton32                                           .build/obj_crkbd_rev1_via/quantum/bitwise.o (symbol from plugin)
bitpop                                            .build/obj_crkbd_rev1_via/quantum/bitwise.o (symbol from plugin)
                                                  .build/obj_crkbd_rev1_via/quantum/action_util.o (symbol from plugin)
bitpop16                                          .build/obj_crkbd_rev1_via/quantum/bitwise.o (symbol from plugin)
bitpop32                                          .build/obj_crkbd_rev1_via/quantum/bitwise.o (symbol from plugin)
bitrev                                            .build/obj_crkbd_rev1_via/quantum/bitwise.o (symbol from plugin)
bitrev16                                          .build/obj_crkbd_rev1_via/quantum/bitwise.o (symbol from plugin)
bitrev32                                          .build/obj_crkbd_rev1_via/quantum/bitwise.o (symbol from plugin)
bitwise.c.f8089ecf                                /var/folders/tr/p8fgs8cd4pn1v7l1rzxd4yfr0000gn/T//ccgyOZ3Gdebugobj
                                                  /var/folders/tr/p8fgs8cd4pn1v7l1rzxd4yfr0000gn/T//ccLV2jr4.ltrans1.ltrans.o
                                                  /var/folders/tr/p8fgs8cd4pn1v7l1rzxd4yfr0000gn/T//ccLV2jr4.ltrans0.ltrans.o
board.c.d0c6c688                                  /var/folders/tr/p8fgs8cd4pn1v7l1rzxd4yfr0000gn/T//ccgyOZ3Gdebugobj
                                                  /var/folders/tr/p8fgs8cd4pn1v7l1rzxd4yfr0000gn/T//ccLV2jr4.ltrans0.ltrans.o
boardInit                                         .build/obj_crkbd_rev1_via/protocol/chibios/chibios.o (symbol from plugin)
                                                  .build/obj_crkbd_rev1_via/lib/chibios/os/hal/src/hal.o (symbol from plugin)
board_init                                        .build/obj_crkbd_rev1_via/protocol/chibios/chibios.o (symbol from plugin)
bootloader_jump                                   .build/obj_crkbd_rev1_via/platforms/chibios/bootloaders/rp2040.o (symbol from plugin)
                                                  .build/obj_crkbd_rev1_via/quantum/bootmagic/bootmagic.o (symbol from plugin)
                                                  .build/obj_crkbd_rev1_via/quantum/quantum.o (symbol from plugin)
bootmagic                                         .build/obj_crkbd_rev1_via/quantum/bootmagic/bootmagic.o (symbol from plugin)
                                                  .build/obj_crkbd_rev1_via/quantum/keyboard.o (symbol from plugin)
bootmagic.c.d2741dac                              /var/folders/tr/p8fgs8cd4pn1v7l1rzxd4yfr0000gn/T//ccgyOZ3Gdebugobj
                                                  /var/folders/tr/p8fgs8cd4pn1v7l1rzxd4yfr0000gn/T//ccLV2jr4.ltrans0.ltrans.o
bootmagic_reset_eeprom                            .build/obj_crkbd_rev1_via/quantum/bootmagic/bootmagic.o (symbol from plugin)
bootmagic_scan                                    .build/obj_crkbd_rev1_via/quantum/bootmagic/bootmagic.o (symbol from plugin)
bootmagic_should_reset                            .build/obj_crkbd_rev1_via/quantum/bootmagic/bootmagic.o (symbol from plugin)
bootrom.c.ad5d8481                                /var/folders/tr/p8fgs8cd4pn1v7l1rzxd4yfr0000gn/T//ccgyOZ3Gdebugobj
                                                  /var/folders/tr/p8fgs8cd4pn1v7l1rzxd4yfr0000gn/T//ccLV2jr4.ltrans0.ltrans.o
bsaObjectInit                                     .build/obj_crkbd_rev1_via/lib/chibios/os/hal/lib/streams/bufstreams.o (symbol from plugin)
bufstreams.c.245db9a3                             /var/folders/tr/p8fgs8cd4pn1v7l1rzxd4yfr0000gn/T//ccgyOZ3Gdebugobj
busy_wait_ms                                      .build/obj_crkbd_rev1_via/./lib/pico-sdk/src/rp2_common/hardware_timer/timer.o (symbol from plugin)
busy_wait_until                                   .build/obj_crkbd_rev1_via/./lib/pico-sdk/src/rp2_common/hardware_timer/timer.o (symbol from plugin)
                                                  .build/obj_crkbd_rev1_via/ws2812_vendor.o (symbol from plugin)
busy_wait_us                                      .build/obj_crkbd_rev1_via/./lib/pico-sdk/src/rp2_common/hardware_timer/timer.o (symbol from plugin)
busy_wait_us_32                                   .build/obj_crkbd_rev1_via/./lib/pico-sdk/src/rp2_common/hardware_timer/timer.o (symbol from plugin)
ch0                                               .build/obj_crkbd_rev1_via/lib/chibios/os/rt/src/chsys.o (symbol from plugin)
ch1                                               .build/obj_crkbd_rev1_via/lib/chibios/os/rt/src/chsys.o (symbol from plugin)
chCoreAllocFromBase                               .build/obj_crkbd_rev1_via/./lib/chibios/os/oslib/src/chmemcore.o (symbol from plugin)
                                                  .build/obj_crkbd_rev1_via/lib/chibios/os/various/syscalls.o (symbol from plugin)
chCoreAllocFromBaseI                              .build/obj_crkbd_rev1_via/./lib/chibios/os/oslib/src/chmemcore.o (symbol from plugin)
chCoreAllocFromTop                                .build/obj_crkbd_rev1_via/./lib/chibios/os/oslib/src/chmemcore.o (symbol from plugin)
chCoreAllocFromTopI                               .build/obj_crkbd_rev1_via/./lib/chibios/os/oslib/src/chmemcore.o (symbol from plugin)
chCoreGetStatusX                                  .build/obj_crkbd_rev1_via/./lib/chibios/os/oslib/src/chmemcore.o (symbol from plugin)
chEvtAddEvents                                    .build/obj_crkbd_rev1_via/lib/chibios/os/rt/src/chevents.o (symbol from plugin)
chEvtBroadcastFlags                               .build/obj_crkbd_rev1_via/lib/chibios/os/rt/src/chevents.o (symbol from plugin)
chEvtBroadcastFlagsI                              .build/obj_crkbd_rev1_via/lib/chibios/os/rt/src/chevents.o (symbol from plugin)
                                                  .build/obj_crkbd_rev1_via/protocol/chibios/usb_driver.o (symbol from plugin)
chEvtDispatch                                     .build/obj_crkbd_rev1_via/lib/chibios/os/rt/src/chevents.o (symbol from plugin)
chEvtGetAndClearEvents                            .build/obj_crkbd_rev1_via/lib/chibios/os/rt/src/chevents.o (symbol from plugin)
chEvtGetAndClearEventsI                           .build/obj_crkbd_rev1_via/lib/chibios/os/rt/src/chevents.o (symbol from plugin)
chEvtGetAndClearFlags                             .build/obj_crkbd_rev1_via/lib/chibios/os/rt/src/chevents.o (symbol from plugin)
chEvtGetAndClearFlagsI                            .build/obj_crkbd_rev1_via/lib/chibios/os/rt/src/chevents.o (symbol from plugin)
chEvtRegisterMaskWithFlags                        .build/obj_crkbd_rev1_via/lib/chibios/os/rt/src/chevents.o (symbol from plugin)
chEvtRegisterMaskWithFlagsI                       .build/obj_crkbd_rev1_via/lib/chibios/os/rt/src/chevents.o (symbol from plugin)
chEvtSignal                                       .build/obj_crkbd_rev1_via/lib/chibios/os/rt/src/chevents.o (symbol from plugin)
chEvtSignalI                                      .build/obj_crkbd_rev1_via/lib/chibios/os/rt/src/chevents.o (symbol from plugin)
chEvtUnregister                                   .build/obj_crkbd_rev1_via/lib/chibios/os/rt/src/chevents.o (symbol from plugin)
chEvtWaitAll                                      .build/obj_crkbd_rev1_via/lib/chibios/os/rt/src/chevents.o (symbol from plugin)
chEvtWaitAllTimeout                               .build/obj_crkbd_rev1_via/lib/chibios/os/rt/src/chevents.o (symbol from plugin)
chEvtWaitAny                                      .build/obj_crkbd_rev1_via/lib/chibios/os/rt/src/chevents.o (symbol from plugin)
chEvtWaitAnyTimeout                               .build/obj_crkbd_rev1_via/lib/chibios/os/rt/src/chevents.o (symbol from plugin)
chEvtWaitOne                                      .build/obj_crkbd_rev1_via/lib/chibios/os/rt/src/chevents.o (symbol from plugin)
chEvtWaitOneTimeout                               .build/obj_crkbd_rev1_via/lib/chibios/os/rt/src/chevents.o (symbol from plugin)
chInstanceObjectInit                              .build/obj_crkbd_rev1_via/lib/chibios/os/rt/src/chinstances.o (symbol from plugin)
                                                  .build/obj_crkbd_rev1_via/lib/chibios/os/rt/src/chsys.o (symbol from plugin)
chMtxLock                                         .build/obj_crkbd_rev1_via/lib/chibios/os/rt/src/chmtx.o (symbol from plugin)
                                                  .build/obj_crkbd_rev1_via/platforms/chibios/synchronization_util.o (symbol from plugin)
                                                  .build/obj_crkbd_rev1_via/lib/chibios/os/hal/src/hal_spi.o (symbol from plugin)
                                                  .build/obj_crkbd_rev1_via/lib/chibios/os/hal/src/hal_i2c.o (symbol from plugin)
                                                  .build/obj_crkbd_rev1_via/lib/chibios/os/hal/src/hal_adc.o (symbol from plugin)
chMtxLockS                                        .build/obj_crkbd_rev1_via/lib/chibios/os/rt/src/chmtx.o (symbol from plugin)
chMtxObjectInit                                   .build/obj_crkbd_rev1_via/lib/chibios/os/rt/src/chmtx.o (symbol from plugin)
                                                  .build/obj_crkbd_rev1_via/lib/chibios/os/hal/src/hal_spi.o (symbol from plugin)
                                                  .build/obj_crkbd_rev1_via/lib/chibios/os/hal/src/hal_i2c.o (symbol from plugin)
                                                  .build/obj_crkbd_rev1_via/lib/chibios/os/hal/src/hal_adc.o (symbol from plugin)
chMtxTryLock                                      .build/obj_crkbd_rev1_via/lib/chibios/os/rt/src/chmtx.o (symbol from plugin)
chMtxTryLockS                                     .build/obj_crkbd_rev1_via/lib/chibios/os/rt/src/chmtx.o (symbol from plugin)
chMtxUnlock                                       .build/obj_crkbd_rev1_via/lib/chibios/os/rt/src/chmtx.o (symbol from plugin)
                                                  .build/obj_crkbd_rev1_via/platforms/chibios/synchronization_util.o (symbol from plugin)
                                                  .build/obj_crkbd_rev1_via/lib/chibios/os/hal/src/hal_spi.o (symbol from plugin)
                                                  .build/obj_crkbd_rev1_via/lib/chibios/os/hal/src/hal_i2c.o (symbol from plugin)
                                                  .build/obj_crkbd_rev1_via/lib/chibios/os/hal/src/hal_adc.o (symbol from plugin)
chMtxUnlockAll                                    .build/obj_crkbd_rev1_via/lib/chibios/os/rt/src/chmtx.o (symbol from plugin)
chMtxUnlockAllS                                   .build/obj_crkbd_rev1_via/lib/chibios/os/rt/src/chmtx.o (symbol from plugin)
chMtxUnlockS                                      .build/obj_crkbd_rev1_via/lib/chibios/os/rt/src/chmtx.o (symbol from plugin)
chRFCUCollectFaultsI                              .build/obj_crkbd_rev1_via/lib/chibios/os/rt/src/chrfcu.o (symbol from plugin)
                                                  .build/obj_crkbd_rev1_via/lib/chibios/os/rt/src/chvt.o (symbol from plugin)
chRFCUGetAndClearFaultsI                          .build/obj_crkbd_rev1_via/lib/chibios/os/rt/src/chrfcu.o (symbol from plugin)
chSchDoPreemption                                 /var/folders/tr/p8fgs8cd4pn1v7l1rzxd4yfr0000gn/T//ccLV2jr4.ltrans0.ltrans.o
                                                  .build/obj_crkbd_rev1_via/lib/chibios/os/rt/src/chschd.o (symbol from plugin)
                                                  .build/obj_crkbd_rev1_via/./lib/chibios/os/common/ports/ARMv6-M-RP2/compilers/GCC/chcoreasm.o
chSchDoYieldS                                     .build/obj_crkbd_rev1_via/lib/chibios/os/rt/src/chschd.o (symbol from plugin)
                                                  .build/obj_crkbd_rev1_via/lib/chibios/os/rt/src/chthreads.o (symbol from plugin)
chSchGoSleepS                                     .build/obj_crkbd_rev1_via/lib/chibios/os/rt/src/chschd.o (symbol from plugin)
                                                  .build/obj_crkbd_rev1_via/lib/chibios/os/rt/src/chevents.o (symbol from plugin)
                                                  .build/obj_crkbd_rev1_via/lib/chibios/os/rt/src/chmtx.o (symbol from plugin)
                                                  .build/obj_crkbd_rev1_via/lib/chibios/os/rt/src/chsem.o (symbol from plugin)
                                                  .build/obj_crkbd_rev1_via/lib/chibios/os/rt/src/chthreads.o (symbol from plugin)
chSchGoSleepTimeoutS                              .build/obj_crkbd_rev1_via/lib/chibios/os/rt/src/chschd.o (symbol from plugin)
                                                  .build/obj_crkbd_rev1_via/lib/chibios/os/rt/src/chevents.o (symbol from plugin)
                                                  .build/obj_crkbd_rev1_via/lib/chibios/os/rt/src/chsem.o (symbol from plugin)
                                                  .build/obj_crkbd_rev1_via/lib/chibios/os/rt/src/chthreads.o (symbol from plugin)
chSchIsPreemptionRequired                         .build/obj_crkbd_rev1_via/lib/chibios/os/rt/src/chschd.o (symbol from plugin)
                                                  .build/obj_crkbd_rev1_via/lib/chibios/os/common/ports/ARMv6-M-RP2/chcore.o (symbol from plugin)
chSchPreemption                                   .build/obj_crkbd_rev1_via/lib/chibios/os/rt/src/chschd.o (symbol from plugin)
chSchReadyI                                       .build/obj_crkbd_rev1_via/lib/chibios/os/rt/src/chschd.o (symbol from plugin)
                                                  .build/obj_crkbd_rev1_via/lib/chibios/os/rt/src/chevents.o (symbol from plugin)
                                                  .build/obj_crkbd_rev1_via/lib/chibios/os/rt/src/chmtx.o (symbol from plugin)
                                                  .build/obj_crkbd_rev1_via/lib/chibios/os/rt/src/chsem.o (symbol from plugin)
                                                  .build/obj_crkbd_rev1_via/lib/chibios/os/rt/src/chthreads.o (symbol from plugin)
chSchRescheduleS                                  .build/obj_crkbd_rev1_via/lib/chibios/os/rt/src/chschd.o (symbol from plugin)
                                                  .build/obj_crkbd_rev1_via/lib/chibios/os/hal/src/hal_usb.o (symbol from plugin)
                                                  .build/obj_crkbd_rev1_via/lib/chibios/os/rt/src/chevents.o (symbol from plugin)
                                                  .build/obj_crkbd_rev1_via/lib/chibios/os/rt/src/chmtx.o (symbol from plugin)
                                                  .build/obj_crkbd_rev1_via/lib/chibios/os/rt/src/chsem.o (symbol from plugin)
                                                  .build/obj_crkbd_rev1_via/lib/chibios/os/rt/src/chthreads.o (symbol from plugin)
                                                  .build/obj_crkbd_rev1_via/lib/chibios/os/rt/src/chsys.o (symbol from plugin)
                                                  .build/obj_crkbd_rev1_via/protocol/chibios/usb_driver.o (symbol from plugin)
chSchSelectFirst                                  .build/obj_crkbd_rev1_via/lib/chibios/os/rt/src/chschd.o (symbol from plugin)
chSchWakeupS                                      .build/obj_crkbd_rev1_via/lib/chibios/os/rt/src/chschd.o (symbol from plugin)
                                                  .build/obj_crkbd_rev1_via/lib/chibios/os/rt/src/chsem.o (symbol from plugin)
                                                  .build/obj_crkbd_rev1_via/lib/chibios/os/rt/src/chthreads.o (symbol from plugin)
chSemAddCounterI                                  .build/obj_crkbd_rev1_via/lib/chibios/os/rt/src/chsem.o (symbol from plugin)
chSemObjectInit                                   .build/obj_crkbd_rev1_via/lib/chibios/os/rt/src/chsem.o (symbol from plugin)
chSemResetWithMessage                             .build/obj_crkbd_rev1_via/lib/chibios/os/rt/src/chsem.o (symbol from plugin)
                                                  .build/obj_crkbd_rev1_via/ws2812_vendor.o (symbol from plugin)
chSemResetWithMessageI                            .build/obj_crkbd_rev1_via/lib/chibios/os/rt/src/chsem.o (symbol from plugin)
chSemSignal                                       .build/obj_crkbd_rev1_via/lib/chibios/os/rt/src/chsem.o (symbol from plugin)
chSemSignalI                                      .build/obj_crkbd_rev1_via/lib/chibios/os/rt/src/chsem.o (symbol from plugin)
                                                  .build/obj_crkbd_rev1_via/ws2812_vendor.o (symbol from plugin)
chSemSignalWait                                   .build/obj_crkbd_rev1_via/lib/chibios/os/rt/src/chsem.o (symbol from plugin)
chSemWait                                         .build/obj_crkbd_rev1_via/lib/chibios/os/rt/src/chsem.o (symbol from plugin)
chSemWaitS                                        .build/obj_crkbd_rev1_via/lib/chibios/os/rt/src/chsem.o (symbol from plugin)
chSemWaitTimeout                                  .build/obj_crkbd_rev1_via/lib/chibios/os/rt/src/chsem.o (symbol from plugin)
                                                  .build/obj_crkbd_rev1_via/ws2812_vendor.o (symbol from plugin)
chSemWaitTimeoutS                                 .build/obj_crkbd_rev1_via/lib/chibios/os/rt/src/chsem.o (symbol from plugin)
chSysGetIdleThreadX                               .build/obj_crkbd_rev1_via/lib/chibios/os/rt/src/chsys.o (symbol from plugin)
chSysGetStatusAndLockX                            .build/obj_crkbd_rev1_via/lib/chibios/os/rt/src/chsys.o (symbol from plugin)
chSysHalt                                         .build/obj_crkbd_rev1_via/lib/chibios/os/rt/src/chsys.o (symbol from plugin)
                                                  .build/obj_crkbd_rev1_via/platforms/chibios/vendors/RP/pico_sdk_shims.o (symbol from plugin)
                                                  .build/obj_crkbd_rev1_via/lib/chibios/os/various/syscalls.o (symbol from plugin)
chSysInit                                         .build/obj_crkbd_rev1_via/lib/chibios/os/rt/src/chsys.o (symbol from plugin)
                                                  .build/obj_crkbd_rev1_via/platforms/chibios/platform.o (symbol from plugin)
chSysIntegrityCheckI                              .build/obj_crkbd_rev1_via/lib/chibios/os/rt/src/chsys.o (symbol from plugin)
chSysIsCounterWithinX                             .build/obj_crkbd_rev1_via/lib/chibios/os/rt/src/chsys.o (symbol from plugin)
chSysPolledDelayX                                 /var/folders/tr/p8fgs8cd4pn1v7l1rzxd4yfr0000gn/T//ccLV2jr4.ltrans0.ltrans.o
                                                  .build/obj_crkbd_rev1_via/lib/chibios/os/rt/src/chsys.o (symbol from plugin)
                                                  .build/obj_crkbd_rev1_via/serial_vendor.a(serial_vendor.o)
                                                  .build/obj_crkbd_rev1_via/platforms/chibios/bootloaders/rp2040.o (symbol from plugin)
                                                  .build/obj_crkbd_rev1_via/protocol/usb_util.o (symbol from plugin)
                                                  .build/obj_crkbd_rev1_via/ws2812_vendor.o (symbol from plugin)
                                                  .build/obj_crkbd_rev1_via/quantum/split_common/transactions.o (symbol from plugin)
                                                  .build/obj_crkbd_rev1_via/quantum/matrix_common.o (symbol from plugin)
chSysRestoreStatusX                               .build/obj_crkbd_rev1_via/lib/chibios/os/rt/src/chsys.o (symbol from plugin)
chSysTimerHandlerI                                .build/obj_crkbd_rev1_via/lib/chibios/os/rt/src/chsys.o (symbol from plugin)
                                                  .build/obj_crkbd_rev1_via/lib/chibios/os/hal/ports/RP/LLD/TIMERv1/hal_st_lld.o (symbol from plugin)
chSysWaitSystemState                              .build/obj_crkbd_rev1_via/lib/chibios/os/rt/src/chsys.o (symbol from plugin)
chThdCreate                                       .build/obj_crkbd_rev1_via/lib/chibios/os/rt/src/chthreads.o (symbol from plugin)
chThdCreateI                                      .build/obj_crkbd_rev1_via/lib/chibios/os/rt/src/chthreads.o (symbol from plugin)
                                                  .build/obj_crkbd_rev1_via/lib/chibios/os/rt/src/chinstances.o (symbol from plugin)
chThdCreateStatic                                 /var/folders/tr/p8fgs8cd4pn1v7l1rzxd4yfr0000gn/T//ccLV2jr4.ltrans0.ltrans.o
                                                  .build/obj_crkbd_rev1_via/lib/chibios/os/rt/src/chthreads.o (symbol from plugin)
                                                  .build/obj_crkbd_rev1_via/serial_protocol.a(serial_protocol.o)
chThdCreateSuspended                              .build/obj_crkbd_rev1_via/lib/chibios/os/rt/src/chthreads.o (symbol from plugin)
chThdCreateSuspendedI                             .build/obj_crkbd_rev1_via/lib/chibios/os/rt/src/chthreads.o (symbol from plugin)
chThdDequeueAllI                                  .build/obj_crkbd_rev1_via/lib/chibios/os/rt/src/chthreads.o (symbol from plugin)
                                                  .build/obj_crkbd_rev1_via/lib/chibios/os/hal/src/hal_queues.o (symbol from plugin)
                                                  .build/obj_crkbd_rev1_via/lib/chibios/os/hal/src/hal_buffers.o (symbol from plugin)
                                                  .build/obj_crkbd_rev1_via/protocol/chibios/usb_driver.o (symbol from plugin)
chThdDequeueNextI                                 .build/obj_crkbd_rev1_via/lib/chibios/os/rt/src/chthreads.o (symbol from plugin)
                                                  .build/obj_crkbd_rev1_via/lib/chibios/os/hal/src/hal_queues.o (symbol from plugin)
                                                  .build/obj_crkbd_rev1_via/lib/chibios/os/hal/src/hal_buffers.o (symbol from plugin)
chThdEnqueueTimeoutS                              .build/obj_crkbd_rev1_via/lib/chibios/os/rt/src/chthreads.o (symbol from plugin)
                                                  .build/obj_crkbd_rev1_via/lib/chibios/os/hal/src/hal_queues.o (symbol from plugin)
                                                  .build/obj_crkbd_rev1_via/lib/chibios/os/hal/src/hal_buffers.o (symbol from plugin)
chThdExit                                         /var/folders/tr/p8fgs8cd4pn1v7l1rzxd4yfr0000gn/T//ccLV2jr4.ltrans0.ltrans.o
                                                  .build/obj_crkbd_rev1_via/lib/chibios/os/rt/src/chthreads.o (symbol from plugin)
                                                  .build/obj_crkbd_rev1_via/./lib/chibios/os/common/ports/ARMv6-M-RP2/compilers/GCC/chcoreasm.o
chThdExitS                                        .build/obj_crkbd_rev1_via/lib/chibios/os/rt/src/chthreads.o (symbol from plugin)
chThdResume                                       .build/obj_crkbd_rev1_via/lib/chibios/os/rt/src/chthreads.o (symbol from plugin)
chThdResumeI                                      /var/folders/tr/p8fgs8cd4pn1v7l1rzxd4yfr0000gn/T//ccLV2jr4.ltrans0.ltrans.o
                                                  .build/obj_crkbd_rev1_via/lib/chibios/os/rt/src/chthreads.o (symbol from plugin)
                                                  .build/obj_crkbd_rev1_via/lib/chibios-contrib/os/hal/ports/RP/LLD/USBDv1/hal_usb_lld.o (symbol from plugin)
                                                  .build/obj_crkbd_rev1_via/lib/chibios-contrib/os/hal/ports/RP/LLD/ADCv1/hal_adc_lld.o (symbol from plugin)
                                                  .build/obj_crkbd_rev1_via/lib/chibios-contrib/os/hal/ports/RP/LLD/I2Cv1/hal_i2c_lld.o (symbol from plugin)
                                                  .build/obj_crkbd_rev1_via/lib/chibios/os/hal/ports/RP/LLD/SPIv1/hal_spi_lld.o (symbol from plugin)
                                                  .build/obj_crkbd_rev1_via/lib/chibios/os/hal/src/hal_usb.o (symbol from plugin)
                                                  .build/obj_crkbd_rev1_via/lib/chibios/os/hal/src/hal_adc.o (symbol from plugin)
                                                  .build/obj_crkbd_rev1_via/serial_vendor.a(serial_vendor.o)
chThdResumeS                                      .build/obj_crkbd_rev1_via/lib/chibios/os/rt/src/chthreads.o (symbol from plugin)
                                                  .build/obj_crkbd_rev1_via/lib/chibios/os/hal/src/hal_adc.o (symbol from plugin)
chThdSetPriority                                  .build/obj_crkbd_rev1_via/lib/chibios/os/rt/src/chthreads.o (symbol from plugin)
chThdSleep                                        /var/folders/tr/p8fgs8cd4pn1v7l1rzxd4yfr0000gn/T//ccLV2jr4.ltrans0.ltrans.o
                                                  .build/obj_crkbd_rev1_via/lib/chibios/os/rt/src/chthreads.o (symbol from plugin)
                                                  /var/folders/tr/p8fgs8cd4pn1v7l1rzxd4yfr0000gn/T//ccLV2jr4.ltrans1.ltrans.o
                                                  .build/obj_crkbd_rev1_via/lib/chibios/os/hal/src/hal_flash.o (symbol from plugin)
                                                  .build/obj_crkbd_rev1_via/protocol/chibios/chibios.o (symbol from plugin)
                                                  .build/obj_crkbd_rev1_via/protocol/chibios/usb_main.o (symbol from plugin)
                                                  .build/obj_crkbd_rev1_via/i2c_master.a(i2c_master.o)
                                                  .build/obj_crkbd_rev1_via/platforms/chibios/suspend.o (symbol from plugin)
                                                  .build/obj_crkbd_rev1_via/quantum/send_string/send_string.o (symbol from plugin)
                                                  .build/obj_crkbd_rev1_via/quantum/bootmagic/bootmagic.o (symbol from plugin)
                                                  .build/obj_crkbd_rev1_via/quantum/action.o (symbol from plugin)
                                                  .build/obj_crkbd_rev1_via/quantum/quantum.o (symbol from plugin)
chThdSleepUntil                                   .build/obj_crkbd_rev1_via/lib/chibios/os/rt/src/chthreads.o (symbol from plugin)
chThdSleepUntilWindowed                           .build/obj_crkbd_rev1_via/lib/chibios/os/rt/src/chthreads.o (symbol from plugin)
chThdStart                                        .build/obj_crkbd_rev1_via/lib/chibios/os/rt/src/chthreads.o (symbol from plugin)
chThdSuspendS                                     .build/obj_crkbd_rev1_via/lib/chibios/os/rt/src/chthreads.o (symbol from plugin)
chThdSuspendTimeoutS                              /var/folders/tr/p8fgs8cd4pn1v7l1rzxd4yfr0000gn/T//ccLV2jr4.ltrans0.ltrans.o
                                                  .build/obj_crkbd_rev1_via/lib/chibios/os/rt/src/chthreads.o (symbol from plugin)
                                                  .build/obj_crkbd_rev1_via/lib/chibios-contrib/os/hal/ports/RP/LLD/I2Cv1/hal_i2c_lld.o (symbol from plugin)
                                                  .build/obj_crkbd_rev1_via/lib/chibios/os/hal/src/hal_usb.o (symbol from plugin)
                                                  .build/obj_crkbd_rev1_via/lib/chibios/os/hal/src/hal_spi.o (symbol from plugin)
                                                  .build/obj_crkbd_rev1_via/lib/chibios/os/hal/src/hal_adc.o (symbol from plugin)
                                                  .build/obj_crkbd_rev1_via/protocol/chibios/usb_main.o (symbol from plugin)
                                                  .build/obj_crkbd_rev1_via/serial_vendor.a(serial_vendor.o)
chThdTerminate                                    .build/obj_crkbd_rev1_via/lib/chibios/os/rt/src/chthreads.o (symbol from plugin)
chThdYield                                        .build/obj_crkbd_rev1_via/lib/chibios/os/rt/src/chthreads.o (symbol from plugin)
chVTDoResetI                                      .build/obj_crkbd_rev1_via/lib/chibios/os/rt/src/chvt.o (symbol from plugin)
                                                  .build/obj_crkbd_rev1_via/lib/chibios/os/rt/src/chschd.o (symbol from plugin)
                                                  .build/obj_crkbd_rev1_via/protocol/chibios/usb_main.o (symbol from plugin)
chVTDoSetContinuousI                              .build/obj_crkbd_rev1_via/lib/chibios/os/rt/src/chvt.o (symbol from plugin)
chVTDoSetI                                        .build/obj_crkbd_rev1_via/lib/chibios/os/rt/src/chvt.o (symbol from plugin)
                                                  .build/obj_crkbd_rev1_via/lib/chibios/os/rt/src/chschd.o (symbol from plugin)
                                                  .build/obj_crkbd_rev1_via/protocol/chibios/usb_main.o (symbol from plugin)
chVTDoTickI                                       .build/obj_crkbd_rev1_via/lib/chibios/os/rt/src/chvt.o (symbol from plugin)
                                                  .build/obj_crkbd_rev1_via/lib/chibios/os/rt/src/chsys.o (symbol from plugin)
chVTGetRemainingIntervalI                         .build/obj_crkbd_rev1_via/lib/chibios/os/rt/src/chvt.o (symbol from plugin)
chVTGetTimeStampI                                 .build/obj_crkbd_rev1_via/lib/chibios/os/rt/src/chvt.o (symbol from plugin)
chVTResetTimeStampI                               .build/obj_crkbd_rev1_via/lib/chibios/os/rt/src/chvt.o (symbol from plugin)
ch_core0_cfg                                      .build/obj_crkbd_rev1_via/lib/chibios/os/rt/src/chsys.o (symbol from plugin)
ch_core1_cfg                                      .build/obj_crkbd_rev1_via/lib/chibios/os/rt/src/chsys.o (symbol from plugin)
ch_memcore                                        .build/obj_crkbd_rev1_via/./lib/chibios/os/oslib/src/chmemcore.o (symbol from plugin)
ch_system                                         .build/obj_crkbd_rev1_via/lib/chibios/os/rt/src/chsys.o (symbol from plugin)
                                                  .build/obj_crkbd_rev1_via/lib/chibios/os/common/ports/ARMv6-M-RP2/chcore.o (symbol from plugin)
                                                  .build/obj_crkbd_rev1_via/lib/chibios/os/rt/src/chevents.o (symbol from plugin)
                                                  .build/obj_crkbd_rev1_via/lib/chibios/os/rt/src/chmtx.o (symbol from plugin)
                                                  .build/obj_crkbd_rev1_via/lib/chibios/os/rt/src/chsem.o (symbol from plugin)
                                                  .build/obj_crkbd_rev1_via/lib/chibios/os/rt/src/chthreads.o (symbol from plugin)
                                                  .build/obj_crkbd_rev1_via/lib/chibios/os/rt/src/chinstances.o (symbol from plugin)
                                                  .build/obj_crkbd_rev1_via/lib/chibios/os/rt/src/chschd.o (symbol from plugin)
                                                  .build/obj_crkbd_rev1_via/lib/chibios/os/rt/src/chvt.o (symbol from plugin)
                                                  .build/obj_crkbd_rev1_via/lib/chibios/os/rt/src/chrfcu.o (symbol from plugin)
chcond.c.4acfc331                                 /var/folders/tr/p8fgs8cd4pn1v7l1rzxd4yfr0000gn/T//ccgyOZ3Gdebugobj
chcore.c.4438bbb7                                 /var/folders/tr/p8fgs8cd4pn1v7l1rzxd4yfr0000gn/T//ccgyOZ3Gdebugobj
                                                  /var/folders/tr/p8fgs8cd4pn1v7l1rzxd4yfr0000gn/T//ccLV2jr4.ltrans0.ltrans.o
chdebug.c.4df714cb                                /var/folders/tr/p8fgs8cd4pn1v7l1rzxd4yfr0000gn/T//ccgyOZ3Gdebugobj
chdelegates.c.8a4511d6                            /var/folders/tr/p8fgs8cd4pn1v7l1rzxd4yfr0000gn/T//ccgyOZ3Gdebugobj
chdynamic.c.e12ca2e3                              /var/folders/tr/p8fgs8cd4pn1v7l1rzxd4yfr0000gn/T//ccgyOZ3Gdebugobj
chevents.c.b4809b66                               /var/folders/tr/p8fgs8cd4pn1v7l1rzxd4yfr0000gn/T//ccgyOZ3Gdebugobj
                                                  /var/folders/tr/p8fgs8cd4pn1v7l1rzxd4yfr0000gn/T//ccLV2jr4.ltrans0.ltrans.o
chfactory.c.d8b0594d                              /var/folders/tr/p8fgs8cd4pn1v7l1rzxd4yfr0000gn/T//ccgyOZ3Gdebugobj
chibios.c.1e748fd1                                /var/folders/tr/p8fgs8cd4pn1v7l1rzxd4yfr0000gn/T//ccgyOZ3Gdebugobj
                                                  /var/folders/tr/p8fgs8cd4pn1v7l1rzxd4yfr0000gn/T//ccLV2jr4.ltrans0.ltrans.o
chibios_driver                                    .build/obj_crkbd_rev1_via/protocol/chibios/chibios.o (symbol from plugin)
chinstances.c.993b3ff5                            /var/folders/tr/p8fgs8cd4pn1v7l1rzxd4yfr0000gn/T//ccgyOZ3Gdebugobj
                                                  /var/folders/tr/p8fgs8cd4pn1v7l1rzxd4yfr0000gn/T//ccLV2jr4.ltrans0.ltrans.o
chmboxes.c.6ae69701                               /var/folders/tr/p8fgs8cd4pn1v7l1rzxd4yfr0000gn/T//ccgyOZ3Gdebugobj
chmemcore.c.dca2f973                              /var/folders/tr/p8fgs8cd4pn1v7l1rzxd4yfr0000gn/T//ccgyOZ3Gdebugobj
                                                  /var/folders/tr/p8fgs8cd4pn1v7l1rzxd4yfr0000gn/T//ccLV2jr4.ltrans0.ltrans.o
chmemheaps.c.b35651c6                             /var/folders/tr/p8fgs8cd4pn1v7l1rzxd4yfr0000gn/T//ccgyOZ3Gdebugobj
chmempools.c.6090fd44                             /var/folders/tr/p8fgs8cd4pn1v7l1rzxd4yfr0000gn/T//ccgyOZ3Gdebugobj
chmsg.c.887fa6e9                                  /var/folders/tr/p8fgs8cd4pn1v7l1rzxd4yfr0000gn/T//ccgyOZ3Gdebugobj
chmtx.c.13a3d173                                  /var/folders/tr/p8fgs8cd4pn1v7l1rzxd4yfr0000gn/T//ccgyOZ3Gdebugobj
                                                  /var/folders/tr/p8fgs8cd4pn1v7l1rzxd4yfr0000gn/T//ccLV2jr4.ltrans0.ltrans.o
chobjcaches.c.15c3db6c                            /var/folders/tr/p8fgs8cd4pn1v7l1rzxd4yfr0000gn/T//ccgyOZ3Gdebugobj
chpipes.c.28239bbd                                /var/folders/tr/p8fgs8cd4pn1v7l1rzxd4yfr0000gn/T//ccgyOZ3Gdebugobj
chprintf                                          .build/obj_crkbd_rev1_via/lib/chibios/os/hal/lib/streams/chprintf.o (symbol from plugin)
chprintf.c.3b453aca                               /var/folders/tr/p8fgs8cd4pn1v7l1rzxd4yfr0000gn/T//ccgyOZ3Gdebugobj
chregistry.c.f1980c42                             /var/folders/tr/p8fgs8cd4pn1v7l1rzxd4yfr0000gn/T//ccgyOZ3Gdebugobj
chrfcu.c.4563ef8c                                 /var/folders/tr/p8fgs8cd4pn1v7l1rzxd4yfr0000gn/T//ccgyOZ3Gdebugobj
                                                  /var/folders/tr/p8fgs8cd4pn1v7l1rzxd4yfr0000gn/T//ccLV2jr4.ltrans0.ltrans.o
chscanf                                           .build/obj_crkbd_rev1_via/lib/chibios/os/hal/lib/streams/chscanf.o (symbol from plugin)
chscanf.c.e2fc2294                                /var/folders/tr/p8fgs8cd4pn1v7l1rzxd4yfr0000gn/T//ccgyOZ3Gdebugobj
chschd.c.337a2233                                 /var/folders/tr/p8fgs8cd4pn1v7l1rzxd4yfr0000gn/T//ccgyOZ3Gdebugobj
                                                  /var/folders/tr/p8fgs8cd4pn1v7l1rzxd4yfr0000gn/T//ccLV2jr4.ltrans0.ltrans.o
chsem.c.cace3f41                                  /var/folders/tr/p8fgs8cd4pn1v7l1rzxd4yfr0000gn/T//ccgyOZ3Gdebugobj
                                                  /var/folders/tr/p8fgs8cd4pn1v7l1rzxd4yfr0000gn/T//ccLV2jr4.ltrans0.ltrans.o
chsnprintf                                        .build/obj_crkbd_rev1_via/lib/chibios/os/hal/lib/streams/chprintf.o (symbol from plugin)
chsnscanf                                         .build/obj_crkbd_rev1_via/lib/chibios/os/hal/lib/streams/chscanf.o (symbol from plugin)
chstats.c.3b8b449a                                /var/folders/tr/p8fgs8cd4pn1v7l1rzxd4yfr0000gn/T//ccgyOZ3Gdebugobj
chsys.c.5c3f479e                                  /var/folders/tr/p8fgs8cd4pn1v7l1rzxd4yfr0000gn/T//ccgyOZ3Gdebugobj
                                                  /var/folders/tr/p8fgs8cd4pn1v7l1rzxd4yfr0000gn/T//ccLV2jr4.ltrans0.ltrans.o
chthreads.c.128d21fe                              /var/folders/tr/p8fgs8cd4pn1v7l1rzxd4yfr0000gn/T//ccgyOZ3Gdebugobj
                                                  /var/folders/tr/p8fgs8cd4pn1v7l1rzxd4yfr0000gn/T//ccLV2jr4.ltrans1.ltrans.o
                                                  /var/folders/tr/p8fgs8cd4pn1v7l1rzxd4yfr0000gn/T//ccLV2jr4.ltrans0.ltrans.o
chtm.c.16d32f0a                                   /var/folders/tr/p8fgs8cd4pn1v7l1rzxd4yfr0000gn/T//ccgyOZ3Gdebugobj
chtrace.c.5c08b12c                                /var/folders/tr/p8fgs8cd4pn1v7l1rzxd4yfr0000gn/T//ccgyOZ3Gdebugobj
chvprintf                                         .build/obj_crkbd_rev1_via/lib/chibios/os/hal/lib/streams/chprintf.o (symbol from plugin)
chvscanf                                          .build/obj_crkbd_rev1_via/lib/chibios/os/hal/lib/streams/chscanf.o (symbol from plugin)
chvsnprintf                                       .build/obj_crkbd_rev1_via/lib/chibios/os/hal/lib/streams/chprintf.o (symbol from plugin)
chvsnscanf                                        .build/obj_crkbd_rev1_via/lib/chibios/os/hal/lib/streams/chscanf.o (symbol from plugin)
chvt.c.bf313f33                                   /var/folders/tr/p8fgs8cd4pn1v7l1rzxd4yfr0000gn/T//ccgyOZ3Gdebugobj
                                                  /var/folders/tr/p8fgs8cd4pn1v7l1rzxd4yfr0000gn/T//ccLV2jr4.ltrans0.ltrans.o
claim.c.002092d0                                  /var/folders/tr/p8fgs8cd4pn1v7l1rzxd4yfr0000gn/T//ccgyOZ3Gdebugobj
                                                  /var/folders/tr/p8fgs8cd4pn1v7l1rzxd4yfr0000gn/T//ccLV2jr4.ltrans0.ltrans.o
cleanup_glue                                      /opt/homebrew/Cellar/arm-none-eabi-gcc@8/8.5.0_2/lib/arm-none-eabi-gcc/8/gcc/arm-none-eabi/8.5.0/../../../../../../arm-none-eabi/lib/thumb/v6-m/nofp/libg_nano.a(lib_a-reent.o)
clear_keyboard                                    /var/folders/tr/p8fgs8cd4pn1v7l1rzxd4yfr0000gn/T//ccLV2jr4.ltrans0.ltrans.o
                                                  .build/obj_crkbd_rev1_via/quantum/action.o (symbol from plugin)
                                                  /var/folders/tr/p8fgs8cd4pn1v7l1rzxd4yfr0000gn/T//ccLV2jr4.ltrans1.ltrans.o
                                                  .build/obj_crkbd_rev1_via/quantum/process_keycode/process_magic.o (symbol from plugin)
                                                  .build/obj_crkbd_rev1_via/quantum/action_tapping.o (symbol from plugin)
                                                  .build/obj_crkbd_rev1_via/quantum/quantum.o (symbol from plugin)
clear_keyboard_but_mods                           .build/obj_crkbd_rev1_via/quantum/action.o (symbol from plugin)
clear_keyboard_but_mods_and_keys                  .build/obj_crkbd_rev1_via/quantum/action.o (symbol from plugin)
clear_keys                                        .build/obj_crkbd_rev1_via/quantum/action_util.o (symbol from plugin)
clear_keys_from_report                            .build/obj_crkbd_rev1_via/protocol/report.o (symbol from plugin)
                                                  .build/obj_crkbd_rev1_via/platforms/chibios/suspend.o (symbol from plugin)
                                                  .build/obj_crkbd_rev1_via/quantum/action_util.o (symbol from plugin)
                                                  .build/obj_crkbd_rev1_via/quantum/action.o (symbol from plugin)
clear_mods                                        .build/obj_crkbd_rev1_via/quantum/action_util.o (symbol from plugin)
                                                  .build/obj_crkbd_rev1_via/platforms/chibios/suspend.o (symbol from plugin)
                                                  .build/obj_crkbd_rev1_via/quantum/action.o (symbol from plugin)
clear_oneshot_layer_state                         .build/obj_crkbd_rev1_via/quantum/action_util.o (symbol from plugin)
                                                  .build/obj_crkbd_rev1_via/quantum/action.o (symbol from plugin)
clear_oneshot_locked_mods                         .build/obj_crkbd_rev1_via/quantum/action_util.o (symbol from plugin)
clear_oneshot_mods                                .build/obj_crkbd_rev1_via/quantum/action_util.o (symbol from plugin)
clear_weak_mods                                   .build/obj_crkbd_rev1_via/quantum/action_util.o (symbol from plugin)
                                                  .build/obj_crkbd_rev1_via/platforms/chibios/suspend.o (symbol from plugin)
                                                  .build/obj_crkbd_rev1_via/quantum/action.o (symbol from plugin)
clock_configure                                   .build/obj_crkbd_rev1_via/./lib/pico-sdk/src/rp2_common/hardware_clocks/clocks.o (symbol from plugin)
clock_configure_gpin                              .build/obj_crkbd_rev1_via/./lib/pico-sdk/src/rp2_common/hardware_clocks/clocks.o (symbol from plugin)
clock_get_hz                                      /var/folders/tr/p8fgs8cd4pn1v7l1rzxd4yfr0000gn/T//ccLV2jr4.ltrans0.ltrans.o
                                                  .build/obj_crkbd_rev1_via/./lib/pico-sdk/src/rp2_common/hardware_clocks/clocks.o (symbol from plugin)
                                                  .build/obj_crkbd_rev1_via/lib/chibios-contrib/os/hal/ports/RP/LLD/I2Cv1/hal_i2c_lld.o (symbol from plugin)
                                                  .build/obj_crkbd_rev1_via/lib/chibios/os/hal/ports/RP/RP2040/hal_lld.o (symbol from plugin)
                                                  .build/obj_crkbd_rev1_via/serial_vendor.a(serial_vendor.o)
                                                  .build/obj_crkbd_rev1_via/ws2812_vendor.o (symbol from plugin)
                                                  .build/obj_crkbd_rev1_via/quantum/matrix_common.o (symbol from plugin)
clock_gpio_init_int_frac                          .build/obj_crkbd_rev1_via/./lib/pico-sdk/src/rp2_common/hardware_clocks/clocks.o (symbol from plugin)
clock_set_reported_hz                             .build/obj_crkbd_rev1_via/./lib/pico-sdk/src/rp2_common/hardware_clocks/clocks.o (symbol from plugin)
clock_stop                                        .build/obj_crkbd_rev1_via/./lib/pico-sdk/src/rp2_common/hardware_clocks/clocks.o (symbol from plugin)
clocks.c.88d8ea1a                                 /var/folders/tr/p8fgs8cd4pn1v7l1rzxd4yfr0000gn/T//ccgyOZ3Gdebugobj
                                                  /var/folders/tr/p8fgs8cd4pn1v7l1rzxd4yfr0000gn/T//ccLV2jr4.ltrans0.ltrans.o
clocks_enable_resus                               .build/obj_crkbd_rev1_via/./lib/pico-sdk/src/rp2_common/hardware_clocks/clocks.o (symbol from plugin)
clocks_init                                       .build/obj_crkbd_rev1_via/./lib/pico-sdk/src/rp2_common/hardware_clocks/clocks.o (symbol from plugin)
                                                  .build/obj_crkbd_rev1_via/lib/chibios/os/hal/ports/RP/RP2040/hal_lld.o (symbol from plugin)
                                                  .build/obj_crkbd_rev1_via/platforms/chibios/bootloaders/rp2040.o (symbol from plugin)
color.c.b1875379                                  /var/folders/tr/p8fgs8cd4pn1v7l1rzxd4yfr0000gn/T//ccgyOZ3Gdebugobj
                                                  /var/folders/tr/p8fgs8cd4pn1v7l1rzxd4yfr0000gn/T//ccLV2jr4.ltrans0.ltrans.o
crc.c.cccbf2ed                                    /var/folders/tr/p8fgs8cd4pn1v7l1rzxd4yfr0000gn/T//ccgyOZ3Gdebugobj
                                                  /var/folders/tr/p8fgs8cd4pn1v7l1rzxd4yfr0000gn/T//ccLV2jr4.ltrans0.ltrans.o
crc8                                              .build/obj_crkbd_rev1_via/quantum/crc.o (symbol from plugin)
                                                  .build/obj_crkbd_rev1_via/quantum/split_common/transactions.o (symbol from plugin)
crc_init                                          .build/obj_crkbd_rev1_via/quantum/crc.o (symbol from plugin)
                                                  .build/obj_crkbd_rev1_via/quantum/keyboard.o (symbol from plugin)
crkbd.c.c89a83db                                  /var/folders/tr/p8fgs8cd4pn1v7l1rzxd4yfr0000gn/T//ccgyOZ3Gdebugobj
                                                  /var/folders/tr/p8fgs8cd4pn1v7l1rzxd4yfr0000gn/T//ccLV2jr4.ltrans1.ltrans.o
                                                  /var/folders/tr/p8fgs8cd4pn1v7l1rzxd4yfr0000gn/T//ccLV2jr4.ltrans0.ltrans.o
crot                                              .build/obj_crkbd_rev1_via/oled_driver.o (symbol from plugin)
crt1.c.8e85d932                                   /var/folders/tr/p8fgs8cd4pn1v7l1rzxd4yfr0000gn/T//ccgyOZ3Gdebugobj
                                                  /var/folders/tr/p8fgs8cd4pn1v7l1rzxd4yfr0000gn/T//ccLV2jr4.ltrans0.ltrans.o
debounce                                          .build/obj_crkbd_rev1_via/quantum/debounce/sym_defer_g.o (symbol from plugin)
                                                  .build/obj_crkbd_rev1_via/quantum/matrix.o (symbol from plugin)
                                                  .build/obj_crkbd_rev1_via/quantum/matrix_common.o (symbol from plugin)
debounce_free                                     .build/obj_crkbd_rev1_via/quantum/debounce/sym_defer_g.o (symbol from plugin)
debounce_init                                     .build/obj_crkbd_rev1_via/quantum/debounce/sym_defer_g.o (symbol from plugin)
                                                  .build/obj_crkbd_rev1_via/quantum/matrix.o (symbol from plugin)
                                                  .build/obj_crkbd_rev1_via/quantum/matrix_common.o (symbol from plugin)
debug.c.c664c9dd                                  /var/folders/tr/p8fgs8cd4pn1v7l1rzxd4yfr0000gn/T//ccgyOZ3Gdebugobj
                                                  /var/folders/tr/p8fgs8cd4pn1v7l1rzxd4yfr0000gn/T//ccLV2jr4.ltrans0.ltrans.o
debug_action                                      .build/obj_crkbd_rev1_via/quantum/action.o (symbol from plugin)
debug_config                                      .build/obj_crkbd_rev1_via/quantum/logging/debug.o (symbol from plugin)
                                                  .build/obj_crkbd_rev1_via/quantum/keyboard.o (symbol from plugin)
debug_event                                       .build/obj_crkbd_rev1_via/quantum/action.o (symbol from plugin)
                                                  .build/obj_crkbd_rev1_via/quantum/action_tapping.o (symbol from plugin)
debug_record                                      .build/obj_crkbd_rev1_via/quantum/action.o (symbol from plugin)
                                                  .build/obj_crkbd_rev1_via/quantum/action_tapping.o (symbol from plugin)
default_keyboard.c.bb86d804                       /var/folders/tr/p8fgs8cd4pn1v7l1rzxd4yfr0000gn/T//ccgyOZ3Gdebugobj
default_layer_and                                 .build/obj_crkbd_rev1_via/quantum/action_layer.o (symbol from plugin)
                                                  .build/obj_crkbd_rev1_via/quantum/action.o (symbol from plugin)
default_layer_debug                               .build/obj_crkbd_rev1_via/quantum/action_layer.o (symbol from plugin)
                                                  .build/obj_crkbd_rev1_via/quantum/action.o (symbol from plugin)
default_layer_or                                  .build/obj_crkbd_rev1_via/quantum/action_layer.o (symbol from plugin)
                                                  .build/obj_crkbd_rev1_via/quantum/action.o (symbol from plugin)
default_layer_set                                 .build/obj_crkbd_rev1_via/quantum/action_layer.o (symbol from plugin)
                                                  .build/obj_crkbd_rev1_via/quantum/keyboard.o (symbol from plugin)
                                                  .build/obj_crkbd_rev1_via/quantum/action.o (symbol from plugin)
                                                  .build/obj_crkbd_rev1_via/quantum/quantum.o (symbol from plugin)
default_layer_state                               .build/obj_crkbd_rev1_via/quantum/action_layer.o (symbol from plugin)
                                                  .build/obj_crkbd_rev1_via/quantum/eeconfig.o (symbol from plugin)
default_layer_state_set_kb                        .build/obj_crkbd_rev1_via/quantum/action_layer.o (symbol from plugin)
default_layer_state_set_user                      .build/obj_crkbd_rev1_via/quantum/action_layer.o (symbol from plugin)
default_layer_xor                                 .build/obj_crkbd_rev1_via/quantum/action_layer.o (symbol from plugin)
                                                  .build/obj_crkbd_rev1_via/quantum/action.o (symbol from plugin)
del_key                                           .build/obj_crkbd_rev1_via/quantum/action_util.o (symbol from plugin)
del_key_bit                                       .build/obj_crkbd_rev1_via/protocol/report.o (symbol from plugin)
del_key_byte                                      .build/obj_crkbd_rev1_via/protocol/report.o (symbol from plugin)
del_key_from_report                               .build/obj_crkbd_rev1_via/protocol/report.o (symbol from plugin)
                                                  .build/obj_crkbd_rev1_via/quantum/process_keycode/process_grave_esc.o (symbol from plugin)
                                                  .build/obj_crkbd_rev1_via/quantum/action_util.o (symbol from plugin)
                                                  .build/obj_crkbd_rev1_via/quantum/action.o (symbol from plugin)
del_mods                                          .build/obj_crkbd_rev1_via/quantum/action_util.o (symbol from plugin)
                                                  .build/obj_crkbd_rev1_via/quantum/action.o (symbol from plugin)
del_oneshot_locked_mods                           .build/obj_crkbd_rev1_via/quantum/action_util.o (symbol from plugin)
                                                  .build/obj_crkbd_rev1_via/quantum/action.o (symbol from plugin)
del_oneshot_mods                                  .build/obj_crkbd_rev1_via/quantum/action_util.o (symbol from plugin)
                                                  .build/obj_crkbd_rev1_via/quantum/action.o (symbol from plugin)
del_weak_mods                                     .build/obj_crkbd_rev1_via/quantum/action_util.o (symbol from plugin)
                                                  .build/obj_crkbd_rev1_via/quantum/action.o (symbol from plugin)
disable_action_cache                              /var/folders/tr/p8fgs8cd4pn1v7l1rzxd4yfr0000gn/T//ccLV2jr4.ltrans0.ltrans.o
                                                  .build/obj_crkbd_rev1_via/quantum/action.o (symbol from plugin)
                                                  .build/obj_crkbd_rev1_via/quantum/action_layer.o (symbol from plugin)
                                                  .build/obj_crkbd_rev1_via/quantum/quantum.o (symbol from plugin)
div_s32s32                                        .build/obj_crkbd_rev1_via/./lib/pico-sdk/src/rp2_common/pico_divider/divider.o
div_s64s64                                        .build/obj_crkbd_rev1_via/./lib/pico-sdk/src/rp2_common/pico_divider/divider.o
div_u32u32                                        .build/obj_crkbd_rev1_via/./lib/pico-sdk/src/rp2_common/pico_divider/divider.o
div_u64u64                                        .build/obj_crkbd_rev1_via/./lib/pico-sdk/src/rp2_common/pico_divider/divider.o
divmod_s32s32                                     .build/obj_crkbd_rev1_via/./lib/pico-sdk/src/rp2_common/pico_divider/divider.o
divmod_s32s32_unsafe                              .build/obj_crkbd_rev1_via/./lib/pico-sdk/src/rp2_common/pico_divider/divider.o
divmod_s64s64                                     .build/obj_crkbd_rev1_via/./lib/pico-sdk/src/rp2_common/pico_divider/divider.o
divmod_s64s64_rem                                 .build/obj_crkbd_rev1_via/./lib/pico-sdk/src/rp2_common/pico_divider/divider.o
divmod_s64s64_unsafe                              .build/obj_crkbd_rev1_via/./lib/pico-sdk/src/rp2_common/pico_divider/divider.o
divmod_u32u32                                     .build/obj_crkbd_rev1_via/./lib/pico-sdk/src/rp2_common/pico_divider/divider.o
divmod_u32u32_unsafe                              .build/obj_crkbd_rev1_via/./lib/pico-sdk/src/rp2_common/pico_divider/divider.o
divmod_u64u64                                     .build/obj_crkbd_rev1_via/./lib/pico-sdk/src/rp2_common/pico_divider/divider.o
divmod_u64u64_rem                                 .build/obj_crkbd_rev1_via/./lib/pico-sdk/src/rp2_common/pico_divider/divider.o
divmod_u64u64_unsafe                              .build/obj_crkbd_rev1_via/./lib/pico-sdk/src/rp2_common/pico_divider/divider.o
dmaChannelAlloc                                   .build/obj_crkbd_rev1_via/lib/chibios/os/hal/ports/RP/LLD/DMAv1/rp_dma.o (symbol from plugin)
                                                  .build/obj_crkbd_rev1_via/ws2812_vendor.o (symbol from plugin)
dmaChannelAllocI                                  .build/obj_crkbd_rev1_via/lib/chibios/os/hal/ports/RP/LLD/DMAv1/rp_dma.o (symbol from plugin)
                                                  .build/obj_crkbd_rev1_via/lib/chibios/os/hal/ports/RP/LLD/SPIv1/hal_spi_lld.o (symbol from plugin)
dmaChannelFree                                    .build/obj_crkbd_rev1_via/lib/chibios/os/hal/ports/RP/LLD/DMAv1/rp_dma.o (symbol from plugin)
dmaChannelFreeI                                   .build/obj_crkbd_rev1_via/lib/chibios/os/hal/ports/RP/LLD/DMAv1/rp_dma.o (symbol from plugin)
                                                  .build/obj_crkbd_rev1_via/lib/chibios/os/hal/ports/RP/LLD/SPIv1/hal_spi_lld.o (symbol from plugin)
dmaInit                                           .build/obj_crkbd_rev1_via/lib/chibios/os/hal/ports/RP/LLD/DMAv1/rp_dma.o (symbol from plugin)
                                                  .build/obj_crkbd_rev1_via/lib/chibios/os/hal/ports/RP/RP2040/hal_lld.o (symbol from plugin)
do_code16                                         .build/obj_crkbd_rev1_via/quantum/quantum.o (symbol from plugin)
dynamic_keymap.c.5b6346f8                         /var/folders/tr/p8fgs8cd4pn1v7l1rzxd4yfr0000gn/T//ccgyOZ3Gdebugobj
                                                  /var/folders/tr/p8fgs8cd4pn1v7l1rzxd4yfr0000gn/T//ccLV2jr4.ltrans0.ltrans.o
dynamic_keymap_get_buffer                         .build/obj_crkbd_rev1_via/quantum/dynamic_keymap.o (symbol from plugin)
                                                  .build/obj_crkbd_rev1_via/quantum/via.o (symbol from plugin)
dynamic_keymap_get_keycode                        .build/obj_crkbd_rev1_via/quantum/dynamic_keymap.o (symbol from plugin)
                                                  .build/obj_crkbd_rev1_via/quantum/via.o (symbol from plugin)
dynamic_keymap_get_layer_count                    .build/obj_crkbd_rev1_via/quantum/dynamic_keymap.o (symbol from plugin)
                                                  .build/obj_crkbd_rev1_via/quantum/via.o (symbol from plugin)
dynamic_keymap_key_to_eeprom_address              .build/obj_crkbd_rev1_via/quantum/dynamic_keymap.o (symbol from plugin)
dynamic_keymap_macro_get_buffer                   .build/obj_crkbd_rev1_via/quantum/dynamic_keymap.o (symbol from plugin)
                                                  .build/obj_crkbd_rev1_via/quantum/via.o (symbol from plugin)
dynamic_keymap_macro_get_buffer_size              .build/obj_crkbd_rev1_via/quantum/dynamic_keymap.o (symbol from plugin)
                                                  .build/obj_crkbd_rev1_via/quantum/via.o (symbol from plugin)
dynamic_keymap_macro_get_count                    .build/obj_crkbd_rev1_via/quantum/dynamic_keymap.o (symbol from plugin)
                                                  .build/obj_crkbd_rev1_via/quantum/via.o (symbol from plugin)
dynamic_keymap_macro_reset                        .build/obj_crkbd_rev1_via/quantum/dynamic_keymap.o (symbol from plugin)
                                                  .build/obj_crkbd_rev1_via/quantum/via.o (symbol from plugin)
dynamic_keymap_macro_send                         .build/obj_crkbd_rev1_via/quantum/dynamic_keymap.o (symbol from plugin)
                                                  .build/obj_crkbd_rev1_via/quantum/via.o (symbol from plugin)
dynamic_keymap_macro_set_buffer                   .build/obj_crkbd_rev1_via/quantum/dynamic_keymap.o (symbol from plugin)
                                                  .build/obj_crkbd_rev1_via/quantum/via.o (symbol from plugin)
dynamic_keymap_reset                              .build/obj_crkbd_rev1_via/quantum/dynamic_keymap.o (symbol from plugin)
                                                  .build/obj_crkbd_rev1_via/quantum/via.o (symbol from plugin)
dynamic_keymap_set_buffer                         .build/obj_crkbd_rev1_via/quantum/dynamic_keymap.o (symbol from plugin)
                                                  .build/obj_crkbd_rev1_via/quantum/via.o (symbol from plugin)
dynamic_keymap_set_keycode                        .build/obj_crkbd_rev1_via/quantum/dynamic_keymap.o (symbol from plugin)
                                                  .build/obj_crkbd_rev1_via/quantum/via.o (symbol from plugin)
early_hardware_init_post                          .build/obj_crkbd_rev1_via/protocol/chibios/chibios.o (symbol from plugin)
early_hardware_init_pre                           .build/obj_crkbd_rev1_via/protocol/chibios/chibios.o (symbol from plugin)
eeconfig.c.21f18406                               /var/folders/tr/p8fgs8cd4pn1v7l1rzxd4yfr0000gn/T//ccgyOZ3Gdebugobj
                                                  /var/folders/tr/p8fgs8cd4pn1v7l1rzxd4yfr0000gn/T//ccLV2jr4.ltrans0.ltrans.o
eeconfig_debug_rgblight                           .build/obj_crkbd_rev1_via/quantum/rgblight/rgblight.o (symbol from plugin)
eeconfig_disable                                  .build/obj_crkbd_rev1_via/quantum/eeconfig.o (symbol from plugin)
                                                  .build/obj_crkbd_rev1_via/quantum/bootmagic/bootmagic.o (symbol from plugin)
                                                  .build/obj_crkbd_rev1_via/quantum/quantum.o (symbol from plugin)
eeconfig_enable                                   .build/obj_crkbd_rev1_via/quantum/eeconfig.o (symbol from plugin)
eeconfig_init                                     .build/obj_crkbd_rev1_via/quantum/eeconfig.o (symbol from plugin)
                                                  .build/obj_crkbd_rev1_via/quantum/keyboard.o (symbol from plugin)
eeconfig_init_kb                                  .build/obj_crkbd_rev1_via/quantum/eeconfig.o (symbol from plugin)
eeconfig_init_quantum                             .build/obj_crkbd_rev1_via/quantum/eeconfig.o (symbol from plugin)
eeconfig_init_user                                .build/obj_crkbd_rev1_via/quantum/eeconfig.o (symbol from plugin)
eeconfig_init_via                                 .build/obj_crkbd_rev1_via/quantum/via.o (symbol from plugin)
                                                  .build/obj_crkbd_rev1_via/quantum/eeconfig.o (symbol from plugin)
eeconfig_is_disabled                              .build/obj_crkbd_rev1_via/quantum/eeconfig.o (symbol from plugin)
eeconfig_is_enabled                               .build/obj_crkbd_rev1_via/quantum/eeconfig.o (symbol from plugin)
                                                  .build/obj_crkbd_rev1_via/quantum/keyboard.o (symbol from plugin)
eeconfig_read_audio                               .build/obj_crkbd_rev1_via/quantum/eeconfig.o (symbol from plugin)
eeconfig_read_debug                               .build/obj_crkbd_rev1_via/quantum/eeconfig.o (symbol from plugin)
                                                  .build/obj_crkbd_rev1_via/quantum/keyboard.o (symbol from plugin)
eeconfig_read_default_layer                       .build/obj_crkbd_rev1_via/quantum/eeconfig.o (symbol from plugin)
                                                  .build/obj_crkbd_rev1_via/quantum/keyboard.o (symbol from plugin)
eeconfig_read_handedness                          .build/obj_crkbd_rev1_via/quantum/eeconfig.o (symbol from plugin)
eeconfig_read_haptic                              .build/obj_crkbd_rev1_via/quantum/eeconfig.o (symbol from plugin)
eeconfig_read_kb                                  .build/obj_crkbd_rev1_via/quantum/eeconfig.o (symbol from plugin)
eeconfig_read_keymap                              .build/obj_crkbd_rev1_via/quantum/eeconfig.o (symbol from plugin)
                                                  .build/obj_crkbd_rev1_via/quantum/process_keycode/process_magic.o (symbol from plugin)
                                                  .build/obj_crkbd_rev1_via/quantum/keyboard.o (symbol from plugin)
eeconfig_read_rgblight                            .build/obj_crkbd_rev1_via/quantum/rgblight/rgblight.o (symbol from plugin)
eeconfig_read_user                                .build/obj_crkbd_rev1_via/quantum/eeconfig.o (symbol from plugin)
eeconfig_update_audio                             .build/obj_crkbd_rev1_via/quantum/eeconfig.o (symbol from plugin)
eeconfig_update_debug                             .build/obj_crkbd_rev1_via/quantum/eeconfig.o (symbol from plugin)
eeconfig_update_default_layer                     .build/obj_crkbd_rev1_via/quantum/eeconfig.o (symbol from plugin)
                                                  .build/obj_crkbd_rev1_via/quantum/quantum.o (symbol from plugin)
eeconfig_update_handedness                        .build/obj_crkbd_rev1_via/quantum/eeconfig.o (symbol from plugin)
                                                  .build/obj_crkbd_rev1_via/quantum/process_keycode/process_magic.o (symbol from plugin)
eeconfig_update_haptic                            .build/obj_crkbd_rev1_via/quantum/eeconfig.o (symbol from plugin)
eeconfig_update_kb                                .build/obj_crkbd_rev1_via/quantum/eeconfig.o (symbol from plugin)
eeconfig_update_keymap                            .build/obj_crkbd_rev1_via/quantum/eeconfig.o (symbol from plugin)
                                                  .build/obj_crkbd_rev1_via/quantum/process_keycode/process_magic.o (symbol from plugin)
                                                  .build/obj_crkbd_rev1_via/quantum/action_util.o (symbol from plugin)
eeconfig_update_rgblight                          .build/obj_crkbd_rev1_via/quantum/rgblight/rgblight.o (symbol from plugin)
eeconfig_update_rgblight_current                  .build/obj_crkbd_rev1_via/quantum/rgblight/rgblight.o (symbol from plugin)
                                                  .build/obj_crkbd_rev1_via/quantum/via.o (symbol from plugin)
eeconfig_update_rgblight_default                  .build/obj_crkbd_rev1_via/quantum/rgblight/rgblight.o (symbol from plugin)
eeconfig_update_user                              .build/obj_crkbd_rev1_via/quantum/eeconfig.o (symbol from plugin)
eeprom_driver.c.537f182c                          /var/folders/tr/p8fgs8cd4pn1v7l1rzxd4yfr0000gn/T//ccgyOZ3Gdebugobj
                                                  /var/folders/tr/p8fgs8cd4pn1v7l1rzxd4yfr0000gn/T//ccLV2jr4.ltrans0.ltrans.o
eeprom_driver_erase                               .build/obj_crkbd_rev1_via/eeprom_wear_leveling.o (symbol from plugin)
                                                  .build/obj_crkbd_rev1_via/quantum/eeconfig.o (symbol from plugin)
eeprom_driver_init                                .build/obj_crkbd_rev1_via/eeprom_wear_leveling.o (symbol from plugin)
                                                  .build/obj_crkbd_rev1_via/quantum/keyboard.o (symbol from plugin)
eeprom_read_block                                 .build/obj_crkbd_rev1_via/eeprom_wear_leveling.o (symbol from plugin)
                                                  .build/obj_crkbd_rev1_via/eeprom_driver.o (symbol from plugin)
eeprom_read_byte                                  .build/obj_crkbd_rev1_via/eeprom_driver.o (symbol from plugin)
                                                  .build/obj_crkbd_rev1_via/quantum/via.o (symbol from plugin)
                                                  .build/obj_crkbd_rev1_via/quantum/dynamic_keymap.o (symbol from plugin)
                                                  .build/obj_crkbd_rev1_via/quantum/rgblight/rgblight.o (symbol from plugin)
                                                  .build/obj_crkbd_rev1_via/quantum/eeconfig.o (symbol from plugin)
eeprom_read_dword                                 .build/obj_crkbd_rev1_via/eeprom_driver.o (symbol from plugin)
                                                  .build/obj_crkbd_rev1_via/quantum/rgblight/rgblight.o (symbol from plugin)
                                                  .build/obj_crkbd_rev1_via/quantum/eeconfig.o (symbol from plugin)
eeprom_read_word                                  .build/obj_crkbd_rev1_via/eeprom_driver.o (symbol from plugin)
                                                  .build/obj_crkbd_rev1_via/quantum/eeconfig.o (symbol from plugin)
eeprom_update_block                               .build/obj_crkbd_rev1_via/eeprom_driver.o (symbol from plugin)
                                                  .build/obj_crkbd_rev1_via/quantum/eeconfig.o (symbol from plugin)
eeprom_update_byte                                .build/obj_crkbd_rev1_via/eeprom_driver.o (symbol from plugin)
                                                  .build/obj_crkbd_rev1_via/quantum/via.o (symbol from plugin)
                                                  .build/obj_crkbd_rev1_via/quantum/dynamic_keymap.o (symbol from plugin)
                                                  .build/obj_crkbd_rev1_via/quantum/rgblight/rgblight.o (symbol from plugin)
                                                  .build/obj_crkbd_rev1_via/quantum/eeconfig.o (symbol from plugin)
eeprom_update_dword                               .build/obj_crkbd_rev1_via/eeprom_driver.o (symbol from plugin)
                                                  .build/obj_crkbd_rev1_via/quantum/rgblight/rgblight.o (symbol from plugin)
                                                  .build/obj_crkbd_rev1_via/quantum/eeconfig.o (symbol from plugin)
eeprom_update_word                                .build/obj_crkbd_rev1_via/eeprom_driver.o (symbol from plugin)
                                                  .build/obj_crkbd_rev1_via/quantum/eeconfig.o (symbol from plugin)
eeprom_wear_leveling.c.55351950                   /var/folders/tr/p8fgs8cd4pn1v7l1rzxd4yfr0000gn/T//ccgyOZ3Gdebugobj
                                                  /var/folders/tr/p8fgs8cd4pn1v7l1rzxd4yfr0000gn/T//ccLV2jr4.ltrans0.ltrans.o
eeprom_write_block                                .build/obj_crkbd_rev1_via/eeprom_wear_leveling.o (symbol from plugin)
                                                  .build/obj_crkbd_rev1_via/eeprom_driver.o (symbol from plugin)
eeprom_write_byte                                 .build/obj_crkbd_rev1_via/eeprom_driver.o (symbol from plugin)
eeprom_write_dword                                .build/obj_crkbd_rev1_via/eeprom_driver.o (symbol from plugin)
eeprom_write_word                                 .build/obj_crkbd_rev1_via/eeprom_driver.o (symbol from plugin)
enter_bootloader_mode_if_requested                .build/obj_crkbd_rev1_via/platforms/chibios/bootloaders/rp2040.o (symbol from plugin)
errno                                             /opt/homebrew/Cellar/arm-none-eabi-gcc@8/8.5.0_2/lib/arm-none-eabi-gcc/8/gcc/arm-none-eabi/8.5.0/../../../../../../arm-none-eabi/lib/thumb/v6-m/nofp/libg_nano.a(lib_a-reent.o)
                                                  /opt/homebrew/Cellar/arm-none-eabi-gcc@8/8.5.0_2/lib/arm-none-eabi-gcc/8/gcc/arm-none-eabi/8.5.0/../../../../../../arm-none-eabi/lib/thumb/v6-m/nofp/libg_nano.a(lib_a-signalr.o)
event_queue                                       .build/obj_crkbd_rev1_via/protocol/chibios/usb_main.o (symbol from plugin)
event_queue_head                                  .build/obj_crkbd_rev1_via/protocol/chibios/usb_main.o (symbol from plugin)
event_queue_tail                                  .build/obj_crkbd_rev1_via/protocol/chibios/usb_main.o (symbol from plugin)
extract_mod_bits                                  .build/obj_crkbd_rev1_via/quantum/quantum.o (symbol from plugin)
fctprintf                                         .build/obj_crkbd_rev1_via/printf.o (symbol from plugin)
fflush                                            /opt/homebrew/Cellar/arm-none-eabi-gcc@8/8.5.0_2/lib/arm-none-eabi-gcc/8/gcc/arm-none-eabi/8.5.0/../../../../../../arm-none-eabi/lib/thumb/v6-m/nofp/libg_nano.a(lib_a-fflush.o)
fiprintf                                          /opt/homebrew/Cellar/arm-none-eabi-gcc@8/8.5.0_2/lib/arm-none-eabi-gcc/8/gcc/arm-none-eabi/8.5.0/../../../../../../arm-none-eabi/lib/thumb/v6-m/nofp/libg_nano.a(lib_a-fprintf.o)
                                                  /opt/homebrew/Cellar/arm-none-eabi-gcc@8/8.5.0_2/lib/arm-none-eabi-gcc/8/gcc/arm-none-eabi/8.5.0/../../../../../../arm-none-eabi/lib/thumb/v6-m/nofp/libg_nano.a(lib_a-assert.o)
flash.c.1a35b9e0                                  /var/folders/tr/p8fgs8cd4pn1v7l1rzxd4yfr0000gn/T//ccgyOZ3Gdebugobj
                                                  /var/folders/tr/p8fgs8cd4pn1v7l1rzxd4yfr0000gn/T//ccLV2jr4.ltrans0.ltrans.o
flashGetAddressOffset                             .build/obj_crkbd_rev1_via/lib/chibios/os/hal/src/hal_flash.o (symbol from plugin)
flashGetOffsetAddress                             .build/obj_crkbd_rev1_via/lib/chibios/os/hal/src/hal_flash.o (symbol from plugin)
flashGetOffsetSector                              .build/obj_crkbd_rev1_via/lib/chibios/os/hal/src/hal_flash.o (symbol from plugin)
flashGetSectorOffset                              .build/obj_crkbd_rev1_via/lib/chibios/os/hal/src/hal_flash.o (symbol from plugin)
flashGetSectorSize                                .build/obj_crkbd_rev1_via/lib/chibios/os/hal/src/hal_flash.o (symbol from plugin)
flashWaitErase                                    .build/obj_crkbd_rev1_via/lib/chibios/os/hal/src/hal_flash.o (symbol from plugin)
flash_do_cmd                                      .build/obj_crkbd_rev1_via/./lib/pico-sdk/src/rp2_common/hardware_flash/flash.o (symbol from plugin)
flash_get_unique_id                               .build/obj_crkbd_rev1_via/./lib/pico-sdk/src/rp2_common/hardware_flash/flash.o (symbol from plugin)
                                                  .build/obj_crkbd_rev1_via/platforms/chibios/hardware_id.o (symbol from plugin)
flash_range_erase                                 .build/obj_crkbd_rev1_via/./lib/pico-sdk/src/rp2_common/hardware_flash/flash.o (symbol from plugin)
                                                  .build/obj_crkbd_rev1_via/wear_leveling_rp2040_flash.o (symbol from plugin)
flash_range_program                               .build/obj_crkbd_rev1_via/./lib/pico-sdk/src/rp2_common/hardware_flash/flash.o (symbol from plugin)
fnv_32a_buf                                       .build/obj_crkbd_rev1_via/hash_32a.o (symbol from plugin)
fnv_32a_str                                       .build/obj_crkbd_rev1_via/hash_32a.o (symbol from plugin)
fnv_64a_buf                                       .build/obj_crkbd_rev1_via/hash_64a.o (symbol from plugin)
                                                  .build/obj_crkbd_rev1_via/wear_leveling.o (symbol from plugin)
fnv_64a_str                                       .build/obj_crkbd_rev1_via/hash_64a.o (symbol from plugin)
font                                              .build/obj_crkbd_rev1_via/oled_driver.o (symbol from plugin)
fprintf                                           /opt/homebrew/Cellar/arm-none-eabi-gcc@8/8.5.0_2/lib/arm-none-eabi-gcc/8/gcc/arm-none-eabi/8.5.0/../../../../../../arm-none-eabi/lib/thumb/v6-m/nofp/libg_nano.a(lib_a-fprintf.o)
free                                              /opt/homebrew/Cellar/arm-none-eabi-gcc@8/8.5.0_2/lib/arm-none-eabi-gcc/8/gcc/arm-none-eabi/8.5.0/../../../../../../arm-none-eabi/lib/thumb/v6-m/nofp/libg_nano.a(lib_a-malloc.o)
frequency_count_khz                               .build/obj_crkbd_rev1_via/./lib/pico-sdk/src/rp2_common/hardware_clocks/clocks.o (symbol from plugin)
get_event_keycode                                 /var/folders/tr/p8fgs8cd4pn1v7l1rzxd4yfr0000gn/T//ccLV2jr4.ltrans1.ltrans.o
                                                  .build/obj_crkbd_rev1_via/quantum/quantum.o (symbol from plugin)
                                                  /var/folders/tr/p8fgs8cd4pn1v7l1rzxd4yfr0000gn/T//ccLV2jr4.ltrans0.ltrans.o
get_first_key                                     .build/obj_crkbd_rev1_via/protocol/report.o (symbol from plugin)
get_hardware_id                                   .build/obj_crkbd_rev1_via/platforms/chibios/hardware_id.o (symbol from plugin)
get_mods                                          .build/obj_crkbd_rev1_via/quantum/action_util.o (symbol from plugin)
                                                  .build/obj_crkbd_rev1_via/quantum/process_keycode/process_grave_esc.o (symbol from plugin)
                                                  .build/obj_crkbd_rev1_via/quantum/process_keycode/process_rgb.o (symbol from plugin)
get_numeric_str                                   .build/obj_crkbd_rev1_via/quantum/quantum.o (symbol from plugin)
get_oneshot_layer                                 .build/obj_crkbd_rev1_via/quantum/action_util.o (symbol from plugin)
                                                  .build/obj_crkbd_rev1_via/quantum/action.o (symbol from plugin)
get_oneshot_layer_state                           .build/obj_crkbd_rev1_via/quantum/action_util.o (symbol from plugin)
                                                  .build/obj_crkbd_rev1_via/quantum/action.o (symbol from plugin)
get_oneshot_locked_mods                           .build/obj_crkbd_rev1_via/quantum/action_util.o (symbol from plugin)
get_oneshot_mods                                  .build/obj_crkbd_rev1_via/quantum/action_util.o (symbol from plugin)
get_record_keycode                                .build/obj_crkbd_rev1_via/quantum/quantum.o (symbol from plugin)
get_tri_layer_adjust_layer                        .build/obj_crkbd_rev1_via/quantum/tri_layer.o (symbol from plugin)
                                                  .build/obj_crkbd_rev1_via/quantum/process_keycode/process_tri_layer.o (symbol from plugin)
get_tri_layer_lower_layer                         .build/obj_crkbd_rev1_via/quantum/tri_layer.o (symbol from plugin)
                                                  .build/obj_crkbd_rev1_via/quantum/process_keycode/process_tri_layer.o (symbol from plugin)
get_tri_layer_upper_layer                         .build/obj_crkbd_rev1_via/quantum/tri_layer.o (symbol from plugin)
                                                  .build/obj_crkbd_rev1_via/quantum/process_keycode/process_tri_layer.o (symbol from plugin)
get_u16_str                                       .build/obj_crkbd_rev1_via/quantum/quantum.o (symbol from plugin)
                                                  .build/obj_crkbd_rev1_via/keyboards/crkbd/crkbd.o (symbol from plugin)
get_u8_str                                        .build/obj_crkbd_rev1_via/quantum/quantum.o (symbol from plugin)
get_usb_descriptor                                .build/obj_crkbd_rev1_via/usb_descriptor.o (symbol from plugin)
                                                  .build/obj_crkbd_rev1_via/protocol/chibios/usb_main.o (symbol from plugin)
get_weak_mods                                     .build/obj_crkbd_rev1_via/quantum/action_util.o (symbol from plugin)
gnu_lto_v1                                        /var/folders/tr/p8fgs8cd4pn1v7l1rzxd4yfr0000gn/T//ccgyOZ3Gdebugobj
gpio.c.4480a660                                   /var/folders/tr/p8fgs8cd4pn1v7l1rzxd4yfr0000gn/T//ccgyOZ3Gdebugobj
                                                  /var/folders/tr/p8fgs8cd4pn1v7l1rzxd4yfr0000gn/T//ccLV2jr4.ltrans0.ltrans.o
gpio_acknowledge_irq                              .build/obj_crkbd_rev1_via/./lib/pico-sdk/src/rp2_common/hardware_gpio/gpio.o (symbol from plugin)
gpio_add_raw_irq_handler_masked                   .build/obj_crkbd_rev1_via/./lib/pico-sdk/src/rp2_common/hardware_gpio/gpio.o (symbol from plugin)
gpio_add_raw_irq_handler_with_order_priority_masked .build/obj_crkbd_rev1_via/./lib/pico-sdk/src/rp2_common/hardware_gpio/gpio.o (symbol from plugin)
gpio_debug_pins_init                              .build/obj_crkbd_rev1_via/./lib/pico-sdk/src/rp2_common/hardware_gpio/gpio.o (symbol from plugin)
gpio_deinit                                       .build/obj_crkbd_rev1_via/./lib/pico-sdk/src/rp2_common/hardware_gpio/gpio.o (symbol from plugin)
gpio_get_drive_strength                           .build/obj_crkbd_rev1_via/./lib/pico-sdk/src/rp2_common/hardware_gpio/gpio.o (symbol from plugin)
gpio_get_function                                 .build/obj_crkbd_rev1_via/./lib/pico-sdk/src/rp2_common/hardware_gpio/gpio.o (symbol from plugin)
gpio_get_pad                                      .build/obj_crkbd_rev1_via/./lib/pico-sdk/src/rp2_common/hardware_gpio/gpio.o (symbol from plugin)
gpio_get_slew_rate                                .build/obj_crkbd_rev1_via/./lib/pico-sdk/src/rp2_common/hardware_gpio/gpio.o (symbol from plugin)
gpio_init                                         .build/obj_crkbd_rev1_via/./lib/pico-sdk/src/rp2_common/hardware_gpio/gpio.o (symbol from plugin)
gpio_init_mask                                    .build/obj_crkbd_rev1_via/./lib/pico-sdk/src/rp2_common/hardware_gpio/gpio.o (symbol from plugin)
gpio_is_input_hysteresis_enabled                  .build/obj_crkbd_rev1_via/./lib/pico-sdk/src/rp2_common/hardware_gpio/gpio.o (symbol from plugin)
gpio_remove_raw_irq_handler_masked                .build/obj_crkbd_rev1_via/./lib/pico-sdk/src/rp2_common/hardware_gpio/gpio.o (symbol from plugin)
gpio_set_dormant_irq_enabled                      .build/obj_crkbd_rev1_via/./lib/pico-sdk/src/rp2_common/hardware_gpio/gpio.o (symbol from plugin)
gpio_set_drive_strength                           /var/folders/tr/p8fgs8cd4pn1v7l1rzxd4yfr0000gn/T//ccLV2jr4.ltrans0.ltrans.o
                                                  .build/obj_crkbd_rev1_via/./lib/pico-sdk/src/rp2_common/hardware_gpio/gpio.o (symbol from plugin)
                                                  .build/obj_crkbd_rev1_via/serial_vendor.a(serial_vendor.o)
gpio_set_function                                 .build/obj_crkbd_rev1_via/./lib/pico-sdk/src/rp2_common/hardware_gpio/gpio.o (symbol from plugin)
                                                  .build/obj_crkbd_rev1_via/./lib/pico-sdk/src/rp2_common/hardware_clocks/clocks.o (symbol from plugin)
gpio_set_inover                                   .build/obj_crkbd_rev1_via/./lib/pico-sdk/src/rp2_common/hardware_gpio/gpio.o (symbol from plugin)
gpio_set_input_enabled                            .build/obj_crkbd_rev1_via/./lib/pico-sdk/src/rp2_common/hardware_gpio/gpio.o (symbol from plugin)
gpio_set_input_hysteresis_enabled                 .build/obj_crkbd_rev1_via/./lib/pico-sdk/src/rp2_common/hardware_gpio/gpio.o (symbol from plugin)
gpio_set_irq_callback                             .build/obj_crkbd_rev1_via/./lib/pico-sdk/src/rp2_common/hardware_gpio/gpio.o (symbol from plugin)
gpio_set_irq_enabled                              .build/obj_crkbd_rev1_via/./lib/pico-sdk/src/rp2_common/hardware_gpio/gpio.o (symbol from plugin)
gpio_set_irq_enabled_with_callback                .build/obj_crkbd_rev1_via/./lib/pico-sdk/src/rp2_common/hardware_gpio/gpio.o (symbol from plugin)
gpio_set_irqover                                  .build/obj_crkbd_rev1_via/./lib/pico-sdk/src/rp2_common/hardware_gpio/gpio.o (symbol from plugin)
gpio_set_oeover                                   .build/obj_crkbd_rev1_via/./lib/pico-sdk/src/rp2_common/hardware_gpio/gpio.o (symbol from plugin)
gpio_set_outover                                  .build/obj_crkbd_rev1_via/./lib/pico-sdk/src/rp2_common/hardware_gpio/gpio.o (symbol from plugin)
gpio_set_pulls                                    .build/obj_crkbd_rev1_via/./lib/pico-sdk/src/rp2_common/hardware_gpio/gpio.o (symbol from plugin)
gpio_set_slew_rate                                .build/obj_crkbd_rev1_via/./lib/pico-sdk/src/rp2_common/hardware_gpio/gpio.o (symbol from plugin)
hal.c.ffc69fb3                                    /var/folders/tr/p8fgs8cd4pn1v7l1rzxd4yfr0000gn/T//ccgyOZ3Gdebugobj
                                                  /var/folders/tr/p8fgs8cd4pn1v7l1rzxd4yfr0000gn/T//ccLV2jr4.ltrans0.ltrans.o
halInit                                           .build/obj_crkbd_rev1_via/lib/chibios/os/hal/src/hal.o (symbol from plugin)
                                                  .build/obj_crkbd_rev1_via/platforms/chibios/platform.o (symbol from plugin)
hal_adc.c.b90aa138                                /var/folders/tr/p8fgs8cd4pn1v7l1rzxd4yfr0000gn/T//ccgyOZ3Gdebugobj
                                                  /var/folders/tr/p8fgs8cd4pn1v7l1rzxd4yfr0000gn/T//ccLV2jr4.ltrans0.ltrans.o
hal_adc_lld.c.da822e04                            /var/folders/tr/p8fgs8cd4pn1v7l1rzxd4yfr0000gn/T//ccgyOZ3Gdebugobj
                                                  /var/folders/tr/p8fgs8cd4pn1v7l1rzxd4yfr0000gn/T//ccLV2jr4.ltrans0.ltrans.o
hal_buffers.c.3f2aa2f0                            /var/folders/tr/p8fgs8cd4pn1v7l1rzxd4yfr0000gn/T//ccgyOZ3Gdebugobj
                                                  /var/folders/tr/p8fgs8cd4pn1v7l1rzxd4yfr0000gn/T//ccLV2jr4.ltrans0.ltrans.o
hal_can.c.83aca2b2                                /var/folders/tr/p8fgs8cd4pn1v7l1rzxd4yfr0000gn/T//ccgyOZ3Gdebugobj
hal_crypto.c.15f85230                             /var/folders/tr/p8fgs8cd4pn1v7l1rzxd4yfr0000gn/T//ccgyOZ3Gdebugobj
hal_dac.c.4b5b44e5                                /var/folders/tr/p8fgs8cd4pn1v7l1rzxd4yfr0000gn/T//ccgyOZ3Gdebugobj
hal_efl.c.15145a3a                                /var/folders/tr/p8fgs8cd4pn1v7l1rzxd4yfr0000gn/T//ccgyOZ3Gdebugobj
hal_flash.c.b2dd0597                              /var/folders/tr/p8fgs8cd4pn1v7l1rzxd4yfr0000gn/T//ccgyOZ3Gdebugobj
hal_gpt.c.32def95d                                /var/folders/tr/p8fgs8cd4pn1v7l1rzxd4yfr0000gn/T//ccgyOZ3Gdebugobj
hal_i2c.c.81f723de                                /var/folders/tr/p8fgs8cd4pn1v7l1rzxd4yfr0000gn/T//ccgyOZ3Gdebugobj
                                                  /var/folders/tr/p8fgs8cd4pn1v7l1rzxd4yfr0000gn/T//ccLV2jr4.ltrans0.ltrans.o
hal_i2c_lld.c.3d6f2aee                            /var/folders/tr/p8fgs8cd4pn1v7l1rzxd4yfr0000gn/T//ccgyOZ3Gdebugobj
                                                  /var/folders/tr/p8fgs8cd4pn1v7l1rzxd4yfr0000gn/T//ccLV2jr4.ltrans0.ltrans.o
hal_i2s.c.ae1324f8                                /var/folders/tr/p8fgs8cd4pn1v7l1rzxd4yfr0000gn/T//ccgyOZ3Gdebugobj
hal_icu.c.ea1aa2a8                                /var/folders/tr/p8fgs8cd4pn1v7l1rzxd4yfr0000gn/T//ccgyOZ3Gdebugobj
hal_lld.c.0ec19efe                                /var/folders/tr/p8fgs8cd4pn1v7l1rzxd4yfr0000gn/T//ccgyOZ3Gdebugobj
                                                  /var/folders/tr/p8fgs8cd4pn1v7l1rzxd4yfr0000gn/T//ccLV2jr4.ltrans0.ltrans.o
hal_lld_init                                      .build/obj_crkbd_rev1_via/lib/chibios/os/hal/ports/RP/RP2040/hal_lld.o (symbol from plugin)
                                                  .build/obj_crkbd_rev1_via/lib/chibios/os/hal/src/hal.o (symbol from plugin)
hal_mac.c.ce06a263                                /var/folders/tr/p8fgs8cd4pn1v7l1rzxd4yfr0000gn/T//ccgyOZ3Gdebugobj
hal_mmc_spi.c.41cca18f                            /var/folders/tr/p8fgs8cd4pn1v7l1rzxd4yfr0000gn/T//ccgyOZ3Gdebugobj
hal_mmcsd.c.8943d0ff                              /var/folders/tr/p8fgs8cd4pn1v7l1rzxd4yfr0000gn/T//ccgyOZ3Gdebugobj
hal_pal.c.54b2b8f9                                /var/folders/tr/p8fgs8cd4pn1v7l1rzxd4yfr0000gn/T//ccgyOZ3Gdebugobj
                                                  /var/folders/tr/p8fgs8cd4pn1v7l1rzxd4yfr0000gn/T//ccLV2jr4.ltrans0.ltrans.o
hal_pal_lld.c.521106f8                            /var/folders/tr/p8fgs8cd4pn1v7l1rzxd4yfr0000gn/T//ccgyOZ3Gdebugobj
                                                  /var/folders/tr/p8fgs8cd4pn1v7l1rzxd4yfr0000gn/T//ccLV2jr4.ltrans0.ltrans.o
hal_pwm.c.68f5dc13                                /var/folders/tr/p8fgs8cd4pn1v7l1rzxd4yfr0000gn/T//ccgyOZ3Gdebugobj
hal_pwm_lld.c.952fdb6c                            /var/folders/tr/p8fgs8cd4pn1v7l1rzxd4yfr0000gn/T//ccgyOZ3Gdebugobj
hal_queues.c.2818061e                             /var/folders/tr/p8fgs8cd4pn1v7l1rzxd4yfr0000gn/T//ccgyOZ3Gdebugobj
hal_rtc.c.17246c23                                /var/folders/tr/p8fgs8cd4pn1v7l1rzxd4yfr0000gn/T//ccgyOZ3Gdebugobj
hal_rtc_lld.c.eb934d13                            /var/folders/tr/p8fgs8cd4pn1v7l1rzxd4yfr0000gn/T//ccgyOZ3Gdebugobj
hal_sdc.c.23c4196f                                /var/folders/tr/p8fgs8cd4pn1v7l1rzxd4yfr0000gn/T//ccgyOZ3Gdebugobj
hal_serial.c.4be9c2f2                             /var/folders/tr/p8fgs8cd4pn1v7l1rzxd4yfr0000gn/T//ccgyOZ3Gdebugobj
hal_serial_usb.c.7f37637f                         /var/folders/tr/p8fgs8cd4pn1v7l1rzxd4yfr0000gn/T//ccgyOZ3Gdebugobj
hal_sio.c.e3b7434e                                /var/folders/tr/p8fgs8cd4pn1v7l1rzxd4yfr0000gn/T//ccgyOZ3Gdebugobj
hal_sio_lld.c.b752c8cb                            /var/folders/tr/p8fgs8cd4pn1v7l1rzxd4yfr0000gn/T//ccgyOZ3Gdebugobj
hal_spi.c.f79df3ca                                /var/folders/tr/p8fgs8cd4pn1v7l1rzxd4yfr0000gn/T//ccgyOZ3Gdebugobj
                                                  /var/folders/tr/p8fgs8cd4pn1v7l1rzxd4yfr0000gn/T//ccLV2jr4.ltrans0.ltrans.o
hal_spi_lld.c.f9329786                            /var/folders/tr/p8fgs8cd4pn1v7l1rzxd4yfr0000gn/T//ccgyOZ3Gdebugobj
                                                  /var/folders/tr/p8fgs8cd4pn1v7l1rzxd4yfr0000gn/T//ccLV2jr4.ltrans0.ltrans.o
hal_st.c.865c672a                                 /var/folders/tr/p8fgs8cd4pn1v7l1rzxd4yfr0000gn/T//ccgyOZ3Gdebugobj
                                                  /var/folders/tr/p8fgs8cd4pn1v7l1rzxd4yfr0000gn/T//ccLV2jr4.ltrans0.ltrans.o
hal_st_lld.c.a1a77099                             /var/folders/tr/p8fgs8cd4pn1v7l1rzxd4yfr0000gn/T//ccgyOZ3Gdebugobj
                                                  /var/folders/tr/p8fgs8cd4pn1v7l1rzxd4yfr0000gn/T//ccLV2jr4.ltrans0.ltrans.o
hal_trng.c.719cc8ea                               /var/folders/tr/p8fgs8cd4pn1v7l1rzxd4yfr0000gn/T//ccgyOZ3Gdebugobj
hal_uart.c.3ee8c7f5                               /var/folders/tr/p8fgs8cd4pn1v7l1rzxd4yfr0000gn/T//ccgyOZ3Gdebugobj
hal_usb.c.a3ce675b                                /var/folders/tr/p8fgs8cd4pn1v7l1rzxd4yfr0000gn/T//ccgyOZ3Gdebugobj
                                                  /var/folders/tr/p8fgs8cd4pn1v7l1rzxd4yfr0000gn/T//ccLV2jr4.ltrans0.ltrans.o
hal_usb_lld.c.964d8df4                            /var/folders/tr/p8fgs8cd4pn1v7l1rzxd4yfr0000gn/T//ccgyOZ3Gdebugobj
                                                  /var/folders/tr/p8fgs8cd4pn1v7l1rzxd4yfr0000gn/T//ccLV2jr4.ltrans0.ltrans.o
hal_wdg.c.1843c6ff                                /var/folders/tr/p8fgs8cd4pn1v7l1rzxd4yfr0000gn/T//ccgyOZ3Gdebugobj
hal_wdg_lld.c.f7798b03                            /var/folders/tr/p8fgs8cd4pn1v7l1rzxd4yfr0000gn/T//ccgyOZ3Gdebugobj
hal_wspi.c.ba5dccef                               /var/folders/tr/p8fgs8cd4pn1v7l1rzxd4yfr0000gn/T//ccgyOZ3Gdebugobj
hard_assertion_failure                            .build/obj_crkbd_rev1_via/platforms/chibios/vendors/RP/pico_sdk_shims.o (symbol from plugin)
                                                  .build/obj_crkbd_rev1_via/./lib/pico-sdk/src/rp2_common/hardware_gpio/gpio.o (symbol from plugin)
                                                  .build/obj_crkbd_rev1_via/./lib/pico-sdk/src/rp2_common/hardware_flash/flash.o (symbol from plugin)
hardware_alarm_cancel                             .build/obj_crkbd_rev1_via/./lib/pico-sdk/src/rp2_common/hardware_timer/timer.o (symbol from plugin)
hardware_alarm_claim                              .build/obj_crkbd_rev1_via/./lib/pico-sdk/src/rp2_common/hardware_timer/timer.o (symbol from plugin)
hardware_alarm_claim_unused                       .build/obj_crkbd_rev1_via/./lib/pico-sdk/src/rp2_common/hardware_timer/timer.o (symbol from plugin)
hardware_alarm_force_irq                          .build/obj_crkbd_rev1_via/./lib/pico-sdk/src/rp2_common/hardware_timer/timer.o (symbol from plugin)
hardware_alarm_is_claimed                         .build/obj_crkbd_rev1_via/./lib/pico-sdk/src/rp2_common/hardware_timer/timer.o (symbol from plugin)
hardware_alarm_set_callback                       .build/obj_crkbd_rev1_via/./lib/pico-sdk/src/rp2_common/hardware_timer/timer.o (symbol from plugin)
hardware_alarm_set_target                         .build/obj_crkbd_rev1_via/./lib/pico-sdk/src/rp2_common/hardware_timer/timer.o (symbol from plugin)
hardware_alarm_unclaim                            .build/obj_crkbd_rev1_via/./lib/pico-sdk/src/rp2_common/hardware_timer/timer.o (symbol from plugin)
hardware_id.c.e71184df                            /var/folders/tr/p8fgs8cd4pn1v7l1rzxd4yfr0000gn/T//ccgyOZ3Gdebugobj
has_anykey                                        .build/obj_crkbd_rev1_via/protocol/report.o (symbol from plugin)
                                                  .build/obj_crkbd_rev1_via/quantum/action_util.o (symbol from plugin)
has_anymod                                        .build/obj_crkbd_rev1_via/quantum/action_util.o (symbol from plugin)
has_oneshot_mods_timed_out                        .build/obj_crkbd_rev1_via/quantum/action_util.o (symbol from plugin)
hash_32a.c.e2ff362e                               /var/folders/tr/p8fgs8cd4pn1v7l1rzxd4yfr0000gn/T//ccgyOZ3Gdebugobj
hash_64a.c.81d49d5e                               /var/folders/tr/p8fgs8cd4pn1v7l1rzxd4yfr0000gn/T//ccgyOZ3Gdebugobj
                                                  /var/folders/tr/p8fgs8cd4pn1v7l1rzxd4yfr0000gn/T//ccLV2jr4.ltrans0.ltrans.o
host.c.727fce77                                   /var/folders/tr/p8fgs8cd4pn1v7l1rzxd4yfr0000gn/T//ccgyOZ3Gdebugobj
                                                  /var/folders/tr/p8fgs8cd4pn1v7l1rzxd4yfr0000gn/T//ccLV2jr4.ltrans0.ltrans.o
host_consumer_send                                .build/obj_crkbd_rev1_via/protocol/host.o (symbol from plugin)
                                                  .build/obj_crkbd_rev1_via/platforms/chibios/suspend.o (symbol from plugin)
                                                  .build/obj_crkbd_rev1_via/quantum/action.o (symbol from plugin)
host_get_driver                                   .build/obj_crkbd_rev1_via/protocol/host.o (symbol from plugin)
host_keyboard_led_state                           .build/obj_crkbd_rev1_via/protocol/host.o (symbol from plugin)
host_keyboard_leds                                .build/obj_crkbd_rev1_via/protocol/host.o (symbol from plugin)
                                                  .build/obj_crkbd_rev1_via/quantum/action.o (symbol from plugin)
                                                  .build/obj_crkbd_rev1_via/quantum/led.o (symbol from plugin)
host_keyboard_send                                .build/obj_crkbd_rev1_via/protocol/host.o (symbol from plugin)
                                                  .build/obj_crkbd_rev1_via/quantum/action_util.o (symbol from plugin)
host_last_consumer_usage                          .build/obj_crkbd_rev1_via/protocol/host.o (symbol from plugin)
host_last_system_usage                            .build/obj_crkbd_rev1_via/protocol/host.o (symbol from plugin)
host_mouse_send                                   .build/obj_crkbd_rev1_via/protocol/host.o (symbol from plugin)
host_nkro_send                                    .build/obj_crkbd_rev1_via/protocol/host.o (symbol from plugin)
                                                  .build/obj_crkbd_rev1_via/quantum/action_util.o (symbol from plugin)
host_set_driver                                   .build/obj_crkbd_rev1_via/protocol/host.o (symbol from plugin)
                                                  .build/obj_crkbd_rev1_via/protocol/chibios/chibios.o (symbol from plugin)
host_system_send                                  .build/obj_crkbd_rev1_via/protocol/host.o (symbol from plugin)
                                                  .build/obj_crkbd_rev1_via/platforms/chibios/suspend.o (symbol from plugin)
                                                  .build/obj_crkbd_rev1_via/quantum/action.o (symbol from plugin)
housekeeping_task                                 .build/obj_crkbd_rev1_via/quantum/keyboard.o (symbol from plugin)
                                                  .build/obj_crkbd_rev1_via/quantum/main.o (symbol from plugin)
housekeeping_task_kb                              .build/obj_crkbd_rev1_via/quantum/keyboard.o (symbol from plugin)
housekeeping_task_user                            .build/obj_crkbd_rev1_via/quantum/keyboard.o (symbol from plugin)
hsv_to_rgb                                        .build/obj_crkbd_rev1_via/quantum/color.o (symbol from plugin)
                                                  .build/obj_crkbd_rev1_via/quantum/rgblight/rgblight.o (symbol from plugin)
hsv_to_rgb_impl                                   .build/obj_crkbd_rev1_via/quantum/color.o (symbol from plugin)
hsv_to_rgb_nocie                                  .build/obj_crkbd_rev1_via/quantum/color.o (symbol from plugin)
hw_claim_clear                                    .build/obj_crkbd_rev1_via/./lib/pico-sdk/src/rp2_common/hardware_claim/claim.o (symbol from plugin)
                                                  .build/obj_crkbd_rev1_via/./lib/pico-sdk/src/rp2_common/hardware_timer/timer.o (symbol from plugin)
                                                  .build/obj_crkbd_rev1_via/./lib/pico-sdk/src/rp2_common/hardware_pio/pio.o (symbol from plugin)
hw_claim_lock                                     .build/obj_crkbd_rev1_via/./lib/pico-sdk/src/rp2_common/hardware_claim/claim.o (symbol from plugin)
                                                  .build/obj_crkbd_rev1_via/./lib/pico-sdk/src/rp2_common/hardware_pio/pio.o (symbol from plugin)
hw_claim_or_assert                                .build/obj_crkbd_rev1_via/./lib/pico-sdk/src/rp2_common/hardware_claim/claim.o (symbol from plugin)
                                                  .build/obj_crkbd_rev1_via/./lib/pico-sdk/src/rp2_common/hardware_timer/timer.o (symbol from plugin)
                                                  .build/obj_crkbd_rev1_via/./lib/pico-sdk/src/rp2_common/hardware_pio/pio.o (symbol from plugin)
hw_claim_unlock                                   .build/obj_crkbd_rev1_via/./lib/pico-sdk/src/rp2_common/hardware_claim/claim.o (symbol from plugin)
                                                  .build/obj_crkbd_rev1_via/./lib/pico-sdk/src/rp2_common/hardware_pio/pio.o (symbol from plugin)
hw_claim_unused_from_range                        .build/obj_crkbd_rev1_via/./lib/pico-sdk/src/rp2_common/hardware_claim/claim.o (symbol from plugin)
                                                  .build/obj_crkbd_rev1_via/./lib/pico-sdk/src/rp2_common/hardware_timer/timer.o (symbol from plugin)
                                                  .build/obj_crkbd_rev1_via/./lib/pico-sdk/src/rp2_common/hardware_pio/pio.o (symbol from plugin)
hw_is_claimed                                     .build/obj_crkbd_rev1_via/./lib/pico-sdk/src/rp2_common/hardware_claim/claim.o (symbol from plugin)
                                                  .build/obj_crkbd_rev1_via/./lib/pico-sdk/src/rp2_common/hardware_timer/timer.o (symbol from plugin)
                                                  .build/obj_crkbd_rev1_via/./lib/pico-sdk/src/rp2_common/hardware_pio/pio.o (symbol from plugin)
i2cAcquireBus                                     .build/obj_crkbd_rev1_via/lib/chibios/os/hal/src/hal_i2c.o (symbol from plugin)
i2cGetErrors                                      .build/obj_crkbd_rev1_via/lib/chibios/os/hal/src/hal_i2c.o (symbol from plugin)
i2cInit                                           .build/obj_crkbd_rev1_via/lib/chibios/os/hal/src/hal_i2c.o (symbol from plugin)
                                                  .build/obj_crkbd_rev1_via/lib/chibios/os/hal/src/hal.o (symbol from plugin)
i2cMasterReceiveTimeout                           /var/folders/tr/p8fgs8cd4pn1v7l1rzxd4yfr0000gn/T//ccLV2jr4.ltrans0.ltrans.o
                                                  .build/obj_crkbd_rev1_via/lib/chibios/os/hal/src/hal_i2c.o (symbol from plugin)
                                                  .build/obj_crkbd_rev1_via/i2c_master.a(i2c_master.o)
i2cMasterTransmitTimeout                          /var/folders/tr/p8fgs8cd4pn1v7l1rzxd4yfr0000gn/T//ccLV2jr4.ltrans0.ltrans.o
                                                  .build/obj_crkbd_rev1_via/lib/chibios/os/hal/src/hal_i2c.o (symbol from plugin)
                                                  .build/obj_crkbd_rev1_via/i2c_master.a(i2c_master.o)
i2cObjectInit                                     .build/obj_crkbd_rev1_via/lib/chibios/os/hal/src/hal_i2c.o (symbol from plugin)
                                                  .build/obj_crkbd_rev1_via/lib/chibios-contrib/os/hal/ports/RP/LLD/I2Cv1/hal_i2c_lld.o (symbol from plugin)
i2cReleaseBus                                     .build/obj_crkbd_rev1_via/lib/chibios/os/hal/src/hal_i2c.o (symbol from plugin)
i2cStart                                          /var/folders/tr/p8fgs8cd4pn1v7l1rzxd4yfr0000gn/T//ccLV2jr4.ltrans0.ltrans.o
                                                  .build/obj_crkbd_rev1_via/lib/chibios/os/hal/src/hal_i2c.o (symbol from plugin)
                                                  .build/obj_crkbd_rev1_via/i2c_master.a(i2c_master.o)
i2cStop                                           /var/folders/tr/p8fgs8cd4pn1v7l1rzxd4yfr0000gn/T//ccLV2jr4.ltrans0.ltrans.o
                                                  .build/obj_crkbd_rev1_via/lib/chibios/os/hal/src/hal_i2c.o (symbol from plugin)
                                                  .build/obj_crkbd_rev1_via/i2c_master.a(i2c_master.o)
i2c_init                                          .build/obj_crkbd_rev1_via/i2c_master.a(i2c_master.o)
                                                  /var/folders/tr/p8fgs8cd4pn1v7l1rzxd4yfr0000gn/T//ccLV2jr4.ltrans0.ltrans.o
                                                  .build/obj_crkbd_rev1_via/oled_driver.o (symbol from plugin)
i2c_lld_handle_errors                             .build/obj_crkbd_rev1_via/lib/chibios-contrib/os/hal/ports/RP/LLD/I2Cv1/hal_i2c_lld.o (symbol from plugin)
i2c_lld_init                                      .build/obj_crkbd_rev1_via/lib/chibios-contrib/os/hal/ports/RP/LLD/I2Cv1/hal_i2c_lld.o (symbol from plugin)
                                                  .build/obj_crkbd_rev1_via/lib/chibios/os/hal/src/hal_i2c.o (symbol from plugin)
i2c_lld_master_receive_timeout                    .build/obj_crkbd_rev1_via/lib/chibios-contrib/os/hal/ports/RP/LLD/I2Cv1/hal_i2c_lld.o (symbol from plugin)
                                                  .build/obj_crkbd_rev1_via/lib/chibios/os/hal/src/hal_i2c.o (symbol from plugin)
i2c_lld_master_transmit_timeout                   .build/obj_crkbd_rev1_via/lib/chibios-contrib/os/hal/ports/RP/LLD/I2Cv1/hal_i2c_lld.o (symbol from plugin)
                                                  .build/obj_crkbd_rev1_via/lib/chibios/os/hal/src/hal_i2c.o (symbol from plugin)
i2c_lld_start                                     .build/obj_crkbd_rev1_via/lib/chibios-contrib/os/hal/ports/RP/LLD/I2Cv1/hal_i2c_lld.o (symbol from plugin)
                                                  .build/obj_crkbd_rev1_via/lib/chibios/os/hal/src/hal_i2c.o (symbol from plugin)
i2c_lld_stop                                      .build/obj_crkbd_rev1_via/lib/chibios-contrib/os/hal/ports/RP/LLD/I2Cv1/hal_i2c_lld.o (symbol from plugin)
                                                  .build/obj_crkbd_rev1_via/lib/chibios/os/hal/src/hal_i2c.o (symbol from plugin)
i2c_ping_address                                  .build/obj_crkbd_rev1_via/i2c_master.a(i2c_master.o)
i2c_read_register                                 .build/obj_crkbd_rev1_via/i2c_master.a(i2c_master.o)
i2c_read_register16                               .build/obj_crkbd_rev1_via/i2c_master.a(i2c_master.o)
i2c_receive                                       .build/obj_crkbd_rev1_via/i2c_master.a(i2c_master.o)
i2c_transmit                                      .build/obj_crkbd_rev1_via/i2c_master.a(i2c_master.o)
                                                  /var/folders/tr/p8fgs8cd4pn1v7l1rzxd4yfr0000gn/T//ccLV2jr4.ltrans0.ltrans.o
                                                  .build/obj_crkbd_rev1_via/oled_driver.o (symbol from plugin)
i2c_write_register                                .build/obj_crkbd_rev1_via/i2c_master.a(i2c_master.o)
                                                  /var/folders/tr/p8fgs8cd4pn1v7l1rzxd4yfr0000gn/T//ccLV2jr4.ltrans0.ltrans.o
                                                  .build/obj_crkbd_rev1_via/oled_driver.o (symbol from plugin)
i2c_write_register16                              .build/obj_crkbd_rev1_via/i2c_master.a(i2c_master.o)
ibqGetEmptyBufferI                                .build/obj_crkbd_rev1_via/lib/chibios/os/hal/src/hal_buffers.o (symbol from plugin)
                                                  .build/obj_crkbd_rev1_via/protocol/chibios/usb_driver.o (symbol from plugin)
ibqGetFullBufferTimeout                           .build/obj_crkbd_rev1_via/lib/chibios/os/hal/src/hal_buffers.o (symbol from plugin)
ibqGetFullBufferTimeoutS                          .build/obj_crkbd_rev1_via/lib/chibios/os/hal/src/hal_buffers.o (symbol from plugin)
ibqGetTimeout                                     .build/obj_crkbd_rev1_via/lib/chibios/os/hal/src/hal_buffers.o (symbol from plugin)
                                                  .build/obj_crkbd_rev1_via/protocol/chibios/usb_driver.o (symbol from plugin)
ibqObjectInit                                     .build/obj_crkbd_rev1_via/lib/chibios/os/hal/src/hal_buffers.o (symbol from plugin)
                                                  .build/obj_crkbd_rev1_via/protocol/chibios/usb_driver.o (symbol from plugin)
ibqPostFullBufferI                                .build/obj_crkbd_rev1_via/lib/chibios/os/hal/src/hal_buffers.o (symbol from plugin)
                                                  .build/obj_crkbd_rev1_via/protocol/chibios/usb_driver.o (symbol from plugin)
ibqReadTimeout                                    .build/obj_crkbd_rev1_via/lib/chibios/os/hal/src/hal_buffers.o (symbol from plugin)
                                                  .build/obj_crkbd_rev1_via/protocol/chibios/usb_driver.o (symbol from plugin)
ibqReleaseEmptyBuffer                             .build/obj_crkbd_rev1_via/lib/chibios/os/hal/src/hal_buffers.o (symbol from plugin)
ibqReleaseEmptyBufferS                            .build/obj_crkbd_rev1_via/lib/chibios/os/hal/src/hal_buffers.o (symbol from plugin)
ibqResetI                                         .build/obj_crkbd_rev1_via/lib/chibios/os/hal/src/hal_buffers.o (symbol from plugin)
                                                  .build/obj_crkbd_rev1_via/protocol/chibios/usb_driver.o (symbol from plugin)
init_usb_driver                                   .build/obj_crkbd_rev1_via/protocol/chibios/usb_main.o (symbol from plugin)
                                                  .build/obj_crkbd_rev1_via/protocol/chibios/chibios.o (symbol from plugin)
interrupt_handlers.c.202b8aa5                     /var/folders/tr/p8fgs8cd4pn1v7l1rzxd4yfr0000gn/T//ccgyOZ3Gdebugobj
iqGetI                                            .build/obj_crkbd_rev1_via/lib/chibios/os/hal/src/hal_queues.o (symbol from plugin)
iqGetTimeout                                      .build/obj_crkbd_rev1_via/lib/chibios/os/hal/src/hal_queues.o (symbol from plugin)
iqObjectInit                                      .build/obj_crkbd_rev1_via/lib/chibios/os/hal/src/hal_queues.o (symbol from plugin)
iqPutI                                            .build/obj_crkbd_rev1_via/lib/chibios/os/hal/src/hal_queues.o (symbol from plugin)
iqReadI                                           .build/obj_crkbd_rev1_via/lib/chibios/os/hal/src/hal_queues.o (symbol from plugin)
iqReadTimeout                                     .build/obj_crkbd_rev1_via/lib/chibios/os/hal/src/hal_queues.o (symbol from plugin)
iqResetI                                          .build/obj_crkbd_rev1_via/lib/chibios/os/hal/src/hal_queues.o (symbol from plugin)
irqDeinit                                         .build/obj_crkbd_rev1_via/lib/chibios/os/hal/ports/RP/RP2040/rp_isr.o (symbol from plugin)
irqInit                                           .build/obj_crkbd_rev1_via/lib/chibios/os/hal/ports/RP/RP2040/rp_isr.o (symbol from plugin)
                                                  .build/obj_crkbd_rev1_via/lib/chibios/os/hal/ports/RP/RP2040/hal_lld.o (symbol from plugin)
irq_add_shared_handler                            .build/obj_crkbd_rev1_via/./lib/pico-sdk/src/rp2_common/hardware_gpio/gpio.o (symbol from plugin)
irq_get_vtable_handler                            .build/obj_crkbd_rev1_via/./lib/pico-sdk/src/rp2_common/hardware_timer/timer.o (symbol from plugin)
irq_remove_handler                                .build/obj_crkbd_rev1_via/./lib/pico-sdk/src/rp2_common/hardware_gpio/gpio.o (symbol from plugin)
                                                  .build/obj_crkbd_rev1_via/./lib/pico-sdk/src/rp2_common/hardware_timer/timer.o (symbol from plugin)
irq_set_enabled                                   .build/obj_crkbd_rev1_via/./lib/pico-sdk/src/rp2_common/hardware_gpio/gpio.o (symbol from plugin)
                                                  .build/obj_crkbd_rev1_via/./lib/pico-sdk/src/rp2_common/hardware_timer/timer.o (symbol from plugin)
                                                  .build/obj_crkbd_rev1_via/./lib/pico-sdk/src/rp2_common/hardware_clocks/clocks.o (symbol from plugin)
irq_set_exclusive_handler                         .build/obj_crkbd_rev1_via/./lib/pico-sdk/src/rp2_common/hardware_timer/timer.o (symbol from plugin)
                                                  .build/obj_crkbd_rev1_via/./lib/pico-sdk/src/rp2_common/hardware_clocks/clocks.o (symbol from plugin)
isLeftHand                                        .build/obj_crkbd_rev1_via/quantum/split_common/split_util.o (symbol from plugin)
                                                  .build/obj_crkbd_rev1_via/quantum/matrix.o (symbol from plugin)
                                                  .build/obj_crkbd_rev1_via/quantum/matrix_common.o (symbol from plugin)
is_key_pressed                                    .build/obj_crkbd_rev1_via/protocol/report.o (symbol from plugin)
                                                  .build/obj_crkbd_rev1_via/quantum/action.o (symbol from plugin)
is_keyboard_left                                  .build/obj_crkbd_rev1_via/quantum/split_common/split_util.o (symbol from plugin)
                                                  .build/obj_crkbd_rev1_via/quantum/bootmagic/bootmagic.o (symbol from plugin)
is_keyboard_left_impl                             .build/obj_crkbd_rev1_via/quantum/split_common/split_util.o (symbol from plugin)
is_keyboard_master                                .build/obj_crkbd_rev1_via/quantum/split_common/split_util.o (symbol from plugin)
                                                  .build/obj_crkbd_rev1_via/protocol/host.o (symbol from plugin)
                                                  .build/obj_crkbd_rev1_via/quantum/matrix_common.o (symbol from plugin)
                                                  .build/obj_crkbd_rev1_via/quantum/sync_timer.o (symbol from plugin)
                                                  .build/obj_crkbd_rev1_via/quantum/keyboard.o (symbol from plugin)
                                                  .build/obj_crkbd_rev1_via/keyboards/crkbd/crkbd.o (symbol from plugin)
is_keyboard_master_impl                           .build/obj_crkbd_rev1_via/quantum/split_common/split_util.o (symbol from plugin)
is_oled_on                                        .build/obj_crkbd_rev1_via/oled_driver.o (symbol from plugin)
is_oled_scrolling                                 .build/obj_crkbd_rev1_via/oled_driver.o (symbol from plugin)
is_oneshot_enabled                                .build/obj_crkbd_rev1_via/quantum/action_util.o (symbol from plugin)
is_oneshot_layer_active                           .build/obj_crkbd_rev1_via/quantum/action_util.o (symbol from plugin)
                                                  .build/obj_crkbd_rev1_via/quantum/action.o (symbol from plugin)
is_rgblight_initialized                           .build/obj_crkbd_rev1_via/quantum/rgblight/rgblight.o (symbol from plugin)
is_tap_action                                     .build/obj_crkbd_rev1_via/quantum/action.o (symbol from plugin)
is_tap_record                                     .build/obj_crkbd_rev1_via/quantum/action.o (symbol from plugin)
                                                  .build/obj_crkbd_rev1_via/quantum/action_tapping.o (symbol from plugin)
is_transport_connected                            .build/obj_crkbd_rev1_via/quantum/split_common/split_util.o (symbol from plugin)
                                                  .build/obj_crkbd_rev1_via/quantum/split_common/transactions.o (symbol from plugin)
key_name                                          .build/obj_crkbd_rev1_via/keyboards/crkbd/crkbd.o (symbol from plugin)
keyboard.c.aaf2181c                               /var/folders/tr/p8fgs8cd4pn1v7l1rzxd4yfr0000gn/T//ccgyOZ3Gdebugobj
                                                  /var/folders/tr/p8fgs8cd4pn1v7l1rzxd4yfr0000gn/T//ccLV2jr4.ltrans0.ltrans.o
keyboard_idle                                     .build/obj_crkbd_rev1_via/protocol/chibios/usb_main.o (symbol from plugin)
keyboard_idle_count                               .build/obj_crkbd_rev1_via/protocol/chibios/usb_main.o (symbol from plugin)
keyboard_init                                     .build/obj_crkbd_rev1_via/quantum/keyboard.o (symbol from plugin)
                                                  .build/obj_crkbd_rev1_via/quantum/main.o (symbol from plugin)
keyboard_led_state                                .build/obj_crkbd_rev1_via/protocol/chibios/usb_main.o (symbol from plugin)
keyboard_leds                                     .build/obj_crkbd_rev1_via/protocol/chibios/usb_main.o (symbol from plugin)
                                                  .build/obj_crkbd_rev1_via/protocol/chibios/chibios.o (symbol from plugin)
keyboard_post_init_kb                             .build/obj_crkbd_rev1_via/quantum/keyboard.o (symbol from plugin)
keyboard_post_init_user                           .build/obj_crkbd_rev1_via/quantum/keyboard.o (symbol from plugin)
keyboard_pre_init_kb                              .build/obj_crkbd_rev1_via/quantum/keyboard.o (symbol from plugin)
keyboard_pre_init_user                            .build/obj_crkbd_rev1_via/quantum/keyboard.o (symbol from plugin)
keyboard_protocol                                 .build/obj_crkbd_rev1_via/protocol/chibios/usb_main.o (symbol from plugin)
                                                  .build/obj_crkbd_rev1_via/protocol/report.o (symbol from plugin)
                                                  .build/obj_crkbd_rev1_via/quantum/action_util.o (symbol from plugin)
keyboard_report                                   .build/obj_crkbd_rev1_via/quantum/action_util.o (symbol from plugin)
                                                  .build/obj_crkbd_rev1_via/protocol/report.o (symbol from plugin)
keyboard_report_sent                              .build/obj_crkbd_rev1_via/protocol/chibios/usb_main.o (symbol from plugin)
keyboard_setup                                    .build/obj_crkbd_rev1_via/quantum/keyboard.o (symbol from plugin)
                                                  .build/obj_crkbd_rev1_via/quantum/main.o (symbol from plugin)
keyboard_task                                     .build/obj_crkbd_rev1_via/quantum/keyboard.o (symbol from plugin)
                                                  .build/obj_crkbd_rev1_via/quantum/main.o (symbol from plugin)
keycode_at_keymap_location                        .build/obj_crkbd_rev1_via/quantum/dynamic_keymap.o (symbol from plugin)
                                                  .build/obj_crkbd_rev1_via/quantum/keymap_introspection.o (symbol from plugin)
                                                  .build/obj_crkbd_rev1_via/quantum/keymap_common.o (symbol from plugin)
keycode_at_keymap_location_raw                    .build/obj_crkbd_rev1_via/quantum/keymap_introspection.o (symbol from plugin)
                                                  .build/obj_crkbd_rev1_via/quantum/dynamic_keymap.o (symbol from plugin)
keycode_config                                    .build/obj_crkbd_rev1_via/quantum/keycode_config.o (symbol from plugin)
                                                  .build/obj_crkbd_rev1_via/quantum/keymap_common.o (symbol from plugin)
keycode_config.c.45e649c8                         /var/folders/tr/p8fgs8cd4pn1v7l1rzxd4yfr0000gn/T//ccgyOZ3Gdebugobj
                                                  /var/folders/tr/p8fgs8cd4pn1v7l1rzxd4yfr0000gn/T//ccLV2jr4.ltrans0.ltrans.o
keymap_common.c.9e277eca                          /var/folders/tr/p8fgs8cd4pn1v7l1rzxd4yfr0000gn/T//ccgyOZ3Gdebugobj
                                                  /var/folders/tr/p8fgs8cd4pn1v7l1rzxd4yfr0000gn/T//ccLV2jr4.ltrans1.ltrans.o
                                                  /var/folders/tr/p8fgs8cd4pn1v7l1rzxd4yfr0000gn/T//ccLV2jr4.ltrans0.ltrans.o
keymap_config                                     .build/obj_crkbd_rev1_via/quantum/keycode_config.o (symbol from plugin)
                                                  .build/obj_crkbd_rev1_via/protocol/chibios/usb_main.o (symbol from plugin)
                                                  .build/obj_crkbd_rev1_via/protocol/report.o (symbol from plugin)
                                                  .build/obj_crkbd_rev1_via/quantum/process_keycode/process_magic.o (symbol from plugin)
                                                  .build/obj_crkbd_rev1_via/quantum/keyboard.o (symbol from plugin)
                                                  .build/obj_crkbd_rev1_via/quantum/action_util.o (symbol from plugin)
                                                  .build/obj_crkbd_rev1_via/quantum/action.o (symbol from plugin)
keymap_introspection.c.eb438555                   /var/folders/tr/p8fgs8cd4pn1v7l1rzxd4yfr0000gn/T//ccgyOZ3Gdebugobj
                                                  /var/folders/tr/p8fgs8cd4pn1v7l1rzxd4yfr0000gn/T//ccLV2jr4.ltrans1.ltrans.o
                                                  /var/folders/tr/p8fgs8cd4pn1v7l1rzxd4yfr0000gn/T//ccLV2jr4.ltrans0.ltrans.o
keymap_key_to_keycode                             /var/folders/tr/p8fgs8cd4pn1v7l1rzxd4yfr0000gn/T//ccLV2jr4.ltrans0.ltrans.o
                                                  .build/obj_crkbd_rev1_via/quantum/keymap_common.o (symbol from plugin)
                                                  /var/folders/tr/p8fgs8cd4pn1v7l1rzxd4yfr0000gn/T//ccLV2jr4.ltrans1.ltrans.o
                                                  .build/obj_crkbd_rev1_via/quantum/quantum.o (symbol from plugin)
keymap_layer_count                                .build/obj_crkbd_rev1_via/quantum/keymap_introspection.o (symbol from plugin)
keymap_layer_count_raw                            .build/obj_crkbd_rev1_via/quantum/keymap_introspection.o (symbol from plugin)
keymaps                                           .build/obj_crkbd_rev1_via/quantum/keymap_introspection.o (symbol from plugin)
last_col                                          .build/obj_crkbd_rev1_via/keyboards/crkbd/crkbd.o (symbol from plugin)
last_encoder_activity_elapsed                     .build/obj_crkbd_rev1_via/quantum/keyboard.o (symbol from plugin)
last_encoder_activity_time                        .build/obj_crkbd_rev1_via/quantum/keyboard.o (symbol from plugin)
last_encoder_activity_trigger                     .build/obj_crkbd_rev1_via/quantum/keyboard.o (symbol from plugin)
last_input_activity_elapsed                       .build/obj_crkbd_rev1_via/quantum/keyboard.o (symbol from plugin)
last_input_activity_time                          .build/obj_crkbd_rev1_via/quantum/keyboard.o (symbol from plugin)
last_keycode                                      .build/obj_crkbd_rev1_via/keyboards/crkbd/crkbd.o (symbol from plugin)
last_led_activity_elapsed                         .build/obj_crkbd_rev1_via/quantum/led.o (symbol from plugin)
last_led_activity_time                            .build/obj_crkbd_rev1_via/quantum/led.o (symbol from plugin)
last_matrix_activity_elapsed                      .build/obj_crkbd_rev1_via/quantum/keyboard.o (symbol from plugin)
last_matrix_activity_time                         .build/obj_crkbd_rev1_via/quantum/keyboard.o (symbol from plugin)
last_matrix_activity_trigger                      .build/obj_crkbd_rev1_via/quantum/keyboard.o (symbol from plugin)
last_pointing_device_activity_elapsed             .build/obj_crkbd_rev1_via/quantum/keyboard.o (symbol from plugin)
last_pointing_device_activity_time                .build/obj_crkbd_rev1_via/quantum/keyboard.o (symbol from plugin)
last_pointing_device_activity_trigger             .build/obj_crkbd_rev1_via/quantum/keyboard.o (symbol from plugin)
last_row                                          .build/obj_crkbd_rev1_via/keyboards/crkbd/crkbd.o (symbol from plugin)
last_suspend_state                                .build/obj_crkbd_rev1_via/protocol/chibios/usb_main.o (symbol from plugin)
layer_and                                         .build/obj_crkbd_rev1_via/quantum/action_layer.o (symbol from plugin)
                                                  .build/obj_crkbd_rev1_via/quantum/action.o (symbol from plugin)
layer_clear                                       .build/obj_crkbd_rev1_via/quantum/action_layer.o (symbol from plugin)
                                                  .build/obj_crkbd_rev1_via/quantum/action.o (symbol from plugin)
layer_debug                                       .build/obj_crkbd_rev1_via/quantum/action_layer.o (symbol from plugin)
                                                  .build/obj_crkbd_rev1_via/quantum/action.o (symbol from plugin)
layer_invert                                      .build/obj_crkbd_rev1_via/quantum/action_layer.o (symbol from plugin)
                                                  .build/obj_crkbd_rev1_via/quantum/action.o (symbol from plugin)
layer_move                                        .build/obj_crkbd_rev1_via/quantum/action_layer.o (symbol from plugin)
                                                  .build/obj_crkbd_rev1_via/quantum/action.o (symbol from plugin)
layer_off                                         .build/obj_crkbd_rev1_via/quantum/action_layer.o (symbol from plugin)
                                                  .build/obj_crkbd_rev1_via/quantum/process_keycode/process_tri_layer.o (symbol from plugin)
                                                  .build/obj_crkbd_rev1_via/quantum/action_util.o (symbol from plugin)
                                                  .build/obj_crkbd_rev1_via/quantum/action.o (symbol from plugin)
layer_on                                          .build/obj_crkbd_rev1_via/quantum/action_layer.o (symbol from plugin)
                                                  .build/obj_crkbd_rev1_via/quantum/process_keycode/process_tri_layer.o (symbol from plugin)
                                                  .build/obj_crkbd_rev1_via/quantum/action_util.o (symbol from plugin)
                                                  .build/obj_crkbd_rev1_via/quantum/action.o (symbol from plugin)
layer_or                                          .build/obj_crkbd_rev1_via/quantum/action_layer.o (symbol from plugin)
                                                  .build/obj_crkbd_rev1_via/quantum/action.o (symbol from plugin)
layer_state                                       .build/obj_crkbd_rev1_via/quantum/action_layer.o (symbol from plugin)
                                                  .build/obj_crkbd_rev1_via/quantum/keyboard.o (symbol from plugin)
                                                  .build/obj_crkbd_rev1_via/keyboards/crkbd/crkbd.o (symbol from plugin)
layer_state_cmp                                   .build/obj_crkbd_rev1_via/quantum/action_layer.o (symbol from plugin)
layer_state_is                                    .build/obj_crkbd_rev1_via/quantum/action_layer.o (symbol from plugin)
layer_state_set                                   .build/obj_crkbd_rev1_via/quantum/action_layer.o (symbol from plugin)
                                                  .build/obj_crkbd_rev1_via/quantum/action.o (symbol from plugin)
layer_state_set_kb                                .build/obj_crkbd_rev1_via/quantum/action_layer.o (symbol from plugin)
                                                  .build/obj_crkbd_rev1_via/quantum/keyboard.o (symbol from plugin)
layer_state_set_user                              .build/obj_crkbd_rev1_via/quantum/action_layer.o (symbol from plugin)
layer_switch_get_action                           .build/obj_crkbd_rev1_via/quantum/action_layer.o (symbol from plugin)
                                                  .build/obj_crkbd_rev1_via/quantum/action_tapping.o (symbol from plugin)
                                                  .build/obj_crkbd_rev1_via/quantum/action.o (symbol from plugin)
layer_switch_get_layer                            /var/folders/tr/p8fgs8cd4pn1v7l1rzxd4yfr0000gn/T//ccLV2jr4.ltrans0.ltrans.o
                                                  .build/obj_crkbd_rev1_via/quantum/action_layer.o (symbol from plugin)
                                                  /var/folders/tr/p8fgs8cd4pn1v7l1rzxd4yfr0000gn/T//ccLV2jr4.ltrans1.ltrans.o
                                                  .build/obj_crkbd_rev1_via/quantum/quantum.o (symbol from plugin)
layer_xor                                         .build/obj_crkbd_rev1_via/quantum/action_layer.o (symbol from plugin)
                                                  .build/obj_crkbd_rev1_via/quantum/action.o (symbol from plugin)
led                                               .build/obj_crkbd_rev1_via/quantum/rgblight/rgblight.o (symbol from plugin)
led.c.3b486398                                    /var/folders/tr/p8fgs8cd4pn1v7l1rzxd4yfr0000gn/T//ccgyOZ3Gdebugobj
                                                  /var/folders/tr/p8fgs8cd4pn1v7l1rzxd4yfr0000gn/T//ccLV2jr4.ltrans0.ltrans.o
led_init_ports                                    .build/obj_crkbd_rev1_via/quantum/led.o (symbol from plugin)
                                                  .build/obj_crkbd_rev1_via/quantum/keyboard.o (symbol from plugin)
led_set                                           .build/obj_crkbd_rev1_via/quantum/led.o (symbol from plugin)
                                                  .build/obj_crkbd_rev1_via/quantum/action.o (symbol from plugin)
led_set_user                                      .build/obj_crkbd_rev1_via/quantum/led.o (symbol from plugin)
led_suspend                                       .build/obj_crkbd_rev1_via/quantum/led.o (symbol from plugin)
                                                  .build/obj_crkbd_rev1_via/quantum/quantum.o (symbol from plugin)
led_tables.c.39a48fd4                             /var/folders/tr/p8fgs8cd4pn1v7l1rzxd4yfr0000gn/T//ccgyOZ3Gdebugobj
                                                  /var/folders/tr/p8fgs8cd4pn1v7l1rzxd4yfr0000gn/T//ccLV2jr4.ltrans0.ltrans.o
led_task                                          .build/obj_crkbd_rev1_via/quantum/led.o (symbol from plugin)
                                                  .build/obj_crkbd_rev1_via/quantum/keyboard.o (symbol from plugin)
led_update_kb                                     .build/obj_crkbd_rev1_via/quantum/led.o (symbol from plugin)
led_update_ports                                  .build/obj_crkbd_rev1_via/quantum/led.o (symbol from plugin)
led_update_user                                   .build/obj_crkbd_rev1_via/quantum/led.o (symbol from plugin)
led_wakeup                                        .build/obj_crkbd_rev1_via/quantum/led.o (symbol from plugin)
                                                  .build/obj_crkbd_rev1_via/quantum/quantum.o (symbol from plugin)
magic_token                                       .build/obj_crkbd_rev1_via/platforms/chibios/bootloaders/rp2040.o (symbol from plugin)
main                                              /var/folders/tr/p8fgs8cd4pn1v7l1rzxd4yfr0000gn/T//ccLV2jr4.ltrans0.ltrans.o
                                                  .build/obj_crkbd_rev1_via/quantum/main.o (symbol from plugin)
                                                  .build/obj_crkbd_rev1_via/./lib/chibios/os/common/startup/ARMCMx/compilers/GCC/crt0_v6m.o
main.c.bcdf5d47                                   /var/folders/tr/p8fgs8cd4pn1v7l1rzxd4yfr0000gn/T//ccgyOZ3Gdebugobj
                                                  /var/folders/tr/p8fgs8cd4pn1v7l1rzxd4yfr0000gn/T//ccLV2jr4.ltrans0.ltrans.o
malloc                                            /opt/homebrew/Cellar/arm-none-eabi-gcc@8/8.5.0_2/lib/arm-none-eabi-gcc/8/gcc/arm-none-eabi/8.5.0/../../../../../../arm-none-eabi/lib/thumb/v6-m/nofp/libg_nano.a(lib_a-malloc.o)
                                                  /opt/homebrew/Cellar/arm-none-eabi-gcc@8/8.5.0_2/lib/arm-none-eabi-gcc/8/gcc/arm-none-eabi/8.5.0/../../../../../../arm-none-eabi/lib/thumb/v6-m/nofp/libg_nano.a(lib_a-rand.o)
matrix                                            .build/obj_crkbd_rev1_via/quantum/matrix_common.o (symbol from plugin)
                                                  .build/obj_crkbd_rev1_via/quantum/matrix.o (symbol from plugin)
matrix.c.ba47ac26                                 /var/folders/tr/p8fgs8cd4pn1v7l1rzxd4yfr0000gn/T//ccgyOZ3Gdebugobj
                                                  /var/folders/tr/p8fgs8cd4pn1v7l1rzxd4yfr0000gn/T//ccLV2jr4.ltrans1.ltrans.o
                                                  /var/folders/tr/p8fgs8cd4pn1v7l1rzxd4yfr0000gn/T//ccLV2jr4.ltrans0.ltrans.o
matrix_can_read                                   .build/obj_crkbd_rev1_via/quantum/keyboard.o (symbol from plugin)
matrix_cols                                       .build/obj_crkbd_rev1_via/quantum/matrix_common.o (symbol from plugin)
matrix_common.c.24e6e73b                          /var/folders/tr/p8fgs8cd4pn1v7l1rzxd4yfr0000gn/T//ccgyOZ3Gdebugobj
                                                  /var/folders/tr/p8fgs8cd4pn1v7l1rzxd4yfr0000gn/T//ccLV2jr4.ltrans0.ltrans.o
matrix_get_row                                    .build/obj_crkbd_rev1_via/quantum/matrix_common.o (symbol from plugin)
                                                  .build/obj_crkbd_rev1_via/platforms/suspend.o (symbol from plugin)
                                                  .build/obj_crkbd_rev1_via/quantum/via.o (symbol from plugin)
                                                  .build/obj_crkbd_rev1_via/quantum/bootmagic/bootmagic.o (symbol from plugin)
                                                  .build/obj_crkbd_rev1_via/quantum/keyboard.o (symbol from plugin)
matrix_init                                       .build/obj_crkbd_rev1_via/quantum/matrix.o (symbol from plugin)
                                                  .build/obj_crkbd_rev1_via/quantum/matrix_common.o (symbol from plugin)
                                                  .build/obj_crkbd_rev1_via/quantum/keyboard.o (symbol from plugin)
matrix_init_custom                                .build/obj_crkbd_rev1_via/quantum/matrix_common.o (symbol from plugin)
matrix_init_kb                                    .build/obj_crkbd_rev1_via/quantum/matrix_common.o (symbol from plugin)
                                                  .build/obj_crkbd_rev1_via/quantum/matrix.o (symbol from plugin)
matrix_init_pins                                  .build/obj_crkbd_rev1_via/quantum/matrix.o (symbol from plugin)
matrix_init_user                                  .build/obj_crkbd_rev1_via/quantum/matrix_common.o (symbol from plugin)
matrix_io_delay                                   .build/obj_crkbd_rev1_via/quantum/matrix_common.o (symbol from plugin)
matrix_is_on                                      .build/obj_crkbd_rev1_via/quantum/matrix_common.o (symbol from plugin)
matrix_output_select_delay                        .build/obj_crkbd_rev1_via/quantum/matrix_common.o (symbol from plugin)
                                                  .build/obj_crkbd_rev1_via/quantum/matrix.o (symbol from plugin)
matrix_output_unselect_delay                      .build/obj_crkbd_rev1_via/quantum/matrix_common.o (symbol from plugin)
                                                  .build/obj_crkbd_rev1_via/quantum/matrix.o (symbol from plugin)
matrix_post_scan                                  .build/obj_crkbd_rev1_via/quantum/matrix_common.o (symbol from plugin)
                                                  .build/obj_crkbd_rev1_via/quantum/matrix.o (symbol from plugin)
matrix_power_down                                 .build/obj_crkbd_rev1_via/platforms/suspend.o (symbol from plugin)
matrix_power_up                                   .build/obj_crkbd_rev1_via/platforms/suspend.o (symbol from plugin)
matrix_print                                      .build/obj_crkbd_rev1_via/quantum/matrix_common.o (symbol from plugin)
                                                  .build/obj_crkbd_rev1_via/quantum/keyboard.o (symbol from plugin)
matrix_read_cols_on_row                           .build/obj_crkbd_rev1_via/quantum/matrix.o (symbol from plugin)
matrix_rows                                       .build/obj_crkbd_rev1_via/quantum/matrix_common.o (symbol from plugin)
matrix_scan                                       .build/obj_crkbd_rev1_via/quantum/matrix.o (symbol from plugin)
                                                  .build/obj_crkbd_rev1_via/quantum/matrix_common.o (symbol from plugin)
                                                  .build/obj_crkbd_rev1_via/platforms/suspend.o (symbol from plugin)
                                                  .build/obj_crkbd_rev1_via/quantum/bootmagic/bootmagic.o (symbol from plugin)
                                                  .build/obj_crkbd_rev1_via/quantum/keyboard.o (symbol from plugin)
matrix_scan_custom                                .build/obj_crkbd_rev1_via/quantum/matrix_common.o (symbol from plugin)
matrix_scan_kb                                    .build/obj_crkbd_rev1_via/quantum/matrix_common.o (symbol from plugin)
matrix_scan_user                                  .build/obj_crkbd_rev1_via/quantum/matrix_common.o (symbol from plugin)
matrix_setup                                      .build/obj_crkbd_rev1_via/quantum/keyboard.o (symbol from plugin)
matrix_slave_scan_kb                              .build/obj_crkbd_rev1_via/quantum/matrix_common.o (symbol from plugin)
matrix_slave_scan_user                            .build/obj_crkbd_rev1_via/quantum/matrix_common.o (symbol from plugin)
mcu_reset                                         .build/obj_crkbd_rev1_via/platforms/chibios/bootloaders/rp2040.o (symbol from plugin)
                                                  .build/obj_crkbd_rev1_via/quantum/quantum.o (symbol from plugin)
memchr                                            /opt/homebrew/Cellar/arm-none-eabi-gcc@8/8.5.0_2/lib/arm-none-eabi-gcc/8/gcc/arm-none-eabi/8.5.0/../../../../../../arm-none-eabi/lib/thumb/v6-m/nofp/libg_nano.a(lib_a-memchr-stub.o)
                                                  /var/folders/tr/p8fgs8cd4pn1v7l1rzxd4yfr0000gn/T//ccLV2jr4.ltrans0.ltrans.o
                                                  /opt/homebrew/Cellar/arm-none-eabi-gcc@8/8.5.0_2/lib/arm-none-eabi-gcc/8/gcc/arm-none-eabi/8.5.0/../../../../../../arm-none-eabi/lib/thumb/v6-m/nofp/libg_nano.a(lib_a-fvwrite.o)
                                                  /opt/homebrew/Cellar/arm-none-eabi-gcc@8/8.5.0_2/lib/arm-none-eabi-gcc/8/gcc/arm-none-eabi/8.5.0/../../../../../../arm-none-eabi/lib/thumb/v6-m/nofp/libg_nano.a(lib_a-nano-vfprintf_i.o)
                                                  /opt/homebrew/Cellar/arm-none-eabi-gcc@8/8.5.0_2/lib/arm-none-eabi-gcc/8/gcc/arm-none-eabi/8.5.0/../../../../../../arm-none-eabi/lib/thumb/v6-m/nofp/libg_nano.a(lib_a-nano-vfprintf.o)
memcmp                                            /opt/homebrew/Cellar/arm-none-eabi-gcc@8/8.5.0_2/lib/arm-none-eabi-gcc/8/gcc/arm-none-eabi/8.5.0/../../../../../../arm-none-eabi/lib/thumb/v6-m/nofp/libg_nano.a(lib_a-memcmp.o)
                                                  /var/folders/tr/p8fgs8cd4pn1v7l1rzxd4yfr0000gn/T//ccLV2jr4.ltrans0.ltrans.o
memcpy                                            /opt/homebrew/Cellar/arm-none-eabi-gcc@8/8.5.0_2/lib/arm-none-eabi-gcc/8/gcc/arm-none-eabi/8.5.0/../../../../../../arm-none-eabi/lib/thumb/v6-m/nofp/libg_nano.a(lib_a-memcpy-stub.o)
                                                  /var/folders/tr/p8fgs8cd4pn1v7l1rzxd4yfr0000gn/T//ccLV2jr4.ltrans0.ltrans.o
                                                  /opt/homebrew/Cellar/arm-none-eabi-gcc@8/8.5.0_2/lib/arm-none-eabi-gcc/8/gcc/arm-none-eabi/8.5.0/../../../../../../arm-none-eabi/lib/thumb/v6-m/nofp/libg_nano.a(lib_a-nano-reallocr.o)
                                                  /opt/homebrew/Cellar/arm-none-eabi-gcc@8/8.5.0_2/lib/arm-none-eabi-gcc/8/gcc/arm-none-eabi/8.5.0/../../../../../../arm-none-eabi/lib/thumb/v6-m/nofp/libg_nano.a(lib_a-fvwrite.o)
                                                  .build/obj_crkbd_rev1_via/serial_vendor.a(serial_vendor.o)
memmove                                           /opt/homebrew/Cellar/arm-none-eabi-gcc@8/8.5.0_2/lib/arm-none-eabi-gcc/8/gcc/arm-none-eabi/8.5.0/../../../../../../arm-none-eabi/lib/thumb/v6-m/nofp/libg_nano.a(lib_a-memmove.o)
                                                  /opt/homebrew/Cellar/arm-none-eabi-gcc@8/8.5.0_2/lib/arm-none-eabi-gcc/8/gcc/arm-none-eabi/8.5.0/../../../../../../arm-none-eabi/lib/thumb/v6-m/nofp/libg_nano.a(lib_a-fvwrite.o)
memset                                            /opt/homebrew/Cellar/arm-none-eabi-gcc@8/8.5.0_2/lib/arm-none-eabi-gcc/8/gcc/arm-none-eabi/8.5.0/../../../../../../arm-none-eabi/lib/thumb/v6-m/nofp/libg_nano.a(lib_a-memset.o)
                                                  /var/folders/tr/p8fgs8cd4pn1v7l1rzxd4yfr0000gn/T//ccLV2jr4.ltrans0.ltrans.o
                                                  /opt/homebrew/Cellar/arm-none-eabi-gcc@8/8.5.0_2/lib/arm-none-eabi-gcc/8/gcc/arm-none-eabi/8.5.0/../../../../../../arm-none-eabi/lib/thumb/v6-m/nofp/libg_nano.a(lib_a-findfp.o)
memstreams.c.de528905                             /var/folders/tr/p8fgs8cd4pn1v7l1rzxd4yfr0000gn/T//ccgyOZ3Gdebugobj
mod_config                                        .build/obj_crkbd_rev1_via/quantum/keycode_config.o (symbol from plugin)
                                                  .build/obj_crkbd_rev1_via/quantum/keymap_common.o (symbol from plugin)
mouse_report_sent                                 .build/obj_crkbd_rev1_via/protocol/chibios/usb_main.o (symbol from plugin)
msObjectInit                                      .build/obj_crkbd_rev1_via/lib/chibios/os/hal/lib/streams/memstreams.o (symbol from plugin)
                                                  .build/obj_crkbd_rev1_via/lib/chibios/os/hal/lib/streams/chscanf.o (symbol from plugin)
                                                  .build/obj_crkbd_rev1_via/lib/chibios/os/hal/lib/streams/chprintf.o (symbol from plugin)
nkro_report                                       .build/obj_crkbd_rev1_via/quantum/action_util.o (symbol from plugin)
                                                  .build/obj_crkbd_rev1_via/protocol/report.o (symbol from plugin)
notify_usb_device_state_change_kb                 .build/obj_crkbd_rev1_via/protocol/usb_device_state.o (symbol from plugin)
notify_usb_device_state_change_user               .build/obj_crkbd_rev1_via/protocol/usb_device_state.o (symbol from plugin)
nullObjectInit                                    .build/obj_crkbd_rev1_via/lib/chibios/os/hal/lib/streams/nullstreams.o (symbol from plugin)
nullstreams.c.62f0e413                            /var/folders/tr/p8fgs8cd4pn1v7l1rzxd4yfr0000gn/T//ccgyOZ3Gdebugobj
nvic.c.e2496605                                   /var/folders/tr/p8fgs8cd4pn1v7l1rzxd4yfr0000gn/T//ccgyOZ3Gdebugobj
                                                  /var/folders/tr/p8fgs8cd4pn1v7l1rzxd4yfr0000gn/T//ccLV2jr4.ltrans0.ltrans.o
nvicClearPending                                  .build/obj_crkbd_rev1_via/lib/chibios/os/hal/ports/common/ARMCMx/nvic.o (symbol from plugin)
nvicDisableVector                                 .build/obj_crkbd_rev1_via/lib/chibios/os/hal/ports/common/ARMCMx/nvic.o (symbol from plugin)
                                                  .build/obj_crkbd_rev1_via/lib/chibios-contrib/os/hal/ports/RP/LLD/USBDv1/hal_usb_lld.o (symbol from plugin)
                                                  .build/obj_crkbd_rev1_via/lib/chibios-contrib/os/hal/ports/RP/LLD/I2Cv1/hal_i2c_lld.o (symbol from plugin)
                                                  .build/obj_crkbd_rev1_via/lib/chibios/os/hal/ports/RP/LLD/DMAv1/rp_dma.o (symbol from plugin)
nvicEnableVector                                  /var/folders/tr/p8fgs8cd4pn1v7l1rzxd4yfr0000gn/T//ccLV2jr4.ltrans0.ltrans.o
                                                  .build/obj_crkbd_rev1_via/lib/chibios/os/hal/ports/common/ARMCMx/nvic.o (symbol from plugin)
                                                  .build/obj_crkbd_rev1_via/lib/chibios-contrib/os/hal/ports/RP/LLD/USBDv1/hal_usb_lld.o (symbol from plugin)
                                                  .build/obj_crkbd_rev1_via/lib/chibios-contrib/os/hal/ports/RP/LLD/ADCv1/hal_adc_lld.o (symbol from plugin)
                                                  .build/obj_crkbd_rev1_via/lib/chibios-contrib/os/hal/ports/RP/LLD/I2Cv1/hal_i2c_lld.o (symbol from plugin)
                                                  .build/obj_crkbd_rev1_via/lib/chibios/os/hal/ports/RP/LLD/TIMERv1/hal_st_lld.o (symbol from plugin)
                                                  .build/obj_crkbd_rev1_via/lib/chibios/os/hal/ports/RP/LLD/DMAv1/rp_dma.o (symbol from plugin)
                                                  .build/obj_crkbd_rev1_via/serial_vendor.a(serial_vendor.o)
nvicInit                                          .build/obj_crkbd_rev1_via/lib/chibios/os/hal/ports/common/ARMCMx/nvic.o (symbol from plugin)
nvicSetPending                                    .build/obj_crkbd_rev1_via/lib/chibios/os/hal/ports/common/ARMCMx/nvic.o (symbol from plugin)
nvicSetSystemHandlerPriority                      .build/obj_crkbd_rev1_via/lib/chibios/os/hal/ports/common/ARMCMx/nvic.o (symbol from plugin)
obqFlush                                          .build/obj_crkbd_rev1_via/lib/chibios/os/hal/src/hal_buffers.o (symbol from plugin)
obqGetEmptyBufferTimeout                          .build/obj_crkbd_rev1_via/lib/chibios/os/hal/src/hal_buffers.o (symbol from plugin)
obqGetEmptyBufferTimeoutS                         .build/obj_crkbd_rev1_via/lib/chibios/os/hal/src/hal_buffers.o (symbol from plugin)
obqGetFullBufferI                                 .build/obj_crkbd_rev1_via/lib/chibios/os/hal/src/hal_buffers.o (symbol from plugin)
                                                  .build/obj_crkbd_rev1_via/protocol/chibios/usb_driver.o (symbol from plugin)
obqObjectInit                                     .build/obj_crkbd_rev1_via/lib/chibios/os/hal/src/hal_buffers.o (symbol from plugin)
                                                  .build/obj_crkbd_rev1_via/protocol/chibios/usb_driver.o (symbol from plugin)
obqPostFullBuffer                                 .build/obj_crkbd_rev1_via/lib/chibios/os/hal/src/hal_buffers.o (symbol from plugin)
obqPostFullBufferS                                .build/obj_crkbd_rev1_via/lib/chibios/os/hal/src/hal_buffers.o (symbol from plugin)
obqPutTimeout                                     .build/obj_crkbd_rev1_via/lib/chibios/os/hal/src/hal_buffers.o (symbol from plugin)
                                                  .build/obj_crkbd_rev1_via/protocol/chibios/usb_driver.o (symbol from plugin)
obqReleaseEmptyBufferI                            .build/obj_crkbd_rev1_via/lib/chibios/os/hal/src/hal_buffers.o (symbol from plugin)
                                                  .build/obj_crkbd_rev1_via/protocol/chibios/usb_driver.o (symbol from plugin)
obqResetI                                         .build/obj_crkbd_rev1_via/lib/chibios/os/hal/src/hal_buffers.o (symbol from plugin)
                                                  .build/obj_crkbd_rev1_via/protocol/chibios/usb_driver.o (symbol from plugin)
obqTryFlushI                                      .build/obj_crkbd_rev1_via/lib/chibios/os/hal/src/hal_buffers.o (symbol from plugin)
                                                  .build/obj_crkbd_rev1_via/protocol/chibios/usb_driver.o (symbol from plugin)
obqWriteTimeout                                   .build/obj_crkbd_rev1_via/lib/chibios/os/hal/src/hal_buffers.o (symbol from plugin)
                                                  .build/obj_crkbd_rev1_via/protocol/chibios/usb_driver.o (symbol from plugin)
oled_active                                       .build/obj_crkbd_rev1_via/oled_driver.o (symbol from plugin)
oled_advance_char                                 .build/obj_crkbd_rev1_via/oled_driver.o (symbol from plugin)
oled_advance_page                                 .build/obj_crkbd_rev1_via/oled_driver.o (symbol from plugin)
oled_brightness                                   .build/obj_crkbd_rev1_via/oled_driver.o (symbol from plugin)
oled_buffer                                       .build/obj_crkbd_rev1_via/oled_driver.o (symbol from plugin)
oled_clear                                        .build/obj_crkbd_rev1_via/oled_driver.o (symbol from plugin)
oled_cursor                                       .build/obj_crkbd_rev1_via/oled_driver.o (symbol from plugin)
oled_dirty                                        .build/obj_crkbd_rev1_via/oled_driver.o (symbol from plugin)
oled_driver.c.4edd41be                            /var/folders/tr/p8fgs8cd4pn1v7l1rzxd4yfr0000gn/T//ccgyOZ3Gdebugobj
                                                  /var/folders/tr/p8fgs8cd4pn1v7l1rzxd4yfr0000gn/T//ccLV2jr4.ltrans0.ltrans.o
oled_driver_init                                  .build/obj_crkbd_rev1_via/oled_driver.o (symbol from plugin)
oled_get_brightness                               .build/obj_crkbd_rev1_via/oled_driver.o (symbol from plugin)
oled_init                                         .build/obj_crkbd_rev1_via/oled_driver.o (symbol from plugin)
                                                  .build/obj_crkbd_rev1_via/quantum/keyboard.o (symbol from plugin)
oled_init_kb                                      .build/obj_crkbd_rev1_via/keyboards/crkbd/crkbd.o (symbol from plugin)
oled_init_user                                    .build/obj_crkbd_rev1_via/oled_driver.o (symbol from plugin)
oled_initialized                                  .build/obj_crkbd_rev1_via/oled_driver.o (symbol from plugin)
oled_invert                                       .build/obj_crkbd_rev1_via/oled_driver.o (symbol from plugin)
oled_inverted                                     .build/obj_crkbd_rev1_via/oled_driver.o (symbol from plugin)
oled_max_chars                                    .build/obj_crkbd_rev1_via/oled_driver.o (symbol from plugin)
oled_max_lines                                    .build/obj_crkbd_rev1_via/oled_driver.o (symbol from plugin)
oled_off                                          .build/obj_crkbd_rev1_via/oled_driver.o (symbol from plugin)
                                                  .build/obj_crkbd_rev1_via/quantum/quantum.o (symbol from plugin)
oled_on                                           .build/obj_crkbd_rev1_via/oled_driver.o (symbol from plugin)
                                                  .build/obj_crkbd_rev1_via/quantum/keyboard.o (symbol from plugin)
oled_pan                                          .build/obj_crkbd_rev1_via/oled_driver.o (symbol from plugin)
oled_read_raw                                     .build/obj_crkbd_rev1_via/oled_driver.o (symbol from plugin)
oled_render_dirty                                 .build/obj_crkbd_rev1_via/oled_driver.o (symbol from plugin)
oled_render_logo                                  .build/obj_crkbd_rev1_via/keyboards/crkbd/crkbd.o (symbol from plugin)
oled_rotation                                     .build/obj_crkbd_rev1_via/oled_driver.o (symbol from plugin)
oled_rotation_width                               .build/obj_crkbd_rev1_via/oled_driver.o (symbol from plugin)
oled_scroll_end                                   .build/obj_crkbd_rev1_via/oled_driver.o (symbol from plugin)
oled_scroll_left                                  .build/obj_crkbd_rev1_via/oled_driver.o (symbol from plugin)
oled_scroll_off                                   .build/obj_crkbd_rev1_via/oled_driver.o (symbol from plugin)
oled_scroll_right                                 .build/obj_crkbd_rev1_via/oled_driver.o (symbol from plugin)
oled_scroll_set_area                              .build/obj_crkbd_rev1_via/oled_driver.o (symbol from plugin)
oled_scroll_set_speed                             .build/obj_crkbd_rev1_via/oled_driver.o (symbol from plugin)
oled_scroll_speed                                 .build/obj_crkbd_rev1_via/oled_driver.o (symbol from plugin)
oled_scroll_start                                 .build/obj_crkbd_rev1_via/oled_driver.o (symbol from plugin)
oled_scrolling                                    .build/obj_crkbd_rev1_via/oled_driver.o (symbol from plugin)
oled_send_cmd                                     .build/obj_crkbd_rev1_via/oled_driver.o (symbol from plugin)
oled_send_cmd_P                                   .build/obj_crkbd_rev1_via/oled_driver.o (symbol from plugin)
oled_send_data                                    .build/obj_crkbd_rev1_via/oled_driver.o (symbol from plugin)
oled_set_brightness                               .build/obj_crkbd_rev1_via/oled_driver.o (symbol from plugin)
oled_set_cursor                                   .build/obj_crkbd_rev1_via/oled_driver.o (symbol from plugin)
oled_task                                         .build/obj_crkbd_rev1_via/oled_driver.o (symbol from plugin)
                                                  .build/obj_crkbd_rev1_via/quantum/keyboard.o (symbol from plugin)
oled_task_kb                                      .build/obj_crkbd_rev1_via/keyboards/crkbd/crkbd.o (symbol from plugin)
oled_task_user                                    .build/obj_crkbd_rev1_via/oled_driver.o (symbol from plugin)
                                                  .build/obj_crkbd_rev1_via/keyboards/crkbd/crkbd.o (symbol from plugin)
oled_timeout                                      .build/obj_crkbd_rev1_via/oled_driver.o (symbol from plugin)
oled_update_timeout                               .build/obj_crkbd_rev1_via/oled_driver.o (symbol from plugin)
oled_write                                        .build/obj_crkbd_rev1_via/oled_driver.o (symbol from plugin)
                                                  .build/obj_crkbd_rev1_via/keyboards/crkbd/crkbd.o (symbol from plugin)
oled_write_char                                   .build/obj_crkbd_rev1_via/oled_driver.o (symbol from plugin)
                                                  .build/obj_crkbd_rev1_via/keyboards/crkbd/crkbd.o (symbol from plugin)
oled_write_ln                                     .build/obj_crkbd_rev1_via/oled_driver.o (symbol from plugin)
                                                  .build/obj_crkbd_rev1_via/keyboards/crkbd/crkbd.o (symbol from plugin)
oled_write_pixel                                  .build/obj_crkbd_rev1_via/oled_driver.o (symbol from plugin)
oled_write_raw                                    .build/obj_crkbd_rev1_via/oled_driver.o (symbol from plugin)
oled_write_raw_byte                               .build/obj_crkbd_rev1_via/oled_driver.o (symbol from plugin)
oneshot_disable                                   .build/obj_crkbd_rev1_via/quantum/action_util.o (symbol from plugin)
                                                  .build/obj_crkbd_rev1_via/quantum/quantum.o (symbol from plugin)
oneshot_enable                                    .build/obj_crkbd_rev1_via/quantum/action_util.o (symbol from plugin)
                                                  .build/obj_crkbd_rev1_via/quantum/quantum.o (symbol from plugin)
oneshot_layer_changed_kb                          .build/obj_crkbd_rev1_via/quantum/action_util.o (symbol from plugin)
oneshot_layer_changed_user                        .build/obj_crkbd_rev1_via/quantum/action_util.o (symbol from plugin)
oneshot_locked_mods_changed_kb                    .build/obj_crkbd_rev1_via/quantum/action_util.o (symbol from plugin)
oneshot_locked_mods_changed_user                  .build/obj_crkbd_rev1_via/quantum/action_util.o (symbol from plugin)
oneshot_mods_changed_kb                           .build/obj_crkbd_rev1_via/quantum/action_util.o (symbol from plugin)
oneshot_mods_changed_user                         .build/obj_crkbd_rev1_via/quantum/action_util.o (symbol from plugin)
oneshot_set                                       .build/obj_crkbd_rev1_via/quantum/action_util.o (symbol from plugin)
oneshot_toggle                                    .build/obj_crkbd_rev1_via/quantum/action_util.o (symbol from plugin)
                                                  .build/obj_crkbd_rev1_via/quantum/quantum.o (symbol from plugin)
oqGetI                                            .build/obj_crkbd_rev1_via/lib/chibios/os/hal/src/hal_queues.o (symbol from plugin)
oqObjectInit                                      .build/obj_crkbd_rev1_via/lib/chibios/os/hal/src/hal_queues.o (symbol from plugin)
oqPutI                                            .build/obj_crkbd_rev1_via/lib/chibios/os/hal/src/hal_queues.o (symbol from plugin)
oqPutTimeout                                      .build/obj_crkbd_rev1_via/lib/chibios/os/hal/src/hal_queues.o (symbol from plugin)
oqResetI                                          .build/obj_crkbd_rev1_via/lib/chibios/os/hal/src/hal_queues.o (symbol from plugin)
oqWriteI                                          .build/obj_crkbd_rev1_via/lib/chibios/os/hal/src/hal_queues.o (symbol from plugin)
oqWriteTimeout                                    .build/obj_crkbd_rev1_via/lib/chibios/os/hal/src/hal_queues.o (symbol from plugin)
osal.c.81cf6fc6                                   /var/folders/tr/p8fgs8cd4pn1v7l1rzxd4yfr0000gn/T//ccgyOZ3Gdebugobj
palReadBus                                        .build/obj_crkbd_rev1_via/lib/chibios/os/hal/src/hal_pal.o (symbol from plugin)
palSetBusMode                                     .build/obj_crkbd_rev1_via/lib/chibios/os/hal/src/hal_pal.o (symbol from plugin)
palWriteBus                                       .build/obj_crkbd_rev1_via/lib/chibios/os/hal/src/hal_pal.o (symbol from plugin)
panic                                             .build/obj_crkbd_rev1_via/platforms/chibios/vendors/RP/pico_sdk_shims.o (symbol from plugin)
                                                  .build/obj_crkbd_rev1_via/./lib/pico-sdk/src/rp2_common/hardware_claim/claim.o (symbol from plugin)
                                                  .build/obj_crkbd_rev1_via/./lib/pico-sdk/src/rp2_common/hardware_pio/pio.o (symbol from plugin)
peek_matrix                                       .build/obj_crkbd_rev1_via/quantum/matrix_common.o (symbol from plugin)
perform_space_cadet                               .build/obj_crkbd_rev1_via/quantum/process_keycode/process_space_cadet.o (symbol from plugin)
pico_sdk_shims.c.c398fc8c                         /var/folders/tr/p8fgs8cd4pn1v7l1rzxd4yfr0000gn/T//ccgyOZ3Gdebugobj
                                                  /var/folders/tr/p8fgs8cd4pn1v7l1rzxd4yfr0000gn/T//ccLV2jr4.ltrans0.ltrans.o
pio.c.5ef46269                                    /var/folders/tr/p8fgs8cd4pn1v7l1rzxd4yfr0000gn/T//ccgyOZ3Gdebugobj
                                                  /var/folders/tr/p8fgs8cd4pn1v7l1rzxd4yfr0000gn/T//ccLV2jr4.ltrans0.ltrans.o
pio_add_program                                   /var/folders/tr/p8fgs8cd4pn1v7l1rzxd4yfr0000gn/T//ccLV2jr4.ltrans0.ltrans.o
                                                  .build/obj_crkbd_rev1_via/./lib/pico-sdk/src/rp2_common/hardware_pio/pio.o (symbol from plugin)
                                                  .build/obj_crkbd_rev1_via/serial_vendor.a(serial_vendor.o)
                                                  .build/obj_crkbd_rev1_via/ws2812_vendor.o (symbol from plugin)
pio_add_program_at_offset                         .build/obj_crkbd_rev1_via/./lib/pico-sdk/src/rp2_common/hardware_pio/pio.o (symbol from plugin)
pio_can_add_program                               .build/obj_crkbd_rev1_via/./lib/pico-sdk/src/rp2_common/hardware_pio/pio.o (symbol from plugin)
pio_can_add_program_at_offset                     .build/obj_crkbd_rev1_via/./lib/pico-sdk/src/rp2_common/hardware_pio/pio.o (symbol from plugin)
pio_claim_sm_mask                                 .build/obj_crkbd_rev1_via/./lib/pico-sdk/src/rp2_common/hardware_pio/pio.o (symbol from plugin)
pio_claim_unused_sm                               /var/folders/tr/p8fgs8cd4pn1v7l1rzxd4yfr0000gn/T//ccLV2jr4.ltrans0.ltrans.o
                                                  .build/obj_crkbd_rev1_via/./lib/pico-sdk/src/rp2_common/hardware_pio/pio.o (symbol from plugin)
                                                  .build/obj_crkbd_rev1_via/serial_vendor.a(serial_vendor.o)
                                                  .build/obj_crkbd_rev1_via/ws2812_vendor.o (symbol from plugin)
pio_clear_instruction_memory                      .build/obj_crkbd_rev1_via/./lib/pico-sdk/src/rp2_common/hardware_pio/pio.o (symbol from plugin)
pio_remove_program                                .build/obj_crkbd_rev1_via/./lib/pico-sdk/src/rp2_common/hardware_pio/pio.o (symbol from plugin)
pio_sm_claim                                      .build/obj_crkbd_rev1_via/./lib/pico-sdk/src/rp2_common/hardware_pio/pio.o (symbol from plugin)
pio_sm_drain_tx_fifo                              .build/obj_crkbd_rev1_via/./lib/pico-sdk/src/rp2_common/hardware_pio/pio.o (symbol from plugin)
pio_sm_init                                       /var/folders/tr/p8fgs8cd4pn1v7l1rzxd4yfr0000gn/T//ccLV2jr4.ltrans0.ltrans.o
                                                  .build/obj_crkbd_rev1_via/./lib/pico-sdk/src/rp2_common/hardware_pio/pio.o (symbol from plugin)
                                                  .build/obj_crkbd_rev1_via/serial_vendor.a(serial_vendor.o)
                                                  .build/obj_crkbd_rev1_via/ws2812_vendor.o (symbol from plugin)
pio_sm_is_claimed                                 .build/obj_crkbd_rev1_via/./lib/pico-sdk/src/rp2_common/hardware_pio/pio.o (symbol from plugin)
pio_sm_set_consecutive_pindirs                    /var/folders/tr/p8fgs8cd4pn1v7l1rzxd4yfr0000gn/T//ccLV2jr4.ltrans0.ltrans.o
                                                  .build/obj_crkbd_rev1_via/./lib/pico-sdk/src/rp2_common/hardware_pio/pio.o (symbol from plugin)
                                                  .build/obj_crkbd_rev1_via/serial_vendor.a(serial_vendor.o)
                                                  .build/obj_crkbd_rev1_via/ws2812_vendor.o (symbol from plugin)
pio_sm_set_pindirs_with_mask                      .build/obj_crkbd_rev1_via/./lib/pico-sdk/src/rp2_common/hardware_pio/pio.o (symbol from plugin)
pio_sm_set_pins                                   .build/obj_crkbd_rev1_via/./lib/pico-sdk/src/rp2_common/hardware_pio/pio.o (symbol from plugin)
pio_sm_set_pins_with_mask                         /var/folders/tr/p8fgs8cd4pn1v7l1rzxd4yfr0000gn/T//ccLV2jr4.ltrans0.ltrans.o
                                                  .build/obj_crkbd_rev1_via/./lib/pico-sdk/src/rp2_common/hardware_pio/pio.o (symbol from plugin)
                                                  .build/obj_crkbd_rev1_via/serial_vendor.a(serial_vendor.o)
pio_sm_unclaim                                    .build/obj_crkbd_rev1_via/./lib/pico-sdk/src/rp2_common/hardware_pio/pio.o (symbol from plugin)
platform.c.3432fd23                               /var/folders/tr/p8fgs8cd4pn1v7l1rzxd4yfr0000gn/T//ccgyOZ3Gdebugobj
                                                  /var/folders/tr/p8fgs8cd4pn1v7l1rzxd4yfr0000gn/T//ccLV2jr4.ltrans0.ltrans.o
platform_setup                                    .build/obj_crkbd_rev1_via/platforms/chibios/platform.o (symbol from plugin)
                                                  .build/obj_crkbd_rev1_via/quantum/main.o (symbol from plugin)
pll.c.ec5f1a47                                    /var/folders/tr/p8fgs8cd4pn1v7l1rzxd4yfr0000gn/T//ccgyOZ3Gdebugobj
                                                  /var/folders/tr/p8fgs8cd4pn1v7l1rzxd4yfr0000gn/T//ccLV2jr4.ltrans0.ltrans.o
pll_deinit                                        .build/obj_crkbd_rev1_via/./lib/pico-sdk/src/rp2_common/hardware_pll/pll.o (symbol from plugin)
pll_init                                          .build/obj_crkbd_rev1_via/./lib/pico-sdk/src/rp2_common/hardware_pll/pll.o (symbol from plugin)
                                                  .build/obj_crkbd_rev1_via/./lib/pico-sdk/src/rp2_common/hardware_clocks/clocks.o (symbol from plugin)
port_init                                         .build/obj_crkbd_rev1_via/lib/chibios/os/common/ports/ARMv6-M-RP2/chcore.o (symbol from plugin)
                                                  .build/obj_crkbd_rev1_via/lib/chibios/os/rt/src/chinstances.o (symbol from plugin)
port_local_halt                                   .build/obj_crkbd_rev1_via/lib/chibios/os/common/ports/ARMv6-M-RP2/chcore.o (symbol from plugin)
post_process_record_kb                            .build/obj_crkbd_rev1_via/quantum/quantum.o (symbol from plugin)
post_process_record_quantum                       .build/obj_crkbd_rev1_via/quantum/quantum.o (symbol from plugin)
post_process_record_user                          .build/obj_crkbd_rev1_via/quantum/quantum.o (symbol from plugin)
pre_process_record_kb                             .build/obj_crkbd_rev1_via/quantum/quantum.o (symbol from plugin)
pre_process_record_quantum                        .build/obj_crkbd_rev1_via/quantum/quantum.o (symbol from plugin)
                                                  .build/obj_crkbd_rev1_via/quantum/action.o (symbol from plugin)
pre_process_record_user                           .build/obj_crkbd_rev1_via/quantum/quantum.o (symbol from plugin)
preprocess_rgblight                               .build/obj_crkbd_rev1_via/quantum/rgblight/rgblight.o (symbol from plugin)
                                                  .build/obj_crkbd_rev1_via/quantum/quantum.o (symbol from plugin)
print.c.1f50cca6                                  /var/folders/tr/p8fgs8cd4pn1v7l1rzxd4yfr0000gn/T//ccgyOZ3Gdebugobj
                                                  /var/folders/tr/p8fgs8cd4pn1v7l1rzxd4yfr0000gn/T//ccLV2jr4.ltrans0.ltrans.o
print_set_sendchar                                .build/obj_crkbd_rev1_via/quantum/logging/print.o (symbol from plugin)
                                                  .build/obj_crkbd_rev1_via/quantum/keyboard.o (symbol from plugin)
printf                                            .build/obj_crkbd_rev1_via/printf.o (symbol from plugin)
printf.c.1599cd78                                 /var/folders/tr/p8fgs8cd4pn1v7l1rzxd4yfr0000gn/T//ccgyOZ3Gdebugobj
                                                  /var/folders/tr/p8fgs8cd4pn1v7l1rzxd4yfr0000gn/T//ccLV2jr4.ltrans0.ltrans.o
process_action                                    .build/obj_crkbd_rev1_via/quantum/action.o (symbol from plugin)
process_action_kb                                 .build/obj_crkbd_rev1_via/quantum/quantum.o (symbol from plugin)
process_grave_esc                                 .build/obj_crkbd_rev1_via/quantum/process_keycode/process_grave_esc.o (symbol from plugin)
                                                  .build/obj_crkbd_rev1_via/quantum/quantum.o (symbol from plugin)
process_grave_esc.c.ff56e0b0                      /var/folders/tr/p8fgs8cd4pn1v7l1rzxd4yfr0000gn/T//ccgyOZ3Gdebugobj
                                                  /var/folders/tr/p8fgs8cd4pn1v7l1rzxd4yfr0000gn/T//ccLV2jr4.ltrans0.ltrans.o
process_magic                                     .build/obj_crkbd_rev1_via/quantum/process_keycode/process_magic.o (symbol from plugin)
                                                  .build/obj_crkbd_rev1_via/quantum/quantum.o (symbol from plugin)
process_magic.c.39c9a103                          /var/folders/tr/p8fgs8cd4pn1v7l1rzxd4yfr0000gn/T//ccgyOZ3Gdebugobj
                                                  /var/folders/tr/p8fgs8cd4pn1v7l1rzxd4yfr0000gn/T//ccLV2jr4.ltrans0.ltrans.o
process_record                                    .build/obj_crkbd_rev1_via/quantum/action.o (symbol from plugin)
                                                  .build/obj_crkbd_rev1_via/quantum/action_tapping.o (symbol from plugin)
process_record_handler                            .build/obj_crkbd_rev1_via/quantum/action.o (symbol from plugin)
process_record_kb                                 .build/obj_crkbd_rev1_via/keyboards/crkbd/crkbd.o (symbol from plugin)
process_record_nocache                            .build/obj_crkbd_rev1_via/quantum/action.o (symbol from plugin)
process_record_quantum                            .build/obj_crkbd_rev1_via/quantum/quantum.o (symbol from plugin)
process_record_tap_hint                           .build/obj_crkbd_rev1_via/quantum/action.o (symbol from plugin)
                                                  .build/obj_crkbd_rev1_via/quantum/action_tapping.o (symbol from plugin)
process_record_user                               .build/obj_crkbd_rev1_via/quantum/quantum.o (symbol from plugin)
                                                  .build/obj_crkbd_rev1_via/keyboards/crkbd/crkbd.o (symbol from plugin)
process_record_via                                .build/obj_crkbd_rev1_via/quantum/via.o (symbol from plugin)
                                                  .build/obj_crkbd_rev1_via/quantum/quantum.o (symbol from plugin)
process_rgb                                       .build/obj_crkbd_rev1_via/quantum/process_keycode/process_rgb.o (symbol from plugin)
                                                  .build/obj_crkbd_rev1_via/quantum/quantum.o (symbol from plugin)
process_rgb.c.dee51e7a                            /var/folders/tr/p8fgs8cd4pn1v7l1rzxd4yfr0000gn/T//ccgyOZ3Gdebugobj
                                                  /var/folders/tr/p8fgs8cd4pn1v7l1rzxd4yfr0000gn/T//ccLV2jr4.ltrans0.ltrans.o
process_space_cadet                               .build/obj_crkbd_rev1_via/quantum/process_keycode/process_space_cadet.o (symbol from plugin)
                                                  .build/obj_crkbd_rev1_via/quantum/quantum.o (symbol from plugin)
process_space_cadet.c.e3330eef                    /var/folders/tr/p8fgs8cd4pn1v7l1rzxd4yfr0000gn/T//ccgyOZ3Gdebugobj
                                                  /var/folders/tr/p8fgs8cd4pn1v7l1rzxd4yfr0000gn/T//ccLV2jr4.ltrans0.ltrans.o
process_tri_layer                                 .build/obj_crkbd_rev1_via/quantum/process_keycode/process_tri_layer.o (symbol from plugin)
                                                  .build/obj_crkbd_rev1_via/quantum/quantum.o (symbol from plugin)
process_tri_layer.c.a672c76f                      /var/folders/tr/p8fgs8cd4pn1v7l1rzxd4yfr0000gn/T//ccgyOZ3Gdebugobj
                                                  /var/folders/tr/p8fgs8cd4pn1v7l1rzxd4yfr0000gn/T//ccLV2jr4.ltrans0.ltrans.o
protocol_init                                     .build/obj_crkbd_rev1_via/quantum/main.o (symbol from plugin)
protocol_post_init                                .build/obj_crkbd_rev1_via/protocol/chibios/chibios.o (symbol from plugin)
                                                  .build/obj_crkbd_rev1_via/quantum/main.o (symbol from plugin)
protocol_post_task                                .build/obj_crkbd_rev1_via/protocol/chibios/chibios.o (symbol from plugin)
                                                  .build/obj_crkbd_rev1_via/quantum/main.o (symbol from plugin)
protocol_pre_init                                 .build/obj_crkbd_rev1_via/protocol/chibios/chibios.o (symbol from plugin)
                                                  .build/obj_crkbd_rev1_via/quantum/main.o (symbol from plugin)
protocol_pre_task                                 .build/obj_crkbd_rev1_via/protocol/chibios/chibios.o (symbol from plugin)
                                                  .build/obj_crkbd_rev1_via/quantum/main.o (symbol from plugin)
protocol_setup                                    .build/obj_crkbd_rev1_via/protocol/chibios/chibios.o (symbol from plugin)
                                                  .build/obj_crkbd_rev1_via/quantum/main.o (symbol from plugin)
protocol_task                                     .build/obj_crkbd_rev1_via/quantum/main.o (symbol from plugin)
putchar_                                          .build/obj_crkbd_rev1_via/quantum/logging/print.o (symbol from plugin)
                                                  .build/obj_crkbd_rev1_via/printf.o (symbol from plugin)
qmk_fnv_type_validation.c.b52fa589                /var/folders/tr/p8fgs8cd4pn1v7l1rzxd4yfr0000gn/T//ccgyOZ3Gdebugobj
qmkusbConfigureHookI                              .build/obj_crkbd_rev1_via/protocol/chibios/usb_driver.o (symbol from plugin)
                                                  .build/obj_crkbd_rev1_via/protocol/chibios/usb_main.o (symbol from plugin)
qmkusbDataReceived                                .build/obj_crkbd_rev1_via/protocol/chibios/usb_driver.o (symbol from plugin)
                                                  .build/obj_crkbd_rev1_via/protocol/chibios/usb_main.o (symbol from plugin)
qmkusbDataTransmitted                             .build/obj_crkbd_rev1_via/protocol/chibios/usb_driver.o (symbol from plugin)
                                                  .build/obj_crkbd_rev1_via/protocol/chibios/usb_main.o (symbol from plugin)
qmkusbInit                                        .build/obj_crkbd_rev1_via/protocol/chibios/usb_driver.o (symbol from plugin)
qmkusbInterruptTransmitted                        .build/obj_crkbd_rev1_via/protocol/chibios/usb_driver.o (symbol from plugin)
                                                  .build/obj_crkbd_rev1_via/protocol/chibios/usb_main.o (symbol from plugin)
qmkusbObjectInit                                  .build/obj_crkbd_rev1_via/protocol/chibios/usb_driver.o (symbol from plugin)
                                                  .build/obj_crkbd_rev1_via/protocol/chibios/usb_main.o (symbol from plugin)
qmkusbRequestsHook                                .build/obj_crkbd_rev1_via/protocol/chibios/usb_driver.o (symbol from plugin)
                                                  .build/obj_crkbd_rev1_via/protocol/chibios/usb_main.o (symbol from plugin)
qmkusbSOFHookI                                    .build/obj_crkbd_rev1_via/protocol/chibios/usb_driver.o (symbol from plugin)
                                                  .build/obj_crkbd_rev1_via/protocol/chibios/usb_main.o (symbol from plugin)
qmkusbStart                                       .build/obj_crkbd_rev1_via/protocol/chibios/usb_driver.o (symbol from plugin)
                                                  .build/obj_crkbd_rev1_via/protocol/chibios/usb_main.o (symbol from plugin)
qmkusbStop                                        .build/obj_crkbd_rev1_via/protocol/chibios/usb_driver.o (symbol from plugin)
qmkusbSuspendHookI                                .build/obj_crkbd_rev1_via/protocol/chibios/usb_driver.o (symbol from plugin)
                                                  .build/obj_crkbd_rev1_via/protocol/chibios/usb_main.o (symbol from plugin)
qmkusbWakeupHookI                                 .build/obj_crkbd_rev1_via/protocol/chibios/usb_driver.o (symbol from plugin)
                                                  .build/obj_crkbd_rev1_via/protocol/chibios/usb_main.o (symbol from plugin)
quantum.c.09e3c40c                                /var/folders/tr/p8fgs8cd4pn1v7l1rzxd4yfr0000gn/T//ccgyOZ3Gdebugobj
                                                  /var/folders/tr/p8fgs8cd4pn1v7l1rzxd4yfr0000gn/T//ccLV2jr4.ltrans1.ltrans.o
                                                  /var/folders/tr/p8fgs8cd4pn1v7l1rzxd4yfr0000gn/T//ccLV2jr4.ltrans0.ltrans.o
quantum_init                                      .build/obj_crkbd_rev1_via/quantum/keyboard.o (symbol from plugin)
quantum_task                                      .build/obj_crkbd_rev1_via/quantum/keyboard.o (symbol from plugin)
raise                                             /opt/homebrew/Cellar/arm-none-eabi-gcc@8/8.5.0_2/lib/arm-none-eabi-gcc/8/gcc/arm-none-eabi/8.5.0/../../../../../../arm-none-eabi/lib/thumb/v6-m/nofp/libg_nano.a(lib_a-signal.o)
                                                  /opt/homebrew/Cellar/arm-none-eabi-gcc@8/8.5.0_2/lib/arm-none-eabi-gcc/8/gcc/arm-none-eabi/8.5.0/../../../../../../arm-none-eabi/lib/thumb/v6-m/nofp/libg_nano.a(lib_a-abort.o)
rand                                              /opt/homebrew/Cellar/arm-none-eabi-gcc@8/8.5.0_2/lib/arm-none-eabi-gcc/8/gcc/arm-none-eabi/8.5.0/../../../../../../arm-none-eabi/lib/thumb/v6-m/nofp/libg_nano.a(lib_a-rand.o)
                                                  .build/obj_crkbd_rev1_via/quantum/send_string/send_string.o (symbol from plugin)
raw_hid_receive                                   .build/obj_crkbd_rev1_via/quantum/via.o (symbol from plugin)
raw_hid_send                                      .build/obj_crkbd_rev1_via/protocol/chibios/usb_main.o (symbol from plugin)
                                                  .build/obj_crkbd_rev1_via/quantum/via.o (symbol from plugin)
raw_hid_task                                      .build/obj_crkbd_rev1_via/protocol/chibios/usb_main.o (symbol from plugin)
                                                  .build/obj_crkbd_rev1_via/protocol/chibios/chibios.o (symbol from plugin)
raw_matrix                                        .build/obj_crkbd_rev1_via/quantum/matrix_common.o (symbol from plugin)
                                                  .build/obj_crkbd_rev1_via/quantum/matrix.o (symbol from plugin)
read_source_layers_cache                          .build/obj_crkbd_rev1_via/quantum/action_layer.o (symbol from plugin)
                                                  .build/obj_crkbd_rev1_via/quantum/quantum.o (symbol from plugin)
read_source_layers_cache_impl                     .build/obj_crkbd_rev1_via/quantum/action_layer.o (symbol from plugin)
read_source_layers_cache_impl.constprop.136       /var/folders/tr/p8fgs8cd4pn1v7l1rzxd4yfr0000gn/T//ccLV2jr4.ltrans0.ltrans.o
                                                  /var/folders/tr/p8fgs8cd4pn1v7l1rzxd4yfr0000gn/T//ccLV2jr4.ltrans1.ltrans.o
register_code                                     .build/obj_crkbd_rev1_via/quantum/action.o (symbol from plugin)
                                                  .build/obj_crkbd_rev1_via/quantum/send_string/send_string.o (symbol from plugin)
                                                  .build/obj_crkbd_rev1_via/quantum/quantum.o (symbol from plugin)
register_code16                                   .build/obj_crkbd_rev1_via/quantum/quantum.o (symbol from plugin)
register_mods                                     .build/obj_crkbd_rev1_via/quantum/action.o (symbol from plugin)
                                                  .build/obj_crkbd_rev1_via/quantum/process_keycode/process_space_cadet.o (symbol from plugin)
                                                  .build/obj_crkbd_rev1_via/quantum/quantum.o (symbol from plugin)
register_mouse                                    .build/obj_crkbd_rev1_via/quantum/action.o (symbol from plugin)
register_weak_mods                                .build/obj_crkbd_rev1_via/quantum/action.o (symbol from plugin)
                                                  .build/obj_crkbd_rev1_via/quantum/quantum.o (symbol from plugin)
report.c.ee4666db                                 /var/folders/tr/p8fgs8cd4pn1v7l1rzxd4yfr0000gn/T//ccgyOZ3Gdebugobj
                                                  /var/folders/tr/p8fgs8cd4pn1v7l1rzxd4yfr0000gn/T//ccLV2jr4.ltrans0.ltrans.o
reset_keyboard                                    .build/obj_crkbd_rev1_via/quantum/quantum.o (symbol from plugin)
reset_oneshot_layer                               .build/obj_crkbd_rev1_via/quantum/action_util.o (symbol from plugin)
reset_space_cadet                                 .build/obj_crkbd_rev1_via/quantum/process_keycode/process_space_cadet.o (symbol from plugin)
restart_usb_driver                                .build/obj_crkbd_rev1_via/protocol/chibios/usb_main.o (symbol from plugin)
                                                  .build/obj_crkbd_rev1_via/protocol/chibios/chibios.o (symbol from plugin)
rgblight.c.cc6306ed                               /var/folders/tr/p8fgs8cd4pn1v7l1rzxd4yfr0000gn/T//ccgyOZ3Gdebugobj
                                                  /var/folders/tr/p8fgs8cd4pn1v7l1rzxd4yfr0000gn/T//ccLV2jr4.ltrans0.ltrans.o
rgblight_check_config                             .build/obj_crkbd_rev1_via/quantum/rgblight/rgblight.o (symbol from plugin)
rgblight_clear_change_flags                       .build/obj_crkbd_rev1_via/quantum/rgblight/rgblight.o (symbol from plugin)
                                                  .build/obj_crkbd_rev1_via/quantum/split_common/transactions.o (symbol from plugin)
rgblight_config                                   .build/obj_crkbd_rev1_via/quantum/rgblight/rgblight.o (symbol from plugin)
rgblight_decrease                                 .build/obj_crkbd_rev1_via/quantum/rgblight/rgblight.o (symbol from plugin)
rgblight_decrease_hue                             .build/obj_crkbd_rev1_via/quantum/rgblight/rgblight.o (symbol from plugin)
                                                  .build/obj_crkbd_rev1_via/quantum/process_keycode/process_rgb.o (symbol from plugin)
rgblight_decrease_hue_helper                      .build/obj_crkbd_rev1_via/quantum/rgblight/rgblight.o (symbol from plugin)
rgblight_decrease_hue_noeeprom                    .build/obj_crkbd_rev1_via/quantum/rgblight/rgblight.o (symbol from plugin)
rgblight_decrease_sat                             .build/obj_crkbd_rev1_via/quantum/rgblight/rgblight.o (symbol from plugin)
                                                  .build/obj_crkbd_rev1_via/quantum/process_keycode/process_rgb.o (symbol from plugin)
rgblight_decrease_sat_helper                      .build/obj_crkbd_rev1_via/quantum/rgblight/rgblight.o (symbol from plugin)
rgblight_decrease_sat_noeeprom                    .build/obj_crkbd_rev1_via/quantum/rgblight/rgblight.o (symbol from plugin)
rgblight_decrease_speed                           .build/obj_crkbd_rev1_via/quantum/rgblight/rgblight.o (symbol from plugin)
                                                  .build/obj_crkbd_rev1_via/quantum/process_keycode/process_rgb.o (symbol from plugin)
rgblight_decrease_speed_helper                    .build/obj_crkbd_rev1_via/quantum/rgblight/rgblight.o (symbol from plugin)
rgblight_decrease_speed_noeeprom                  .build/obj_crkbd_rev1_via/quantum/rgblight/rgblight.o (symbol from plugin)
rgblight_decrease_val                             .build/obj_crkbd_rev1_via/quantum/rgblight/rgblight.o (symbol from plugin)
                                                  .build/obj_crkbd_rev1_via/quantum/process_keycode/process_rgb.o (symbol from plugin)
rgblight_decrease_val_helper                      .build/obj_crkbd_rev1_via/quantum/rgblight/rgblight.o (symbol from plugin)
rgblight_decrease_val_noeeprom                    .build/obj_crkbd_rev1_via/quantum/rgblight/rgblight.o (symbol from plugin)
rgblight_disable                                  .build/obj_crkbd_rev1_via/quantum/rgblight/rgblight.o (symbol from plugin)
rgblight_disable_noeeprom                         .build/obj_crkbd_rev1_via/quantum/rgblight/rgblight.o (symbol from plugin)
                                                  .build/obj_crkbd_rev1_via/quantum/via.o (symbol from plugin)
rgblight_driver                                   .build/obj_crkbd_rev1_via/quantum/rgblight/rgblight_drivers.o (symbol from plugin)
                                                  .build/obj_crkbd_rev1_via/quantum/rgblight/rgblight.o (symbol from plugin)
rgblight_drivers.c.c5619cb9                       /var/folders/tr/p8fgs8cd4pn1v7l1rzxd4yfr0000gn/T//ccgyOZ3Gdebugobj
                                                  /var/folders/tr/p8fgs8cd4pn1v7l1rzxd4yfr0000gn/T//ccLV2jr4.ltrans0.ltrans.o
rgblight_effect_breathe_table                     .build/obj_crkbd_rev1_via/quantum/rgblight/rgblight.o (symbol from plugin)
rgblight_effect_breathing                         .build/obj_crkbd_rev1_via/quantum/rgblight/rgblight.o (symbol from plugin)
rgblight_effect_christmas                         .build/obj_crkbd_rev1_via/quantum/rgblight/rgblight.o (symbol from plugin)
rgblight_effect_knight                            .build/obj_crkbd_rev1_via/quantum/rgblight/rgblight.o (symbol from plugin)
rgblight_effect_rainbow_mood                      .build/obj_crkbd_rev1_via/quantum/rgblight/rgblight.o (symbol from plugin)
rgblight_effect_rainbow_swirl                     .build/obj_crkbd_rev1_via/quantum/rgblight/rgblight.o (symbol from plugin)
rgblight_effect_snake                             .build/obj_crkbd_rev1_via/quantum/rgblight/rgblight.o (symbol from plugin)
rgblight_enable                                   .build/obj_crkbd_rev1_via/quantum/rgblight/rgblight.o (symbol from plugin)
rgblight_enable_noeeprom                          .build/obj_crkbd_rev1_via/quantum/rgblight/rgblight.o (symbol from plugin)
                                                  .build/obj_crkbd_rev1_via/quantum/via.o (symbol from plugin)
rgblight_enabled_noeeprom                         .build/obj_crkbd_rev1_via/quantum/rgblight/rgblight.o (symbol from plugin)
rgblight_get_change_flags                         .build/obj_crkbd_rev1_via/quantum/rgblight/rgblight.o (symbol from plugin)
rgblight_get_hsv                                  .build/obj_crkbd_rev1_via/quantum/rgblight/rgblight.o (symbol from plugin)
rgblight_get_hue                                  .build/obj_crkbd_rev1_via/quantum/rgblight/rgblight.o (symbol from plugin)
                                                  .build/obj_crkbd_rev1_via/quantum/via.o (symbol from plugin)
rgblight_get_mode                                 .build/obj_crkbd_rev1_via/quantum/rgblight/rgblight.o (symbol from plugin)
                                                  .build/obj_crkbd_rev1_via/quantum/via.o (symbol from plugin)
                                                  .build/obj_crkbd_rev1_via/quantum/process_keycode/process_rgb.o (symbol from plugin)
rgblight_get_sat                                  .build/obj_crkbd_rev1_via/quantum/rgblight/rgblight.o (symbol from plugin)
                                                  .build/obj_crkbd_rev1_via/quantum/via.o (symbol from plugin)
rgblight_get_speed                                .build/obj_crkbd_rev1_via/quantum/rgblight/rgblight.o (symbol from plugin)
                                                  .build/obj_crkbd_rev1_via/quantum/via.o (symbol from plugin)
rgblight_get_syncinfo                             .build/obj_crkbd_rev1_via/quantum/rgblight/rgblight.o (symbol from plugin)
                                                  .build/obj_crkbd_rev1_via/quantum/split_common/transactions.o (symbol from plugin)
rgblight_get_val                                  .build/obj_crkbd_rev1_via/quantum/rgblight/rgblight.o (symbol from plugin)
                                                  .build/obj_crkbd_rev1_via/quantum/via.o (symbol from plugin)
rgblight_hsv_to_rgb                               .build/obj_crkbd_rev1_via/quantum/rgblight/rgblight.o (symbol from plugin)
rgblight_increase                                 .build/obj_crkbd_rev1_via/quantum/rgblight/rgblight.o (symbol from plugin)
rgblight_increase_hue                             .build/obj_crkbd_rev1_via/quantum/rgblight/rgblight.o (symbol from plugin)
                                                  .build/obj_crkbd_rev1_via/quantum/process_keycode/process_rgb.o (symbol from plugin)
rgblight_increase_hue_helper                      .build/obj_crkbd_rev1_via/quantum/rgblight/rgblight.o (symbol from plugin)
rgblight_increase_hue_noeeprom                    .build/obj_crkbd_rev1_via/quantum/rgblight/rgblight.o (symbol from plugin)
rgblight_increase_sat                             .build/obj_crkbd_rev1_via/quantum/rgblight/rgblight.o (symbol from plugin)
                                                  .build/obj_crkbd_rev1_via/quantum/process_keycode/process_rgb.o (symbol from plugin)
rgblight_increase_sat_helper                      .build/obj_crkbd_rev1_via/quantum/rgblight/rgblight.o (symbol from plugin)
rgblight_increase_sat_noeeprom                    .build/obj_crkbd_rev1_via/quantum/rgblight/rgblight.o (symbol from plugin)
rgblight_increase_speed                           .build/obj_crkbd_rev1_via/quantum/rgblight/rgblight.o (symbol from plugin)
                                                  .build/obj_crkbd_rev1_via/quantum/process_keycode/process_rgb.o (symbol from plugin)
rgblight_increase_speed_helper                    .build/obj_crkbd_rev1_via/quantum/rgblight/rgblight.o (symbol from plugin)
rgblight_increase_speed_noeeprom                  .build/obj_crkbd_rev1_via/quantum/rgblight/rgblight.o (symbol from plugin)
rgblight_increase_val                             .build/obj_crkbd_rev1_via/quantum/rgblight/rgblight.o (symbol from plugin)
                                                  .build/obj_crkbd_rev1_via/quantum/process_keycode/process_rgb.o (symbol from plugin)
rgblight_increase_val_helper                      .build/obj_crkbd_rev1_via/quantum/rgblight/rgblight.o (symbol from plugin)
rgblight_increase_val_noeeprom                    .build/obj_crkbd_rev1_via/quantum/rgblight/rgblight.o (symbol from plugin)
rgblight_init                                     .build/obj_crkbd_rev1_via/quantum/rgblight/rgblight.o (symbol from plugin)
                                                  .build/obj_crkbd_rev1_via/quantum/keyboard.o (symbol from plugin)
rgblight_is_enabled                               .build/obj_crkbd_rev1_via/quantum/rgblight/rgblight.o (symbol from plugin)
                                                  .build/obj_crkbd_rev1_via/quantum/via.o (symbol from plugin)
rgblight_mode                                     .build/obj_crkbd_rev1_via/quantum/rgblight/rgblight.o (symbol from plugin)
                                                  .build/obj_crkbd_rev1_via/quantum/process_keycode/process_rgb.o (symbol from plugin)
rgblight_mode_eeprom_helper                       .build/obj_crkbd_rev1_via/quantum/rgblight/rgblight.o (symbol from plugin)
rgblight_mode_noeeprom                            .build/obj_crkbd_rev1_via/quantum/rgblight/rgblight.o (symbol from plugin)
                                                  .build/obj_crkbd_rev1_via/quantum/via.o (symbol from plugin)
rgblight_ranges                                   .build/obj_crkbd_rev1_via/quantum/rgblight/rgblight.o (symbol from plugin)
rgblight_read_qword                               .build/obj_crkbd_rev1_via/quantum/rgblight/rgblight.o (symbol from plugin)
rgblight_reload_from_eeprom                       .build/obj_crkbd_rev1_via/quantum/rgblight/rgblight.o (symbol from plugin)
rgblight_set                                      .build/obj_crkbd_rev1_via/quantum/rgblight/rgblight.o (symbol from plugin)
rgblight_set_clipping_range                       .build/obj_crkbd_rev1_via/quantum/rgblight/rgblight.o (symbol from plugin)
                                                  .build/obj_crkbd_rev1_via/quantum/split_common/split_util.o (symbol from plugin)
rgblight_set_effect_range                         .build/obj_crkbd_rev1_via/quantum/rgblight/rgblight.o (symbol from plugin)
rgblight_set_speed                                .build/obj_crkbd_rev1_via/quantum/rgblight/rgblight.o (symbol from plugin)
rgblight_set_speed_eeprom_helper                  .build/obj_crkbd_rev1_via/quantum/rgblight/rgblight.o (symbol from plugin)
rgblight_set_speed_noeeprom                       .build/obj_crkbd_rev1_via/quantum/rgblight/rgblight.o (symbol from plugin)
                                                  .build/obj_crkbd_rev1_via/quantum/via.o (symbol from plugin)
rgblight_sethsv                                   .build/obj_crkbd_rev1_via/quantum/rgblight/rgblight.o (symbol from plugin)
rgblight_sethsv_at                                .build/obj_crkbd_rev1_via/quantum/rgblight/rgblight.o (symbol from plugin)
rgblight_sethsv_eeprom_helper                     .build/obj_crkbd_rev1_via/quantum/rgblight/rgblight.o (symbol from plugin)
rgblight_sethsv_noeeprom                          .build/obj_crkbd_rev1_via/quantum/rgblight/rgblight.o (symbol from plugin)
                                                  .build/obj_crkbd_rev1_via/quantum/via.o (symbol from plugin)
rgblight_sethsv_noeeprom_old                      .build/obj_crkbd_rev1_via/quantum/rgblight/rgblight.o (symbol from plugin)
rgblight_sethsv_range                             .build/obj_crkbd_rev1_via/quantum/rgblight/rgblight.o (symbol from plugin)
rgblight_setrgb                                   .build/obj_crkbd_rev1_via/quantum/rgblight/rgblight.o (symbol from plugin)
rgblight_setrgb_at                                .build/obj_crkbd_rev1_via/quantum/rgblight/rgblight.o (symbol from plugin)
rgblight_setrgb_range                             .build/obj_crkbd_rev1_via/quantum/rgblight/rgblight.o (symbol from plugin)
rgblight_show_solid_color                         .build/obj_crkbd_rev1_via/quantum/rgblight/rgblight.o (symbol from plugin)
rgblight_status                                   .build/obj_crkbd_rev1_via/quantum/rgblight/rgblight.o (symbol from plugin)
rgblight_step                                     .build/obj_crkbd_rev1_via/quantum/rgblight/rgblight.o (symbol from plugin)
                                                  .build/obj_crkbd_rev1_via/quantum/process_keycode/process_rgb.o (symbol from plugin)
rgblight_step_helper                              .build/obj_crkbd_rev1_via/quantum/rgblight/rgblight.o (symbol from plugin)
rgblight_step_noeeprom                            .build/obj_crkbd_rev1_via/quantum/rgblight/rgblight.o (symbol from plugin)
rgblight_step_reverse                             .build/obj_crkbd_rev1_via/quantum/rgblight/rgblight.o (symbol from plugin)
                                                  .build/obj_crkbd_rev1_via/quantum/process_keycode/process_rgb.o (symbol from plugin)
rgblight_step_reverse_helper                      .build/obj_crkbd_rev1_via/quantum/rgblight/rgblight.o (symbol from plugin)
rgblight_step_reverse_noeeprom                    .build/obj_crkbd_rev1_via/quantum/rgblight/rgblight.o (symbol from plugin)
rgblight_task                                     .build/obj_crkbd_rev1_via/quantum/rgblight/rgblight.o (symbol from plugin)
                                                  .build/obj_crkbd_rev1_via/quantum/keyboard.o (symbol from plugin)
rgblight_timer_disable                            .build/obj_crkbd_rev1_via/quantum/rgblight/rgblight.o (symbol from plugin)
rgblight_timer_enable                             .build/obj_crkbd_rev1_via/quantum/rgblight/rgblight.o (symbol from plugin)
rgblight_timer_init                               .build/obj_crkbd_rev1_via/quantum/rgblight/rgblight.o (symbol from plugin)
rgblight_timer_task                               .build/obj_crkbd_rev1_via/quantum/rgblight/rgblight.o (symbol from plugin)
rgblight_timer_toggle                             .build/obj_crkbd_rev1_via/quantum/rgblight/rgblight.o (symbol from plugin)
rgblight_toggle                                   .build/obj_crkbd_rev1_via/quantum/rgblight/rgblight.o (symbol from plugin)
                                                  .build/obj_crkbd_rev1_via/quantum/process_keycode/process_rgb.o (symbol from plugin)
rgblight_toggle_noeeprom                          .build/obj_crkbd_rev1_via/quantum/rgblight/rgblight.o (symbol from plugin)
                                                  .build/obj_crkbd_rev1_via/quantum/via.o (symbol from plugin)
rgblight_update_qword                             .build/obj_crkbd_rev1_via/quantum/rgblight/rgblight.o (symbol from plugin)
rgblight_update_sync                              .build/obj_crkbd_rev1_via/quantum/rgblight/rgblight.o (symbol from plugin)
                                                  .build/obj_crkbd_rev1_via/quantum/split_common/transactions.o (symbol from plugin)
rom_data_lookup                                   .build/obj_crkbd_rev1_via/./lib/pico-sdk/src/rp2_common/pico_bootrom/bootrom.o (symbol from plugin)
rom_func_lookup                                   .build/obj_crkbd_rev1_via/./lib/pico-sdk/src/rp2_common/pico_bootrom/bootrom.o (symbol from plugin)
                                                  .build/obj_crkbd_rev1_via/platforms/chibios/bootloaders/rp2040.o (symbol from plugin)
rom_funcs_lookup                                  .build/obj_crkbd_rev1_via/./lib/pico-sdk/src/rp2_common/pico_bootrom/bootrom.o (symbol from plugin)
rp2040.c.417124dc                                 /var/folders/tr/p8fgs8cd4pn1v7l1rzxd4yfr0000gn/T//ccgyOZ3Gdebugobj
                                                  /var/folders/tr/p8fgs8cd4pn1v7l1rzxd4yfr0000gn/T//ccLV2jr4.ltrans1.ltrans.o
                                                  /var/folders/tr/p8fgs8cd4pn1v7l1rzxd4yfr0000gn/T//ccLV2jr4.ltrans0.ltrans.o
rp_dma.c.dd7f98de                                 /var/folders/tr/p8fgs8cd4pn1v7l1rzxd4yfr0000gn/T//ccgyOZ3Gdebugobj
                                                  /var/folders/tr/p8fgs8cd4pn1v7l1rzxd4yfr0000gn/T//ccLV2jr4.ltrans0.ltrans.o
rp_isr.c.9e43395f                                 /var/folders/tr/p8fgs8cd4pn1v7l1rzxd4yfr0000gn/T//ccgyOZ3Gdebugobj
                                                  /var/folders/tr/p8fgs8cd4pn1v7l1rzxd4yfr0000gn/T//ccLV2jr4.ltrans0.ltrans.o
rx_thread                                         .build/obj_crkbd_rev1_via/serial_vendor.a(serial_vendor.o)
send_6kro_report                                  .build/obj_crkbd_rev1_via/quantum/action_util.o (symbol from plugin)
send_byte                                         .build/obj_crkbd_rev1_via/quantum/send_string/send_string.o (symbol from plugin)
send_char                                         .build/obj_crkbd_rev1_via/quantum/send_string/send_string.o (symbol from plugin)
send_char_with_delay                              .build/obj_crkbd_rev1_via/quantum/send_string/send_string.o (symbol from plugin)
send_digitizer                                    .build/obj_crkbd_rev1_via/protocol/chibios/usb_main.o (symbol from plugin)
                                                  .build/obj_crkbd_rev1_via/protocol/host.o (symbol from plugin)
send_dword                                        .build/obj_crkbd_rev1_via/quantum/send_string/send_string.o (symbol from plugin)
send_extra                                        .build/obj_crkbd_rev1_via/protocol/chibios/usb_main.o (symbol from plugin)
                                                  .build/obj_crkbd_rev1_via/protocol/chibios/chibios.o (symbol from plugin)
send_joystick                                     .build/obj_crkbd_rev1_via/protocol/chibios/usb_main.o (symbol from plugin)
                                                  .build/obj_crkbd_rev1_via/protocol/host.o (symbol from plugin)
send_keyboard                                     .build/obj_crkbd_rev1_via/protocol/chibios/usb_main.o (symbol from plugin)
                                                  .build/obj_crkbd_rev1_via/protocol/chibios/chibios.o (symbol from plugin)
send_keyboard_report                              .build/obj_crkbd_rev1_via/quantum/action_util.o (symbol from plugin)
                                                  .build/obj_crkbd_rev1_via/protocol/chibios/chibios.o (symbol from plugin)
                                                  .build/obj_crkbd_rev1_via/quantum/process_keycode/process_grave_esc.o (symbol from plugin)
                                                  .build/obj_crkbd_rev1_via/quantum/action.o (symbol from plugin)
send_mouse                                        .build/obj_crkbd_rev1_via/protocol/chibios/usb_main.o (symbol from plugin)
                                                  .build/obj_crkbd_rev1_via/protocol/chibios/chibios.o (symbol from plugin)
send_nibble                                       .build/obj_crkbd_rev1_via/quantum/send_string/send_string.o (symbol from plugin)
send_nkro                                         .build/obj_crkbd_rev1_via/protocol/chibios/usb_main.o (symbol from plugin)
                                                  .build/obj_crkbd_rev1_via/protocol/chibios/chibios.o (symbol from plugin)
send_nkro_report                                  .build/obj_crkbd_rev1_via/quantum/action_util.o (symbol from plugin)
send_programmable_button                          .build/obj_crkbd_rev1_via/protocol/chibios/usb_main.o (symbol from plugin)
                                                  .build/obj_crkbd_rev1_via/protocol/host.o (symbol from plugin)
send_report                                       .build/obj_crkbd_rev1_via/protocol/chibios/usb_main.o (symbol from plugin)
send_string                                       .build/obj_crkbd_rev1_via/quantum/send_string/send_string.o (symbol from plugin)
send_string.c.c89b1549                            /var/folders/tr/p8fgs8cd4pn1v7l1rzxd4yfr0000gn/T//ccgyOZ3Gdebugobj
                                                  /var/folders/tr/p8fgs8cd4pn1v7l1rzxd4yfr0000gn/T//ccLV2jr4.ltrans0.ltrans.o
send_string_with_delay                            .build/obj_crkbd_rev1_via/quantum/send_string/send_string.o (symbol from plugin)
                                                  .build/obj_crkbd_rev1_via/quantum/dynamic_keymap.o (symbol from plugin)
send_word                                         .build/obj_crkbd_rev1_via/quantum/send_string/send_string.o (symbol from plugin)
sendchar                                          .build/obj_crkbd_rev1_via/quantum/logging/sendchar.o (symbol from plugin)
                                                  .build/obj_crkbd_rev1_via/quantum/keyboard.o (symbol from plugin)
sendchar.c.3227fa68                               /var/folders/tr/p8fgs8cd4pn1v7l1rzxd4yfr0000gn/T//ccgyOZ3Gdebugobj
                                                  /var/folders/tr/p8fgs8cd4pn1v7l1rzxd4yfr0000gn/T//ccLV2jr4.ltrans0.ltrans.o
serial_transport_driver_clear                     .build/obj_crkbd_rev1_via/serial_vendor.a(serial_vendor.o)
                                                  .build/obj_crkbd_rev1_via/serial_protocol.a(serial_protocol.o)
serial_transport_driver_master_init               .build/obj_crkbd_rev1_via/serial_vendor.a(serial_vendor.o)
                                                  .build/obj_crkbd_rev1_via/serial_protocol.a(serial_protocol.o)
serial_transport_driver_slave_init                .build/obj_crkbd_rev1_via/serial_vendor.a(serial_vendor.o)
                                                  .build/obj_crkbd_rev1_via/serial_protocol.a(serial_protocol.o)
serial_transport_receive                          .build/obj_crkbd_rev1_via/serial_vendor.a(serial_vendor.o)
                                                  .build/obj_crkbd_rev1_via/serial_protocol.a(serial_protocol.o)
serial_transport_receive_blocking                 .build/obj_crkbd_rev1_via/serial_vendor.a(serial_vendor.o)
                                                  .build/obj_crkbd_rev1_via/serial_protocol.a(serial_protocol.o)
serial_transport_send                             .build/obj_crkbd_rev1_via/serial_vendor.a(serial_vendor.o)
                                                  .build/obj_crkbd_rev1_via/serial_protocol.a(serial_protocol.o)
set_activity_timestamps                           .build/obj_crkbd_rev1_via/quantum/keyboard.o (symbol from plugin)
set_mods                                          .build/obj_crkbd_rev1_via/quantum/action_util.o (symbol from plugin)
set_oneshot_layer                                 .build/obj_crkbd_rev1_via/quantum/action_util.o (symbol from plugin)
                                                  .build/obj_crkbd_rev1_via/quantum/action.o (symbol from plugin)
set_oneshot_locked_mods                           .build/obj_crkbd_rev1_via/quantum/action_util.o (symbol from plugin)
set_oneshot_mods                                  .build/obj_crkbd_rev1_via/quantum/action_util.o (symbol from plugin)
set_single_persistent_default_layer               .build/obj_crkbd_rev1_via/quantum/quantum.o (symbol from plugin)
set_split_host_keyboard_leds                      .build/obj_crkbd_rev1_via/protocol/host.o (symbol from plugin)
set_tri_layer_adjust_layer                        .build/obj_crkbd_rev1_via/quantum/tri_layer.o (symbol from plugin)
set_tri_layer_layers                              .build/obj_crkbd_rev1_via/quantum/tri_layer.o (symbol from plugin)
set_tri_layer_lower_layer                         .build/obj_crkbd_rev1_via/quantum/tri_layer.o (symbol from plugin)
set_tri_layer_upper_layer                         .build/obj_crkbd_rev1_via/quantum/tri_layer.o (symbol from plugin)
set_weak_mods                                     .build/obj_crkbd_rev1_via/quantum/action_util.o (symbol from plugin)
sethsv                                            .build/obj_crkbd_rev1_via/quantum/rgblight/rgblight.o (symbol from plugin)
sethsv_raw                                        .build/obj_crkbd_rev1_via/quantum/rgblight/rgblight.o (symbol from plugin)
setrgb                                            .build/obj_crkbd_rev1_via/quantum/rgblight/rgblight.o (symbol from plugin)
should_process_keypress                           .build/obj_crkbd_rev1_via/quantum/keyboard.o (symbol from plugin)
shutdown_kb                                       .build/obj_crkbd_rev1_via/quantum/quantum.o (symbol from plugin)
shutdown_quantum                                  .build/obj_crkbd_rev1_via/quantum/quantum.o (symbol from plugin)
shutdown_user                                     .build/obj_crkbd_rev1_via/quantum/quantum.o (symbol from plugin)
signal                                            /opt/homebrew/Cellar/arm-none-eabi-gcc@8/8.5.0_2/lib/arm-none-eabi-gcc/8/gcc/arm-none-eabi/8.5.0/../../../../../../arm-none-eabi/lib/thumb/v6-m/nofp/libg_nano.a(lib_a-signal.o)
snprintf                                          /var/folders/tr/p8fgs8cd4pn1v7l1rzxd4yfr0000gn/T//ccLV2jr4.ltrans0.ltrans.o
soft_reset_keyboard                               /var/folders/tr/p8fgs8cd4pn1v7l1rzxd4yfr0000gn/T//ccLV2jr4.ltrans1.ltrans.o
                                                  .build/obj_crkbd_rev1_via/quantum/quantum.o (symbol from plugin)
                                                  /var/folders/tr/p8fgs8cd4pn1v7l1rzxd4yfr0000gn/T//ccLV2jr4.ltrans0.ltrans.o
soft_serial_initiator_init                        .build/obj_crkbd_rev1_via/serial_protocol.a(serial_protocol.o)
                                                  /var/folders/tr/p8fgs8cd4pn1v7l1rzxd4yfr0000gn/T//ccLV2jr4.ltrans0.ltrans.o
                                                  .build/obj_crkbd_rev1_via/quantum/split_common/transport.o (symbol from plugin)
soft_serial_target_init                           .build/obj_crkbd_rev1_via/serial_protocol.a(serial_protocol.o)
                                                  /var/folders/tr/p8fgs8cd4pn1v7l1rzxd4yfr0000gn/T//ccLV2jr4.ltrans0.ltrans.o
                                                  .build/obj_crkbd_rev1_via/quantum/split_common/transport.o (symbol from plugin)
soft_serial_transaction                           .build/obj_crkbd_rev1_via/serial_protocol.a(serial_protocol.o)
                                                  /var/folders/tr/p8fgs8cd4pn1v7l1rzxd4yfr0000gn/T//ccLV2jr4.ltrans0.ltrans.o
                                                  .build/obj_crkbd_rev1_via/quantum/split_common/transport.o (symbol from plugin)
source_layers_cache                               /var/folders/tr/p8fgs8cd4pn1v7l1rzxd4yfr0000gn/T//ccLV2jr4.ltrans0.ltrans.o
                                                  .build/obj_crkbd_rev1_via/quantum/action_layer.o (symbol from plugin)
spiAcquireBus                                     .build/obj_crkbd_rev1_via/lib/chibios/os/hal/src/hal_spi.o (symbol from plugin)
spiExchange                                       .build/obj_crkbd_rev1_via/lib/chibios/os/hal/src/hal_spi.o (symbol from plugin)
spiIgnore                                         .build/obj_crkbd_rev1_via/lib/chibios/os/hal/src/hal_spi.o (symbol from plugin)
spiInit                                           .build/obj_crkbd_rev1_via/lib/chibios/os/hal/src/hal_spi.o (symbol from plugin)
                                                  .build/obj_crkbd_rev1_via/lib/chibios/os/hal/src/hal.o (symbol from plugin)
spiObjectInit                                     .build/obj_crkbd_rev1_via/lib/chibios/os/hal/src/hal_spi.o (symbol from plugin)
                                                  .build/obj_crkbd_rev1_via/lib/chibios/os/hal/ports/RP/LLD/SPIv1/hal_spi_lld.o (symbol from plugin)
spiReceive                                        .build/obj_crkbd_rev1_via/lib/chibios/os/hal/src/hal_spi.o (symbol from plugin)
spiReleaseBus                                     .build/obj_crkbd_rev1_via/lib/chibios/os/hal/src/hal_spi.o (symbol from plugin)
spiSelect                                         .build/obj_crkbd_rev1_via/lib/chibios/os/hal/src/hal_spi.o (symbol from plugin)
spiSend                                           .build/obj_crkbd_rev1_via/lib/chibios/os/hal/src/hal_spi.o (symbol from plugin)
spiStart                                          .build/obj_crkbd_rev1_via/lib/chibios/os/hal/src/hal_spi.o (symbol from plugin)
spiStartExchange                                  .build/obj_crkbd_rev1_via/lib/chibios/os/hal/src/hal_spi.o (symbol from plugin)
spiStartIgnore                                    .build/obj_crkbd_rev1_via/lib/chibios/os/hal/src/hal_spi.o (symbol from plugin)
spiStartReceive                                   .build/obj_crkbd_rev1_via/lib/chibios/os/hal/src/hal_spi.o (symbol from plugin)
spiStartSend                                      .build/obj_crkbd_rev1_via/lib/chibios/os/hal/src/hal_spi.o (symbol from plugin)
spiStop                                           .build/obj_crkbd_rev1_via/lib/chibios/os/hal/src/hal_spi.o (symbol from plugin)
spiUnselect                                       .build/obj_crkbd_rev1_via/lib/chibios/os/hal/src/hal_spi.o (symbol from plugin)
spi_lld_exchange                                  .build/obj_crkbd_rev1_via/lib/chibios/os/hal/ports/RP/LLD/SPIv1/hal_spi_lld.o (symbol from plugin)
                                                  .build/obj_crkbd_rev1_via/lib/chibios/os/hal/src/hal_spi.o (symbol from plugin)
spi_lld_ignore                                    .build/obj_crkbd_rev1_via/lib/chibios/os/hal/ports/RP/LLD/SPIv1/hal_spi_lld.o (symbol from plugin)
                                                  .build/obj_crkbd_rev1_via/lib/chibios/os/hal/src/hal_spi.o (symbol from plugin)
spi_lld_init                                      .build/obj_crkbd_rev1_via/lib/chibios/os/hal/ports/RP/LLD/SPIv1/hal_spi_lld.o (symbol from plugin)
                                                  .build/obj_crkbd_rev1_via/lib/chibios/os/hal/src/hal_spi.o (symbol from plugin)
spi_lld_polled_exchange                           .build/obj_crkbd_rev1_via/lib/chibios/os/hal/ports/RP/LLD/SPIv1/hal_spi_lld.o (symbol from plugin)
spi_lld_receive                                   .build/obj_crkbd_rev1_via/lib/chibios/os/hal/ports/RP/LLD/SPIv1/hal_spi_lld.o (symbol from plugin)
                                                  .build/obj_crkbd_rev1_via/lib/chibios/os/hal/src/hal_spi.o (symbol from plugin)
spi_lld_send                                      .build/obj_crkbd_rev1_via/lib/chibios/os/hal/ports/RP/LLD/SPIv1/hal_spi_lld.o (symbol from plugin)
                                                  .build/obj_crkbd_rev1_via/lib/chibios/os/hal/src/hal_spi.o (symbol from plugin)
spi_lld_start                                     .build/obj_crkbd_rev1_via/lib/chibios/os/hal/ports/RP/LLD/SPIv1/hal_spi_lld.o (symbol from plugin)
                                                  .build/obj_crkbd_rev1_via/lib/chibios/os/hal/src/hal_spi.o (symbol from plugin)
spi_lld_stop                                      .build/obj_crkbd_rev1_via/lib/chibios/os/hal/ports/RP/LLD/SPIv1/hal_spi_lld.o (symbol from plugin)
                                                  .build/obj_crkbd_rev1_via/lib/chibios/os/hal/src/hal_spi.o (symbol from plugin)
split_led_state                                   .build/obj_crkbd_rev1_via/protocol/host.o (symbol from plugin)
split_post_init                                   .build/obj_crkbd_rev1_via/quantum/split_common/split_util.o (symbol from plugin)
                                                  .build/obj_crkbd_rev1_via/quantum/keyboard.o (symbol from plugin)
split_pre_init                                    .build/obj_crkbd_rev1_via/quantum/split_common/split_util.o (symbol from plugin)
                                                  .build/obj_crkbd_rev1_via/quantum/keyboard.o (symbol from plugin)
split_shared_memory_autounlock_lock_helper        .build/obj_crkbd_rev1_via/platforms/synchronization_util.o (symbol from plugin)
split_shared_memory_autounlock_unlock_helper      .build/obj_crkbd_rev1_via/platforms/synchronization_util.o (symbol from plugin)
split_shared_memory_lock                          /var/folders/tr/p8fgs8cd4pn1v7l1rzxd4yfr0000gn/T//ccLV2jr4.ltrans0.ltrans.o
                                                  .build/obj_crkbd_rev1_via/platforms/chibios/synchronization_util.o (symbol from plugin)
                                                  .build/obj_crkbd_rev1_via/serial_protocol.a(serial_protocol.o)
                                                  .build/obj_crkbd_rev1_via/platforms/synchronization_util.o (symbol from plugin)
                                                  .build/obj_crkbd_rev1_via/quantum/split_common/transactions.o (symbol from plugin)
split_shared_memory_unlock                        /var/folders/tr/p8fgs8cd4pn1v7l1rzxd4yfr0000gn/T//ccLV2jr4.ltrans0.ltrans.o
                                                  .build/obj_crkbd_rev1_via/platforms/chibios/synchronization_util.o (symbol from plugin)
                                                  .build/obj_crkbd_rev1_via/serial_protocol.a(serial_protocol.o)
                                                  .build/obj_crkbd_rev1_via/platforms/synchronization_util.o (symbol from plugin)
                                                  .build/obj_crkbd_rev1_via/quantum/split_common/transactions.o (symbol from plugin)
split_shmem                                       /var/folders/tr/p8fgs8cd4pn1v7l1rzxd4yfr0000gn/T//ccLV2jr4.ltrans0.ltrans.o
                                                  .build/obj_crkbd_rev1_via/quantum/split_common/transport.o (symbol from plugin)
                                                  .build/obj_crkbd_rev1_via/serial_protocol.a(serial_protocol.o)
                                                  .build/obj_crkbd_rev1_via/quantum/split_common/transactions.o (symbol from plugin)
split_transaction_table                           /var/folders/tr/p8fgs8cd4pn1v7l1rzxd4yfr0000gn/T//ccLV2jr4.ltrans0.ltrans.o
                                                  .build/obj_crkbd_rev1_via/quantum/split_common/transactions.o (symbol from plugin)
                                                  .build/obj_crkbd_rev1_via/serial_protocol.a(serial_protocol.o)
                                                  .build/obj_crkbd_rev1_via/quantum/split_common/transport.o (symbol from plugin)
split_util.c.66312a19                             /var/folders/tr/p8fgs8cd4pn1v7l1rzxd4yfr0000gn/T//ccgyOZ3Gdebugobj
                                                  /var/folders/tr/p8fgs8cd4pn1v7l1rzxd4yfr0000gn/T//ccLV2jr4.ltrans0.ltrans.o
sprintf                                           /var/folders/tr/p8fgs8cd4pn1v7l1rzxd4yfr0000gn/T//ccLV2jr4.ltrans0.ltrans.o
srand                                             /opt/homebrew/Cellar/arm-none-eabi-gcc@8/8.5.0_2/lib/arm-none-eabi-gcc/8/gcc/arm-none-eabi/8.5.0/../../../../../../arm-none-eabi/lib/thumb/v6-m/nofp/libg_nano.a(lib_a-rand.o)
stBind                                            .build/obj_crkbd_rev1_via/lib/chibios/os/hal/src/hal_st.o (symbol from plugin)
stBindAlarmN                                      .build/obj_crkbd_rev1_via/lib/chibios/os/hal/src/hal_st.o (symbol from plugin)
                                                  .build/obj_crkbd_rev1_via/lib/chibios/os/common/ports/ARMv6-M-RP2/chcore.o (symbol from plugin)
stGetAlarm                                        .build/obj_crkbd_rev1_via/lib/chibios/os/hal/src/hal_st.o (symbol from plugin)
stGetAlarmN                                       .build/obj_crkbd_rev1_via/lib/chibios/os/hal/src/hal_st.o (symbol from plugin)
stGetCounter                                      .build/obj_crkbd_rev1_via/lib/chibios/os/hal/src/hal_st.o (symbol from plugin)
                                                  .build/obj_crkbd_rev1_via/lib/chibios-contrib/os/hal/ports/RP/LLD/I2Cv1/hal_i2c_lld.o (symbol from plugin)
                                                  .build/obj_crkbd_rev1_via/lib/chibios/os/rt/src/chthreads.o (symbol from plugin)
                                                  .build/obj_crkbd_rev1_via/lib/chibios/os/rt/src/chinstances.o (symbol from plugin)
                                                  .build/obj_crkbd_rev1_via/lib/chibios/os/rt/src/chvt.o (symbol from plugin)
                                                  .build/obj_crkbd_rev1_via/platforms/chibios/timer.o (symbol from plugin)
stInit                                            .build/obj_crkbd_rev1_via/lib/chibios/os/hal/src/hal_st.o (symbol from plugin)
                                                  .build/obj_crkbd_rev1_via/lib/chibios/os/hal/src/hal.o (symbol from plugin)
stIsAlarmActive                                   .build/obj_crkbd_rev1_via/lib/chibios/os/hal/src/hal_st.o (symbol from plugin)
stIsAlarmActiveN                                  .build/obj_crkbd_rev1_via/lib/chibios/os/hal/src/hal_st.o (symbol from plugin)
stSetAlarm                                        .build/obj_crkbd_rev1_via/lib/chibios/os/hal/src/hal_st.o (symbol from plugin)
stSetAlarmN                                       .build/obj_crkbd_rev1_via/lib/chibios/os/hal/src/hal_st.o (symbol from plugin)
                                                  .build/obj_crkbd_rev1_via/lib/chibios/os/rt/src/chvt.o (symbol from plugin)
stSetCallback                                     .build/obj_crkbd_rev1_via/lib/chibios/os/hal/src/hal_st.o (symbol from plugin)
stStartAlarm                                      .build/obj_crkbd_rev1_via/lib/chibios/os/hal/src/hal_st.o (symbol from plugin)
stStartAlarmN                                     .build/obj_crkbd_rev1_via/lib/chibios/os/hal/src/hal_st.o (symbol from plugin)
                                                  .build/obj_crkbd_rev1_via/lib/chibios/os/rt/src/chvt.o (symbol from plugin)
stStopAlarm                                       .build/obj_crkbd_rev1_via/lib/chibios/os/hal/src/hal_st.o (symbol from plugin)
stStopAlarmN                                      .build/obj_crkbd_rev1_via/lib/chibios/os/hal/src/hal_st.o (symbol from plugin)
                                                  .build/obj_crkbd_rev1_via/lib/chibios/os/rt/src/chvt.o (symbol from plugin)
st_callbacks                                      .build/obj_crkbd_rev1_via/lib/chibios/os/hal/src/hal_st.o (symbol from plugin)
                                                  .build/obj_crkbd_rev1_via/lib/chibios/os/hal/ports/RP/LLD/TIMERv1/hal_st_lld.o (symbol from plugin)
st_lld_bind                                       .build/obj_crkbd_rev1_via/lib/chibios/os/hal/ports/RP/LLD/TIMERv1/hal_st_lld.o (symbol from plugin)
                                                  .build/obj_crkbd_rev1_via/lib/chibios/os/hal/src/hal_st.o (symbol from plugin)
st_lld_bind_alarm_n                               .build/obj_crkbd_rev1_via/lib/chibios/os/hal/ports/RP/LLD/TIMERv1/hal_st_lld.o (symbol from plugin)
                                                  .build/obj_crkbd_rev1_via/lib/chibios/os/hal/src/hal_st.o (symbol from plugin)
st_lld_init                                       .build/obj_crkbd_rev1_via/lib/chibios/os/hal/ports/RP/LLD/TIMERv1/hal_st_lld.o (symbol from plugin)
                                                  .build/obj_crkbd_rev1_via/lib/chibios/os/hal/src/hal_st.o (symbol from plugin)
stage2_bootloaders.c.757615ea                     /var/folders/tr/p8fgs8cd4pn1v7l1rzxd4yfr0000gn/T//ccgyOZ3Gdebugobj
                                                  /var/folders/tr/p8fgs8cd4pn1v7l1rzxd4yfr0000gn/T//ccLV2jr4.ltrans0.ltrans.o
store_or_get_action                               .build/obj_crkbd_rev1_via/quantum/action_layer.o (symbol from plugin)
                                                  .build/obj_crkbd_rev1_via/quantum/action.o (symbol from plugin)
strlen                                            /opt/homebrew/Cellar/arm-none-eabi-gcc@8/8.5.0_2/lib/arm-none-eabi-gcc/8/gcc/arm-none-eabi/8.5.0/../../../../../../arm-none-eabi/lib/thumb/v6-m/nofp/libg_nano.a(lib_a-strlen-stub.o)
                                                  /var/folders/tr/p8fgs8cd4pn1v7l1rzxd4yfr0000gn/T//ccLV2jr4.ltrans0.ltrans.o
suspend.c.676be922                                /var/folders/tr/p8fgs8cd4pn1v7l1rzxd4yfr0000gn/T//ccgyOZ3Gdebugobj
                                                  /var/folders/tr/p8fgs8cd4pn1v7l1rzxd4yfr0000gn/T//ccLV2jr4.ltrans0.ltrans.o
suspend.c.6fedb29d                                /var/folders/tr/p8fgs8cd4pn1v7l1rzxd4yfr0000gn/T//ccgyOZ3Gdebugobj
                                                  /var/folders/tr/p8fgs8cd4pn1v7l1rzxd4yfr0000gn/T//ccLV2jr4.ltrans0.ltrans.o
suspend_power_down                                .build/obj_crkbd_rev1_via/platforms/chibios/suspend.o (symbol from plugin)
                                                  .build/obj_crkbd_rev1_via/protocol/chibios/chibios.o (symbol from plugin)
suspend_power_down_kb                             .build/obj_crkbd_rev1_via/platforms/suspend.o (symbol from plugin)
                                                  .build/obj_crkbd_rev1_via/quantum/quantum.o (symbol from plugin)
suspend_power_down_quantum                        .build/obj_crkbd_rev1_via/quantum/quantum.o (symbol from plugin)
                                                  .build/obj_crkbd_rev1_via/platforms/chibios/suspend.o (symbol from plugin)
suspend_power_down_user                           .build/obj_crkbd_rev1_via/platforms/suspend.o (symbol from plugin)
suspend_wakeup_condition                          .build/obj_crkbd_rev1_via/platforms/suspend.o (symbol from plugin)
                                                  .build/obj_crkbd_rev1_via/protocol/chibios/chibios.o (symbol from plugin)
suspend_wakeup_init                               .build/obj_crkbd_rev1_via/platforms/chibios/suspend.o (symbol from plugin)
                                                  .build/obj_crkbd_rev1_via/protocol/chibios/usb_main.o (symbol from plugin)
suspend_wakeup_init_kb                            .build/obj_crkbd_rev1_via/platforms/suspend.o (symbol from plugin)
                                                  .build/obj_crkbd_rev1_via/quantum/quantum.o (symbol from plugin)
suspend_wakeup_init_quantum                       .build/obj_crkbd_rev1_via/quantum/quantum.o (symbol from plugin)
                                                  .build/obj_crkbd_rev1_via/platforms/chibios/suspend.o (symbol from plugin)
suspend_wakeup_init_user                          .build/obj_crkbd_rev1_via/platforms/suspend.o (symbol from plugin)
switch_events                                     .build/obj_crkbd_rev1_via/quantum/keyboard.o (symbol from plugin)
sym_defer_g.c.3b371384                            /var/folders/tr/p8fgs8cd4pn1v7l1rzxd4yfr0000gn/T//ccgyOZ3Gdebugobj
                                                  /var/folders/tr/p8fgs8cd4pn1v7l1rzxd4yfr0000gn/T//ccLV2jr4.ltrans0.ltrans.o
sync_timer.c.d384380c                             /var/folders/tr/p8fgs8cd4pn1v7l1rzxd4yfr0000gn/T//ccgyOZ3Gdebugobj
                                                  /var/folders/tr/p8fgs8cd4pn1v7l1rzxd4yfr0000gn/T//ccLV2jr4.ltrans0.ltrans.o
sync_timer_elapsed                                .build/obj_crkbd_rev1_via/quantum/sync_timer.o (symbol from plugin)
sync_timer_elapsed32                              .build/obj_crkbd_rev1_via/quantum/sync_timer.o (symbol from plugin)
                                                  .build/obj_crkbd_rev1_via/quantum/keyboard.o (symbol from plugin)
sync_timer_init                                   .build/obj_crkbd_rev1_via/quantum/sync_timer.o (symbol from plugin)
                                                  .build/obj_crkbd_rev1_via/quantum/keyboard.o (symbol from plugin)
sync_timer_ms                                     .build/obj_crkbd_rev1_via/quantum/sync_timer.o (symbol from plugin)
sync_timer_read                                   .build/obj_crkbd_rev1_via/quantum/sync_timer.o (symbol from plugin)
                                                  .build/obj_crkbd_rev1_via/quantum/rgblight/rgblight.o (symbol from plugin)
sync_timer_read32                                 .build/obj_crkbd_rev1_via/quantum/sync_timer.o (symbol from plugin)
                                                  .build/obj_crkbd_rev1_via/quantum/split_common/transactions.o (symbol from plugin)
                                                  .build/obj_crkbd_rev1_via/quantum/keyboard.o (symbol from plugin)
sync_timer_update                                 .build/obj_crkbd_rev1_via/quantum/sync_timer.o (symbol from plugin)
                                                  .build/obj_crkbd_rev1_via/quantum/split_common/transactions.o (symbol from plugin)
synchronization_util.c.4b46d0cf                   /var/folders/tr/p8fgs8cd4pn1v7l1rzxd4yfr0000gn/T//ccgyOZ3Gdebugobj
                                                  /var/folders/tr/p8fgs8cd4pn1v7l1rzxd4yfr0000gn/T//ccLV2jr4.ltrans0.ltrans.o
synchronization_util.c.bcbcb081                   /var/folders/tr/p8fgs8cd4pn1v7l1rzxd4yfr0000gn/T//ccgyOZ3Gdebugobj
syscall_fallbacks.c.4b9d532c                      /var/folders/tr/p8fgs8cd4pn1v7l1rzxd4yfr0000gn/T//ccgyOZ3Gdebugobj
                                                  /var/folders/tr/p8fgs8cd4pn1v7l1rzxd4yfr0000gn/T//ccLV2jr4.ltrans1.ltrans.o
                                                  /var/folders/tr/p8fgs8cd4pn1v7l1rzxd4yfr0000gn/T//ccLV2jr4.ltrans0.ltrans.o
syscalls.c.6805d105                               /var/folders/tr/p8fgs8cd4pn1v7l1rzxd4yfr0000gn/T//ccgyOZ3Gdebugobj
                                                  /var/folders/tr/p8fgs8cd4pn1v7l1rzxd4yfr0000gn/T//ccLV2jr4.ltrans0.ltrans.o
tap_code                                          .build/obj_crkbd_rev1_via/quantum/action.o (symbol from plugin)
                                                  .build/obj_crkbd_rev1_via/quantum/process_keycode/process_space_cadet.o (symbol from plugin)
                                                  .build/obj_crkbd_rev1_via/quantum/send_string/send_string.o (symbol from plugin)
tap_code16                                        .build/obj_crkbd_rev1_via/quantum/quantum.o (symbol from plugin)
tap_code16_delay                                  .build/obj_crkbd_rev1_via/quantum/quantum.o (symbol from plugin)
tap_code_delay                                    .build/obj_crkbd_rev1_via/quantum/action.o (symbol from plugin)
                                                  .build/obj_crkbd_rev1_via/quantum/send_string/send_string.o (symbol from plugin)
tap_random_base64                                 .build/obj_crkbd_rev1_via/quantum/send_string/send_string.o (symbol from plugin)
thatHand                                          .build/obj_crkbd_rev1_via/quantum/matrix_common.o (symbol from plugin)
                                                  .build/obj_crkbd_rev1_via/quantum/matrix.o (symbol from plugin)
thisHand                                          .build/obj_crkbd_rev1_via/quantum/matrix_common.o (symbol from plugin)
                                                  .build/obj_crkbd_rev1_via/quantum/matrix.o (symbol from plugin)
time_us_64                                        .build/obj_crkbd_rev1_via/./lib/pico-sdk/src/rp2_common/hardware_timer/timer.o (symbol from plugin)
                                                  .build/obj_crkbd_rev1_via/ws2812_vendor.o (symbol from plugin)
timer.c.1e0df88b                                  /var/folders/tr/p8fgs8cd4pn1v7l1rzxd4yfr0000gn/T//ccgyOZ3Gdebugobj
timer.c.46b716f2                                  /var/folders/tr/p8fgs8cd4pn1v7l1rzxd4yfr0000gn/T//ccgyOZ3Gdebugobj
                                                  /var/folders/tr/p8fgs8cd4pn1v7l1rzxd4yfr0000gn/T//ccLV2jr4.ltrans0.ltrans.o
timer.c.e8cd8772                                  /var/folders/tr/p8fgs8cd4pn1v7l1rzxd4yfr0000gn/T//ccgyOZ3Gdebugobj
                                                  /var/folders/tr/p8fgs8cd4pn1v7l1rzxd4yfr0000gn/T//ccLV2jr4.ltrans0.ltrans.o
timer_clear                                       .build/obj_crkbd_rev1_via/platforms/chibios/timer.o (symbol from plugin)
timer_elapsed                                     .build/obj_crkbd_rev1_via/platforms/chibios/timer.o (symbol from plugin)
                                                  .build/obj_crkbd_rev1_via/quantum/process_keycode/process_space_cadet.o (symbol from plugin)
                                                  .build/obj_crkbd_rev1_via/oled_driver.o (symbol from plugin)
                                                  .build/obj_crkbd_rev1_via/quantum/split_common/split_util.o (symbol from plugin)
                                                  .build/obj_crkbd_rev1_via/quantum/sync_timer.o (symbol from plugin)
timer_elapsed32                                   .build/obj_crkbd_rev1_via/platforms/chibios/timer.o (symbol from plugin)
                                                  .build/obj_crkbd_rev1_via/platforms/timer.o (symbol from plugin)
                                                  .build/obj_crkbd_rev1_via/quantum/split_common/transactions.o (symbol from plugin)
                                                  .build/obj_crkbd_rev1_via/quantum/debounce/sym_defer_g.o (symbol from plugin)
                                                  .build/obj_crkbd_rev1_via/quantum/sync_timer.o (symbol from plugin)
                                                  .build/obj_crkbd_rev1_via/quantum/led.o (symbol from plugin)
timer_elapsed_fast                                .build/obj_crkbd_rev1_via/platforms/timer.o (symbol from plugin)
timer_init                                        .build/obj_crkbd_rev1_via/platforms/chibios/timer.o (symbol from plugin)
                                                  .build/obj_crkbd_rev1_via/quantum/keyboard.o (symbol from plugin)
timer_read                                        .build/obj_crkbd_rev1_via/platforms/chibios/timer.o (symbol from plugin)
                                                  .build/obj_crkbd_rev1_via/quantum/process_keycode/process_space_cadet.o (symbol from plugin)
                                                  .build/obj_crkbd_rev1_via/oled_driver.o (symbol from plugin)
                                                  .build/obj_crkbd_rev1_via/quantum/split_common/split_util.o (symbol from plugin)
                                                  .build/obj_crkbd_rev1_via/quantum/sync_timer.o (symbol from plugin)
                                                  .build/obj_crkbd_rev1_via/quantum/keyboard.o (symbol from plugin)
timer_read32                                      .build/obj_crkbd_rev1_via/platforms/chibios/timer.o (symbol from plugin)
                                                  .build/obj_crkbd_rev1_via/platforms/timer.o (symbol from plugin)
                                                  .build/obj_crkbd_rev1_via/quantum/via.o (symbol from plugin)
                                                  .build/obj_crkbd_rev1_via/oled_driver.o (symbol from plugin)
                                                  .build/obj_crkbd_rev1_via/quantum/split_common/transactions.o (symbol from plugin)
                                                  .build/obj_crkbd_rev1_via/quantum/debounce/sym_defer_g.o (symbol from plugin)
                                                  .build/obj_crkbd_rev1_via/quantum/sync_timer.o (symbol from plugin)
                                                  .build/obj_crkbd_rev1_via/quantum/led.o (symbol from plugin)
timer_read_fast                                   .build/obj_crkbd_rev1_via/platforms/timer.o (symbol from plugin)
tp_buttons                                        .build/obj_crkbd_rev1_via/quantum/action.o (symbol from plugin)
transactions.c.627b52b0                           /var/folders/tr/p8fgs8cd4pn1v7l1rzxd4yfr0000gn/T//ccgyOZ3Gdebugobj
                                                  /var/folders/tr/p8fgs8cd4pn1v7l1rzxd4yfr0000gn/T//ccLV2jr4.ltrans0.ltrans.o
transactions_master                               .build/obj_crkbd_rev1_via/quantum/split_common/transactions.o (symbol from plugin)
                                                  .build/obj_crkbd_rev1_via/quantum/split_common/transport.o (symbol from plugin)
transactions_slave                                .build/obj_crkbd_rev1_via/quantum/split_common/transactions.o (symbol from plugin)
                                                  .build/obj_crkbd_rev1_via/quantum/split_common/transport.o (symbol from plugin)
transport.c.a54880d2                              /var/folders/tr/p8fgs8cd4pn1v7l1rzxd4yfr0000gn/T//ccgyOZ3Gdebugobj
                                                  /var/folders/tr/p8fgs8cd4pn1v7l1rzxd4yfr0000gn/T//ccLV2jr4.ltrans0.ltrans.o
transport_execute_transaction                     .build/obj_crkbd_rev1_via/quantum/split_common/transport.o (symbol from plugin)
                                                  .build/obj_crkbd_rev1_via/quantum/split_common/transactions.o (symbol from plugin)
transport_master                                  .build/obj_crkbd_rev1_via/quantum/split_common/transport.o (symbol from plugin)
                                                  .build/obj_crkbd_rev1_via/quantum/split_common/split_util.o (symbol from plugin)
                                                  .build/obj_crkbd_rev1_via/quantum/matrix.o (symbol from plugin)
transport_master_if_connected                     .build/obj_crkbd_rev1_via/quantum/split_common/split_util.o (symbol from plugin)
                                                  .build/obj_crkbd_rev1_via/quantum/matrix.o (symbol from plugin)
                                                  .build/obj_crkbd_rev1_via/quantum/matrix_common.o (symbol from plugin)
transport_master_init                             .build/obj_crkbd_rev1_via/quantum/split_common/transport.o (symbol from plugin)
                                                  .build/obj_crkbd_rev1_via/quantum/split_common/split_util.o (symbol from plugin)
transport_slave                                   .build/obj_crkbd_rev1_via/quantum/split_common/transport.o (symbol from plugin)
                                                  .build/obj_crkbd_rev1_via/quantum/matrix_common.o (symbol from plugin)
transport_slave_init                              .build/obj_crkbd_rev1_via/quantum/split_common/transport.o (symbol from plugin)
                                                  .build/obj_crkbd_rev1_via/quantum/split_common/split_util.o (symbol from plugin)
tri_layer.c.a75ac0a1                              /var/folders/tr/p8fgs8cd4pn1v7l1rzxd4yfr0000gn/T//ccgyOZ3Gdebugobj
                                                  /var/folders/tr/p8fgs8cd4pn1v7l1rzxd4yfr0000gn/T//ccLV2jr4.ltrans0.ltrans.o
tx_thread                                         .build/obj_crkbd_rev1_via/serial_vendor.a(serial_vendor.o)
universal_report_blank                            .build/obj_crkbd_rev1_via/protocol/chibios/usb_main.o (symbol from plugin)
unregister_code                                   .build/obj_crkbd_rev1_via/quantum/action.o (symbol from plugin)
                                                  .build/obj_crkbd_rev1_via/quantum/send_string/send_string.o (symbol from plugin)
                                                  .build/obj_crkbd_rev1_via/quantum/quantum.o (symbol from plugin)
unregister_code16                                 .build/obj_crkbd_rev1_via/quantum/quantum.o (symbol from plugin)
unregister_mods                                   .build/obj_crkbd_rev1_via/quantum/action.o (symbol from plugin)
                                                  .build/obj_crkbd_rev1_via/quantum/process_keycode/process_space_cadet.o (symbol from plugin)
                                                  .build/obj_crkbd_rev1_via/quantum/quantum.o (symbol from plugin)
unregister_weak_mods                              .build/obj_crkbd_rev1_via/quantum/action.o (symbol from plugin)
                                                  .build/obj_crkbd_rev1_via/quantum/quantum.o (symbol from plugin)
update_source_layers_cache                        .build/obj_crkbd_rev1_via/quantum/action_layer.o (symbol from plugin)
                                                  .build/obj_crkbd_rev1_via/quantum/quantum.o (symbol from plugin)
update_source_layers_cache_impl                   .build/obj_crkbd_rev1_via/quantum/action_layer.o (symbol from plugin)
update_source_layers_cache_impl.constprop.135     /var/folders/tr/p8fgs8cd4pn1v7l1rzxd4yfr0000gn/T//ccLV2jr4.ltrans0.ltrans.o
                                                  /var/folders/tr/p8fgs8cd4pn1v7l1rzxd4yfr0000gn/T//ccLV2jr4.ltrans1.ltrans.o
update_tri_layer                                  .build/obj_crkbd_rev1_via/quantum/action_layer.o (symbol from plugin)
                                                  .build/obj_crkbd_rev1_via/quantum/process_keycode/process_tri_layer.o (symbol from plugin)
update_tri_layer_state                            .build/obj_crkbd_rev1_via/quantum/action_layer.o (symbol from plugin)
usbDisableEndpointsI                              .build/obj_crkbd_rev1_via/lib/chibios/os/hal/src/hal_usb.o (symbol from plugin)
usbInit                                           .build/obj_crkbd_rev1_via/lib/chibios/os/hal/src/hal_usb.o (symbol from plugin)
                                                  .build/obj_crkbd_rev1_via/lib/chibios/os/hal/src/hal.o (symbol from plugin)
usbInitEndpointI                                  .build/obj_crkbd_rev1_via/lib/chibios/os/hal/src/hal_usb.o (symbol from plugin)
                                                  .build/obj_crkbd_rev1_via/protocol/chibios/usb_main.o (symbol from plugin)
usbObjectInit                                     .build/obj_crkbd_rev1_via/lib/chibios/os/hal/src/hal_usb.o (symbol from plugin)
                                                  .build/obj_crkbd_rev1_via/lib/chibios-contrib/os/hal/ports/RP/LLD/USBDv1/hal_usb_lld.o (symbol from plugin)
usbReceive                                        .build/obj_crkbd_rev1_via/lib/chibios/os/hal/src/hal_usb.o (symbol from plugin)
usbStallReceiveI                                  .build/obj_crkbd_rev1_via/lib/chibios/os/hal/src/hal_usb.o (symbol from plugin)
usbStallTransmitI                                 .build/obj_crkbd_rev1_via/lib/chibios/os/hal/src/hal_usb.o (symbol from plugin)
usbStart                                          .build/obj_crkbd_rev1_via/lib/chibios/os/hal/src/hal_usb.o (symbol from plugin)
                                                  .build/obj_crkbd_rev1_via/protocol/chibios/usb_main.o (symbol from plugin)
usbStartReceiveI                                  .build/obj_crkbd_rev1_via/lib/chibios/os/hal/src/hal_usb.o (symbol from plugin)
                                                  .build/obj_crkbd_rev1_via/protocol/chibios/usb_driver.o (symbol from plugin)
usbStartTransmitI                                 .build/obj_crkbd_rev1_via/lib/chibios/os/hal/src/hal_usb.o (symbol from plugin)
                                                  .build/obj_crkbd_rev1_via/protocol/chibios/usb_driver.o (symbol from plugin)
                                                  .build/obj_crkbd_rev1_via/protocol/chibios/usb_main.o (symbol from plugin)
usbStop                                           .build/obj_crkbd_rev1_via/lib/chibios/os/hal/src/hal_usb.o (symbol from plugin)
                                                  .build/obj_crkbd_rev1_via/protocol/chibios/usb_util.o (symbol from plugin)
                                                  .build/obj_crkbd_rev1_via/protocol/chibios/usb_main.o (symbol from plugin)
usbTransmit                                       .build/obj_crkbd_rev1_via/lib/chibios/os/hal/src/hal_usb.o (symbol from plugin)
usbWakeupHost                                     .build/obj_crkbd_rev1_via/lib/chibios/os/hal/src/hal_usb.o (symbol from plugin)
                                                  .build/obj_crkbd_rev1_via/protocol/chibios/chibios.o (symbol from plugin)
usb_connected_state                               .build/obj_crkbd_rev1_via/protocol/chibios/usb_util.o (symbol from plugin)
                                                  .build/obj_crkbd_rev1_via/protocol/usb_util.o (symbol from plugin)
usb_descriptor.c.f41cc9cb                         /var/folders/tr/p8fgs8cd4pn1v7l1rzxd4yfr0000gn/T//ccgyOZ3Gdebugobj
                                                  /var/folders/tr/p8fgs8cd4pn1v7l1rzxd4yfr0000gn/T//ccLV2jr4.ltrans0.ltrans.o
usb_device_state                                  .build/obj_crkbd_rev1_via/protocol/usb_device_state.o (symbol from plugin)
usb_device_state.c.6bf75d42                       /var/folders/tr/p8fgs8cd4pn1v7l1rzxd4yfr0000gn/T//ccgyOZ3Gdebugobj
                                                  /var/folders/tr/p8fgs8cd4pn1v7l1rzxd4yfr0000gn/T//ccLV2jr4.ltrans0.ltrans.o
usb_device_state_init                             .build/obj_crkbd_rev1_via/protocol/usb_device_state.o (symbol from plugin)
                                                  .build/obj_crkbd_rev1_via/protocol/chibios/chibios.o (symbol from plugin)
usb_device_state_set_configuration                .build/obj_crkbd_rev1_via/protocol/usb_device_state.o (symbol from plugin)
                                                  .build/obj_crkbd_rev1_via/protocol/chibios/usb_main.o (symbol from plugin)
usb_device_state_set_reset                        .build/obj_crkbd_rev1_via/protocol/usb_device_state.o (symbol from plugin)
                                                  .build/obj_crkbd_rev1_via/protocol/chibios/usb_main.o (symbol from plugin)
usb_device_state_set_resume                       .build/obj_crkbd_rev1_via/protocol/usb_device_state.o (symbol from plugin)
                                                  .build/obj_crkbd_rev1_via/protocol/chibios/usb_main.o (symbol from plugin)
usb_device_state_set_suspend                      .build/obj_crkbd_rev1_via/protocol/usb_device_state.o (symbol from plugin)
                                                  .build/obj_crkbd_rev1_via/protocol/chibios/usb_main.o (symbol from plugin)
usb_disconnect                                    .build/obj_crkbd_rev1_via/protocol/chibios/usb_util.o (symbol from plugin)
                                                  .build/obj_crkbd_rev1_via/protocol/usb_util.o (symbol from plugin)
                                                  .build/obj_crkbd_rev1_via/quantum/split_common/split_util.o (symbol from plugin)
usb_driver.c.ac94354e                             /var/folders/tr/p8fgs8cd4pn1v7l1rzxd4yfr0000gn/T//ccgyOZ3Gdebugobj
                                                  /var/folders/tr/p8fgs8cd4pn1v7l1rzxd4yfr0000gn/T//ccLV2jr4.ltrans0.ltrans.o
usb_event_queue_init                              .build/obj_crkbd_rev1_via/protocol/chibios/usb_main.o (symbol from plugin)
                                                  .build/obj_crkbd_rev1_via/protocol/chibios/chibios.o (symbol from plugin)
usb_event_queue_task                              .build/obj_crkbd_rev1_via/protocol/chibios/usb_main.o (symbol from plugin)
                                                  .build/obj_crkbd_rev1_via/protocol/chibios/chibios.o (symbol from plugin)
usb_lld_clear_in                                  .build/obj_crkbd_rev1_via/lib/chibios-contrib/os/hal/ports/RP/LLD/USBDv1/hal_usb_lld.o (symbol from plugin)
                                                  .build/obj_crkbd_rev1_via/lib/chibios/os/hal/src/hal_usb.o (symbol from plugin)
usb_lld_clear_out                                 .build/obj_crkbd_rev1_via/lib/chibios-contrib/os/hal/ports/RP/LLD/USBDv1/hal_usb_lld.o (symbol from plugin)
                                                  .build/obj_crkbd_rev1_via/lib/chibios/os/hal/src/hal_usb.o (symbol from plugin)
usb_lld_disable_endpoints                         .build/obj_crkbd_rev1_via/lib/chibios-contrib/os/hal/ports/RP/LLD/USBDv1/hal_usb_lld.o (symbol from plugin)
                                                  .build/obj_crkbd_rev1_via/lib/chibios/os/hal/src/hal_usb.o (symbol from plugin)
usb_lld_get_status_in                             .build/obj_crkbd_rev1_via/lib/chibios-contrib/os/hal/ports/RP/LLD/USBDv1/hal_usb_lld.o (symbol from plugin)
                                                  .build/obj_crkbd_rev1_via/lib/chibios/os/hal/src/hal_usb.o (symbol from plugin)
usb_lld_get_status_out                            .build/obj_crkbd_rev1_via/lib/chibios-contrib/os/hal/ports/RP/LLD/USBDv1/hal_usb_lld.o (symbol from plugin)
                                                  .build/obj_crkbd_rev1_via/lib/chibios/os/hal/src/hal_usb.o (symbol from plugin)
usb_lld_init                                      .build/obj_crkbd_rev1_via/lib/chibios-contrib/os/hal/ports/RP/LLD/USBDv1/hal_usb_lld.o (symbol from plugin)
                                                  .build/obj_crkbd_rev1_via/lib/chibios/os/hal/src/hal_usb.o (symbol from plugin)
usb_lld_init_endpoint                             .build/obj_crkbd_rev1_via/lib/chibios-contrib/os/hal/ports/RP/LLD/USBDv1/hal_usb_lld.o (symbol from plugin)
                                                  .build/obj_crkbd_rev1_via/lib/chibios/os/hal/src/hal_usb.o (symbol from plugin)
usb_lld_read_setup                                .build/obj_crkbd_rev1_via/lib/chibios-contrib/os/hal/ports/RP/LLD/USBDv1/hal_usb_lld.o (symbol from plugin)
                                                  .build/obj_crkbd_rev1_via/lib/chibios/os/hal/src/hal_usb.o (symbol from plugin)
usb_lld_reset                                     .build/obj_crkbd_rev1_via/lib/chibios-contrib/os/hal/ports/RP/LLD/USBDv1/hal_usb_lld.o (symbol from plugin)
                                                  .build/obj_crkbd_rev1_via/lib/chibios/os/hal/src/hal_usb.o (symbol from plugin)
usb_lld_set_address                               .build/obj_crkbd_rev1_via/lib/chibios-contrib/os/hal/ports/RP/LLD/USBDv1/hal_usb_lld.o (symbol from plugin)
                                                  .build/obj_crkbd_rev1_via/lib/chibios/os/hal/src/hal_usb.o (symbol from plugin)
usb_lld_stall_in                                  .build/obj_crkbd_rev1_via/lib/chibios-contrib/os/hal/ports/RP/LLD/USBDv1/hal_usb_lld.o (symbol from plugin)
                                                  .build/obj_crkbd_rev1_via/lib/chibios/os/hal/src/hal_usb.o (symbol from plugin)
usb_lld_stall_out                                 .build/obj_crkbd_rev1_via/lib/chibios-contrib/os/hal/ports/RP/LLD/USBDv1/hal_usb_lld.o (symbol from plugin)
                                                  .build/obj_crkbd_rev1_via/lib/chibios/os/hal/src/hal_usb.o (symbol from plugin)
usb_lld_start                                     .build/obj_crkbd_rev1_via/lib/chibios-contrib/os/hal/ports/RP/LLD/USBDv1/hal_usb_lld.o (symbol from plugin)
                                                  .build/obj_crkbd_rev1_via/lib/chibios/os/hal/src/hal_usb.o (symbol from plugin)
usb_lld_start_in                                  .build/obj_crkbd_rev1_via/lib/chibios-contrib/os/hal/ports/RP/LLD/USBDv1/hal_usb_lld.o (symbol from plugin)
                                                  .build/obj_crkbd_rev1_via/lib/chibios/os/hal/src/hal_usb.o (symbol from plugin)
usb_lld_start_out                                 .build/obj_crkbd_rev1_via/lib/chibios-contrib/os/hal/ports/RP/LLD/USBDv1/hal_usb_lld.o (symbol from plugin)
                                                  .build/obj_crkbd_rev1_via/lib/chibios/os/hal/src/hal_usb.o (symbol from plugin)
usb_lld_stop                                      .build/obj_crkbd_rev1_via/lib/chibios-contrib/os/hal/ports/RP/LLD/USBDv1/hal_usb_lld.o (symbol from plugin)
                                                  .build/obj_crkbd_rev1_via/lib/chibios/os/hal/src/hal_usb.o (symbol from plugin)
usb_main.c.e1b5b620                               /var/folders/tr/p8fgs8cd4pn1v7l1rzxd4yfr0000gn/T//ccgyOZ3Gdebugobj
                                                  /var/folders/tr/p8fgs8cd4pn1v7l1rzxd4yfr0000gn/T//ccLV2jr4.ltrans1.ltrans.o
                                                  /var/folders/tr/p8fgs8cd4pn1v7l1rzxd4yfr0000gn/T//ccLV2jr4.ltrans0.ltrans.o
usb_prepare_out_ep_buffer                         .build/obj_crkbd_rev1_via/lib/chibios-contrib/os/hal/ports/RP/LLD/USBDv1/hal_usb_lld.o (symbol from plugin)
usb_util.c.3b69a119                               /var/folders/tr/p8fgs8cd4pn1v7l1rzxd4yfr0000gn/T//ccgyOZ3Gdebugobj
                                                  /var/folders/tr/p8fgs8cd4pn1v7l1rzxd4yfr0000gn/T//ccLV2jr4.ltrans0.ltrans.o
usb_util.c.3e03d75a                               /var/folders/tr/p8fgs8cd4pn1v7l1rzxd4yfr0000gn/T//ccgyOZ3Gdebugobj
                                                  /var/folders/tr/p8fgs8cd4pn1v7l1rzxd4yfr0000gn/T//ccLV2jr4.ltrans0.ltrans.o
usb_vbus_state                                    .build/obj_crkbd_rev1_via/protocol/usb_util.o (symbol from plugin)
                                                  .build/obj_crkbd_rev1_via/quantum/split_common/split_util.o (symbol from plugin)
vfctprintf                                        .build/obj_crkbd_rev1_via/printf.o (symbol from plugin)
vfiprintf                                         /opt/homebrew/Cellar/arm-none-eabi-gcc@8/8.5.0_2/lib/arm-none-eabi-gcc/8/gcc/arm-none-eabi/8.5.0/../../../../../../arm-none-eabi/lib/thumb/v6-m/nofp/libg_nano.a(lib_a-nano-vfprintf.o)
vfprintf                                          /opt/homebrew/Cellar/arm-none-eabi-gcc@8/8.5.0_2/lib/arm-none-eabi-gcc/8/gcc/arm-none-eabi/8.5.0/../../../../../../arm-none-eabi/lib/thumb/v6-m/nofp/libg_nano.a(lib_a-nano-vfprintf.o)
via.c.67b58985                                    /var/folders/tr/p8fgs8cd4pn1v7l1rzxd4yfr0000gn/T//ccgyOZ3Gdebugobj
                                                  /var/folders/tr/p8fgs8cd4pn1v7l1rzxd4yfr0000gn/T//ccLV2jr4.ltrans0.ltrans.o
via_command_kb                                    .build/obj_crkbd_rev1_via/quantum/via.o (symbol from plugin)
via_custom_value_command                          .build/obj_crkbd_rev1_via/quantum/via.o (symbol from plugin)
via_custom_value_command_kb                       .build/obj_crkbd_rev1_via/quantum/via.o (symbol from plugin)
via_eeprom_is_valid                               .build/obj_crkbd_rev1_via/quantum/via.o (symbol from plugin)
                                                  .build/obj_crkbd_rev1_via/quantum/eeconfig.o (symbol from plugin)
via_eeprom_set_valid                              .build/obj_crkbd_rev1_via/quantum/via.o (symbol from plugin)
                                                  .build/obj_crkbd_rev1_via/quantum/eeconfig.o (symbol from plugin)
via_get_layout_options                            .build/obj_crkbd_rev1_via/quantum/via.o (symbol from plugin)
via_init                                          .build/obj_crkbd_rev1_via/quantum/via.o (symbol from plugin)
                                                  .build/obj_crkbd_rev1_via/quantum/keyboard.o (symbol from plugin)
via_init_kb                                       .build/obj_crkbd_rev1_via/quantum/via.o (symbol from plugin)
via_qmk_rgblight_command                          .build/obj_crkbd_rev1_via/quantum/via.o (symbol from plugin)
via_qmk_rgblight_get_value                        .build/obj_crkbd_rev1_via/quantum/via.o (symbol from plugin)
via_qmk_rgblight_save                             .build/obj_crkbd_rev1_via/quantum/via.o (symbol from plugin)
via_qmk_rgblight_set_value                        .build/obj_crkbd_rev1_via/quantum/via.o (symbol from plugin)
via_set_device_indication                         .build/obj_crkbd_rev1_via/quantum/via.o (symbol from plugin)
via_set_layout_options                            .build/obj_crkbd_rev1_via/quantum/via.o (symbol from plugin)
via_set_layout_options_kb                         .build/obj_crkbd_rev1_via/quantum/via.o (symbol from plugin)
vprintf                                           /var/folders/tr/p8fgs8cd4pn1v7l1rzxd4yfr0000gn/T//ccLV2jr4.ltrans0.ltrans.o
vsnprintf                                         /var/folders/tr/p8fgs8cd4pn1v7l1rzxd4yfr0000gn/T//ccLV2jr4.ltrans0.ltrans.o
vsprintf                                          /var/folders/tr/p8fgs8cd4pn1v7l1rzxd4yfr0000gn/T//ccLV2jr4.ltrans0.ltrans.o
wait.c.523972ea                                   /var/folders/tr/p8fgs8cd4pn1v7l1rzxd4yfr0000gn/T//ccgyOZ3Gdebugobj
watchdog.c.0bd86623                               /var/folders/tr/p8fgs8cd4pn1v7l1rzxd4yfr0000gn/T//ccgyOZ3Gdebugobj
                                                  /var/folders/tr/p8fgs8cd4pn1v7l1rzxd4yfr0000gn/T//ccLV2jr4.ltrans0.ltrans.o
watchdog_caused_reboot                            .build/obj_crkbd_rev1_via/./lib/pico-sdk/src/rp2_common/hardware_watchdog/watchdog.o (symbol from plugin)
watchdog_enable                                   .build/obj_crkbd_rev1_via/./lib/pico-sdk/src/rp2_common/hardware_watchdog/watchdog.o (symbol from plugin)
watchdog_enable_caused_reboot                     .build/obj_crkbd_rev1_via/./lib/pico-sdk/src/rp2_common/hardware_watchdog/watchdog.o (symbol from plugin)
watchdog_get_count                                .build/obj_crkbd_rev1_via/./lib/pico-sdk/src/rp2_common/hardware_watchdog/watchdog.o (symbol from plugin)
watchdog_reboot                                   .build/obj_crkbd_rev1_via/./lib/pico-sdk/src/rp2_common/hardware_watchdog/watchdog.o (symbol from plugin)
watchdog_start_tick                               .build/obj_crkbd_rev1_via/./lib/pico-sdk/src/rp2_common/hardware_watchdog/watchdog.o (symbol from plugin)
                                                  .build/obj_crkbd_rev1_via/./lib/pico-sdk/src/rp2_common/hardware_clocks/clocks.o (symbol from plugin)
watchdog_update                                   .build/obj_crkbd_rev1_via/./lib/pico-sdk/src/rp2_common/hardware_watchdog/watchdog.o (symbol from plugin)
wear_leveling.c.48d7600a                          /var/folders/tr/p8fgs8cd4pn1v7l1rzxd4yfr0000gn/T//ccgyOZ3Gdebugobj
                                                  /var/folders/tr/p8fgs8cd4pn1v7l1rzxd4yfr0000gn/T//ccLV2jr4.ltrans0.ltrans.o
wear_leveling_erase                               .build/obj_crkbd_rev1_via/wear_leveling.o (symbol from plugin)
                                                  .build/obj_crkbd_rev1_via/eeprom_wear_leveling.o (symbol from plugin)
wear_leveling_init                                .build/obj_crkbd_rev1_via/wear_leveling.o (symbol from plugin)
                                                  .build/obj_crkbd_rev1_via/eeprom_wear_leveling.o (symbol from plugin)
wear_leveling_read                                .build/obj_crkbd_rev1_via/wear_leveling.o (symbol from plugin)
                                                  .build/obj_crkbd_rev1_via/eeprom_wear_leveling.o (symbol from plugin)
wear_leveling_rp2040_flash.c.0f0736fb             /var/folders/tr/p8fgs8cd4pn1v7l1rzxd4yfr0000gn/T//ccgyOZ3Gdebugobj
                                                  /var/folders/tr/p8fgs8cd4pn1v7l1rzxd4yfr0000gn/T//ccLV2jr4.ltrans0.ltrans.o
wear_leveling_write                               .build/obj_crkbd_rev1_via/wear_leveling.o (symbol from plugin)
                                                  .build/obj_crkbd_rev1_via/eeprom_wear_leveling.o (symbol from plugin)
ws2812_init                                       .build/obj_crkbd_rev1_via/ws2812_vendor.o (symbol from plugin)
ws2812_setleds                                    .build/obj_crkbd_rev1_via/ws2812_vendor.o (symbol from plugin)
                                                  .build/obj_crkbd_rev1_via/quantum/rgblight/rgblight_drivers.o (symbol from plugin)
ws2812_vendor.c.f4a84409                          /var/folders/tr/p8fgs8cd4pn1v7l1rzxd4yfr0000gn/T//ccgyOZ3Gdebugobj
                                                  /var/folders/tr/p8fgs8cd4pn1v7l1rzxd4yfr0000gn/T//ccLV2jr4.ltrans0.ltrans.o
xosc.c.b02cd9c4                                   /var/folders/tr/p8fgs8cd4pn1v7l1rzxd4yfr0000gn/T//ccgyOZ3Gdebugobj
                                                  /var/folders/tr/p8fgs8cd4pn1v7l1rzxd4yfr0000gn/T//ccLV2jr4.ltrans0.ltrans.o
xosc_disable                                      .build/obj_crkbd_rev1_via/./lib/pico-sdk/src/rp2_common/hardware_xosc/xosc.o (symbol from plugin)
xosc_dormant                                      .build/obj_crkbd_rev1_via/./lib/pico-sdk/src/rp2_common/hardware_xosc/xosc.o (symbol from plugin)
xosc_init                                         .build/obj_crkbd_rev1_via/./lib/pico-sdk/src/rp2_common/hardware_xosc/xosc.o (symbol from plugin)
                                                  .build/obj_crkbd_rev1_via/./lib/pico-sdk/src/rp2_common/hardware_clocks/clocks.o (symbol from plugin)
